(lp0
(S'Super easy (0)'
p1
I0
(lp2
(I6
S'red'
p3
tp4
a(I8
S'blue'
p5
tp6
a(I0
S'green'
p7
tp8
a(I9
g3
tp9
a(I0
g5
tp10
a(I0
g7
tp11
a(I0
g3
tp12
a(I0
g5
tp13
a(I0
g7
tp14
a(I0
S'yellow'
p15
tp16
a(I0
S'pink'
p17
tp18
a(I4
S'lblue'
p19
tp20
a(I0
g15
tp21
a(I0
g17
tp22
a(I0
g19
tp23
a(I0
g15
tp24
a(I0
g17
tp25
a(I0
g19
tp26
a(I0
S'black'
p27
tp28
a(I0
S'brown'
p29
tp30
a(I5
S'grey'
p31
tp32
a(I1
g27
tp33
a(I0
g29
tp34
a(I0
g31
tp35
a(I0
g27
tp36
a(I0
g29
tp37
a(I0
g31
tp38
a(I5
g3
tp39
a(I4
g5
tp40
a(I0
g7
tp41
a(I2
g3
tp42
a(I0
g5
tp43
a(I0
g7
tp44
a(I8
g3
tp45
a(I9
g5
tp46
a(I0
g7
tp47
a(I0
g15
tp48
a(I0
g17
tp49
a(I3
g19
tp50
a(I0
g15
tp51
a(I0
g17
tp52
a(I0
g19
tp53
a(I1
g15
tp54
a(I0
g17
tp55
a(I0
g19
tp56
a(I0
g27
tp57
a(I2
g29
tp58
a(I8
g31
tp59
a(I0
g27
tp60
a(I0
g29
tp61
a(I9
g31
tp62
a(I0
g27
tp63
a(I4
g29
tp64
a(I3
g31
tp65
a(I0
g3
tp66
a(I0
g5
tp67
a(I0
g7
tp68
a(I0
g3
tp69
a(I0
g5
tp70
a(I8
g7
tp71
a(I7
g3
tp72
a(I0
g5
tp73
a(I0
g7
tp74
a(I0
g15
tp75
a(I0
g17
tp76
a(I0
g19
tp77
a(I0
g15
tp78
a(I0
g17
tp79
a(I0
g19
tp80
a(I2
g15
tp81
a(I0
g17
tp82
a(I0
g19
tp83
a(I0
g27
tp84
a(I0
g29
tp85
a(I0
g31
tp86
a(I0
g27
tp87
a(I0
g29
tp88
a(I6
g31
tp89
a(I0
g27
tp90
a(I3
g29
tp91
a(I1
g31
tp92
atp93
a(S'Super easy (0)'
p94
I1
(lp95
(I6
g3
tp96
a(I0
g5
tp97
a(I0
g7
tp98
a(I0
g3
tp99
a(I0
g5
tp100
a(I9
g7
tp101
a(I4
g3
tp102
a(I0
g5
tp103
a(I0
g7
tp104
a(I0
g15
tp105
a(I0
g17
tp106
a(I0
g19
tp107
a(I0
g15
tp108
a(I7
g17
tp109
a(I6
g19
tp110
a(I8
g15
tp111
a(I0
g17
tp112
a(I0
g19
tp113
a(I5
g27
tp114
a(I3
g29
tp115
a(I0
g31
tp116
a(I0
g27
tp117
a(I0
g29
tp118
a(I0
g31
tp119
a(I0
g27
tp120
a(I0
g29
tp121
a(I0
g31
tp122
a(I0
g3
tp123
a(I5
g5
tp124
a(I8
g7
tp125
a(I0
g3
tp126
a(I0
g5
tp127
a(I4
g7
tp128
a(I0
g3
tp129
a(I0
g5
tp130
a(I0
g7
tp131
a(I0
g15
tp132
a(I0
g17
tp133
a(I9
g19
tp134
a(I0
g15
tp135
a(I0
g17
tp136
a(I0
g19
tp137
a(I7
g15
tp138
a(I0
g17
tp139
a(I0
g19
tp140
a(I0
g27
tp141
a(I0
g29
tp142
a(I0
g31
tp143
a(I9
g27
tp144
a(I0
g29
tp145
a(I0
g31
tp146
a(I2
g27
tp147
a(I6
g29
tp148
a(I0
g31
tp149
a(I0
g3
tp150
a(I0
g5
tp151
a(I0
g7
tp152
a(I0
g3
tp153
a(I0
g5
tp154
a(I0
g7
tp155
a(I0
g3
tp156
a(I1
g5
tp157
a(I2
g7
tp158
a(I0
g15
tp159
a(I0
g17
tp160
a(I1
g19
tp161
a(I6
g15
tp162
a(I3
g17
tp163
a(I0
g19
tp164
a(I0
g15
tp165
a(I0
g17
tp166
a(I0
g19
tp167
a(I0
g27
tp168
a(I0
g29
tp169
a(I5
g31
tp170
a(I1
g27
tp171
a(I0
g29
tp172
a(I0
g31
tp173
a(I0
g27
tp174
a(I0
g29
tp175
a(I6
g31
tp176
atp177
a(S'Super easy (0)'
p178
I2
(lp179
(I6
g3
tp180
a(I8
g5
tp181
a(I0
g7
tp182
a(I0
g3
tp183
a(I5
g5
tp184
a(I0
g7
tp185
a(I0
g3
tp186
a(I9
g5
tp187
a(I0
g7
tp188
a(I2
g15
tp189
a(I5
g17
tp190
a(I0
g19
tp191
a(I4
g15
tp192
a(I0
g17
tp193
a(I0
g19
tp194
a(I0
g15
tp195
a(I0
g17
tp196
a(I3
g19
tp197
a(I0
g27
tp198
a(I0
g29
tp199
a(I0
g31
tp200
a(I0
g27
tp201
a(I0
g29
tp202
a(I3
g31
tp203
a(I0
g27
tp204
a(I0
g29
tp205
a(I0
g31
tp206
a(I7
g3
tp207
a(I0
g5
tp208
a(I0
g7
tp209
a(I0
g3
tp210
a(I0
g5
tp211
a(I0
g7
tp212
a(I0
g3
tp213
a(I1
g5
tp214
a(I0
g7
tp215
a(I9
g15
tp216
a(I0
g17
tp217
a(I0
g19
tp218
a(I0
g15
tp219
a(I0
g17
tp220
a(I0
g19
tp221
a(I0
g15
tp222
a(I0
g17
tp223
a(I2
g19
tp224
a(I0
g27
tp225
a(I3
g29
tp226
a(I0
g31
tp227
a(I0
g27
tp228
a(I0
g29
tp229
a(I0
g31
tp230
a(I0
g27
tp231
a(I0
g29
tp232
a(I8
g31
tp233
a(I0
g3
tp234
a(I0
g5
tp235
a(I0
g7
tp236
a(I3
g3
tp237
a(I0
g5
tp238
a(I0
g7
tp239
a(I0
g3
tp240
a(I0
g5
tp241
a(I0
g7
tp242
a(I1
g15
tp243
a(I0
g17
tp244
a(I0
g19
tp245
a(I0
g15
tp246
a(I0
g17
tp247
a(I8
g19
tp248
a(I0
g15
tp249
a(I2
g17
tp250
a(I9
g19
tp251
a(I0
g27
tp252
a(I9
g29
tp253
a(I0
g31
tp254
a(I0
g27
tp255
a(I1
g29
tp256
a(I0
g31
tp257
a(I0
g27
tp258
a(I8
g29
tp259
a(I7
g31
tp260
atp261
a(S'Super easy (0)'
p262
I3
(lp263
(I0
g3
tp264
a(I0
g5
tp265
a(I4
g7
tp266
a(I0
g3
tp267
a(I1
g5
tp268
a(I0
g7
tp269
a(I5
g3
tp270
a(I9
g5
tp271
a(I0
g7
tp272
a(I0
g15
tp273
a(I0
g17
tp274
a(I0
g19
tp275
a(I0
g15
tp276
a(I2
g17
tp277
a(I0
g19
tp278
a(I8
g15
tp279
a(I3
g17
tp280
a(I0
g19
tp281
a(I0
g27
tp282
a(I0
g29
tp283
a(I7
g31
tp284
a(I0
g27
tp285
a(I0
g29
tp286
a(I9
g31
tp287
a(I0
g27
tp288
a(I0
g29
tp289
a(I0
g31
tp290
a(I6
g3
tp291
a(I0
g5
tp292
a(I0
g7
tp293
a(I0
g3
tp294
a(I5
g5
tp295
a(I2
g7
tp296
a(I0
g3
tp297
a(I0
g5
tp298
a(I0
g7
tp299
a(I0
g15
tp300
a(I0
g17
tp301
a(I0
g19
tp302
a(I1
g15
tp303
a(I0
g17
tp304
a(I6
g19
tp305
a(I0
g15
tp306
a(I0
g17
tp307
a(I0
g19
tp308
a(I0
g27
tp309
a(I0
g29
tp310
a(I0
g31
tp311
a(I4
g27
tp312
a(I7
g29
tp313
a(I0
g31
tp314
a(I0
g27
tp315
a(I0
g29
tp316
a(I8
g31
tp317
a(I0
g3
tp318
a(I0
g5
tp319
a(I0
g7
tp320
a(I7
g3
tp321
a(I0
g5
tp322
a(I0
g7
tp323
a(I9
g3
tp324
a(I0
g5
tp325
a(I0
g7
tp326
a(I0
g15
tp327
a(I7
g17
tp328
a(I9
g19
tp329
a(I0
g15
tp330
a(I6
g17
tp331
a(I0
g19
tp332
a(I0
g15
tp333
a(I0
g17
tp334
a(I0
g19
tp335
a(I0
g27
tp336
a(I2
g29
tp337
a(I1
g31
tp338
a(I0
g27
tp339
a(I3
g29
tp340
a(I0
g31
tp341
a(I7
g27
tp342
a(I0
g29
tp343
a(I0
g31
tp344
atp345
a(S'Super easy (0)'
p346
I4
(lp347
(I6
g3
tp348
a(I0
g5
tp349
a(I0
g7
tp350
a(I0
g3
tp351
a(I4
g5
tp352
a(I3
g7
tp353
a(I0
g3
tp354
a(I2
g5
tp355
a(I0
g7
tp356
a(I0
g15
tp357
a(I0
g17
tp358
a(I3
g19
tp359
a(I0
g15
tp360
a(I0
g17
tp361
a(I0
g19
tp362
a(I0
g15
tp363
a(I0
g17
tp364
a(I8
g19
tp365
a(I1
g27
tp366
a(I0
g29
tp367
a(I0
g31
tp368
a(I0
g27
tp369
a(I5
g29
tp370
a(I0
g31
tp371
a(I0
g27
tp372
a(I0
g29
tp373
a(I0
g31
tp374
a(I0
g3
tp375
a(I1
g5
tp376
a(I0
g7
tp377
a(I0
g3
tp378
a(I8
g5
tp379
a(I0
g7
tp380
a(I0
g3
tp381
a(I0
g5
tp382
a(I0
g7
tp383
a(I0
g15
tp384
a(I7
g17
tp385
a(I4
g19
tp386
a(I3
g15
tp387
a(I0
g17
tp388
a(I6
g19
tp389
a(I8
g15
tp390
a(I1
g17
tp391
a(I0
g19
tp392
a(I0
g27
tp393
a(I0
g29
tp394
a(I0
g31
tp395
a(I0
g27
tp396
a(I1
g29
tp397
a(I0
g31
tp398
a(I0
g27
tp399
a(I9
g29
tp400
a(I0
g31
tp401
a(I0
g3
tp402
a(I0
g5
tp403
a(I0
g7
tp404
a(I0
g3
tp405
a(I3
g5
tp406
a(I0
g7
tp407
a(I0
g3
tp408
a(I0
g5
tp409
a(I7
g7
tp410
a(I4
g15
tp411
a(I0
g17
tp412
a(I0
g19
tp413
a(I0
g15
tp414
a(I0
g17
tp415
a(I0
g19
tp416
a(I6
g15
tp417
a(I0
g17
tp418
a(I0
g19
tp419
a(I0
g27
tp420
a(I8
g29
tp421
a(I0
g31
tp422
a(I6
g27
tp423
a(I7
g29
tp424
a(I0
g31
tp425
a(I0
g27
tp426
a(I0
g29
tp427
a(I1
g31
tp428
atp429
a(S'Super easy (0)'
p430
I5
(lp431
(I0
g3
tp432
a(I0
g5
tp433
a(I1
g7
tp434
a(I0
g3
tp435
a(I0
g5
tp436
a(I0
g7
tp437
a(I0
g3
tp438
a(I0
g5
tp439
a(I0
g7
tp440
a(I0
g15
tp441
a(I0
g17
tp442
a(I0
g19
tp443
a(I0
g15
tp444
a(I0
g17
tp445
a(I8
g19
tp446
a(I0
g15
tp447
a(I0
g17
tp448
a(I3
g19
tp449
a(I8
g27
tp450
a(I0
g29
tp451
a(I0
g31
tp452
a(I3
g27
tp453
a(I9
g29
tp454
a(I6
g31
tp455
a(I0
g27
tp456
a(I0
g29
tp457
a(I0
g31
tp458
a(I1
g3
tp459
a(I3
g5
tp460
a(I0
g7
tp461
a(I0
g3
tp462
a(I8
g5
tp463
a(I0
g7
tp464
a(I0
g3
tp465
a(I0
g5
tp466
a(I0
g7
tp467
a(I7
g15
tp468
a(I0
g17
tp469
a(I0
g19
tp470
a(I9
g15
tp471
a(I0
g17
tp472
a(I4
g19
tp473
a(I0
g15
tp474
a(I0
g17
tp475
a(I6
g19
tp476
a(I0
g27
tp477
a(I0
g29
tp478
a(I0
g31
tp479
a(I0
g27
tp480
a(I2
g29
tp481
a(I0
g31
tp482
a(I0
g27
tp483
a(I5
g29
tp484
a(I1
g31
tp485
a(I0
g3
tp486
a(I0
g5
tp487
a(I0
g7
tp488
a(I4
g3
tp489
a(I7
g5
tp490
a(I5
g7
tp491
a(I0
g3
tp492
a(I0
g5
tp493
a(I8
g7
tp494
a(I6
g15
tp495
a(I0
g17
tp496
a(I0
g19
tp497
a(I8
g15
tp498
a(I0
g17
tp499
a(I0
g19
tp500
a(I0
g15
tp501
a(I0
g17
tp502
a(I0
g19
tp503
a(I0
g27
tp504
a(I0
g29
tp505
a(I0
g31
tp506
a(I0
g27
tp507
a(I0
g29
tp508
a(I0
g31
tp509
a(I4
g27
tp510
a(I0
g29
tp511
a(I0
g31
tp512
atp513
a(S'Super easy (0)'
p514
I6
(lp515
(I0
g3
tp516
a(I0
g5
tp517
a(I4
g7
tp518
a(I0
g3
tp519
a(I2
g5
tp520
a(I0
g7
tp521
a(I0
g3
tp522
a(I1
g5
tp523
a(I5
g7
tp524
a(I6
g15
tp525
a(I0
g17
tp526
a(I2
g19
tp527
a(I0
g15
tp528
a(I1
g17
tp529
a(I0
g19
tp530
a(I0
g15
tp531
a(I0
g17
tp532
a(I0
g19
tp533
a(I9
g27
tp534
a(I0
g29
tp535
a(I0
g31
tp536
a(I0
g27
tp537
a(I0
g29
tp538
a(I0
g31
tp539
a(I2
g27
tp540
a(I0
g29
tp541
a(I0
g31
tp542
a(I0
g3
tp543
a(I5
g5
tp544
a(I0
g7
tp545
a(I0
g3
tp546
a(I9
g5
tp547
a(I0
g7
tp548
a(I0
g3
tp549
a(I0
g5
tp550
a(I2
g7
tp551
a(I2
g15
tp552
a(I0
g17
tp553
a(I0
g19
tp554
a(I4
g15
tp555
a(I0
g17
tp556
a(I5
g19
tp557
a(I0
g15
tp558
a(I0
g17
tp559
a(I3
g19
tp560
a(I8
g27
tp561
a(I0
g29
tp562
a(I0
g31
tp563
a(I0
g27
tp564
a(I6
g29
tp565
a(I0
g31
tp566
a(I0
g27
tp567
a(I5
g29
tp568
a(I0
g31
tp569
a(I0
g3
tp570
a(I0
g5
tp571
a(I8
g7
tp572
a(I0
g3
tp573
a(I0
g5
tp574
a(I0
g7
tp575
a(I0
g3
tp576
a(I0
g5
tp577
a(I6
g7
tp578
a(I0
g15
tp579
a(I0
g17
tp580
a(I0
g19
tp581
a(I0
g15
tp582
a(I5
g17
tp583
a(I0
g19
tp584
a(I7
g15
tp585
a(I0
g17
tp586
a(I9
g19
tp587
a(I5
g27
tp588
a(I2
g29
tp589
a(I0
g31
tp590
a(I0
g27
tp591
a(I7
g29
tp592
a(I0
g31
tp593
a(I3
g27
tp594
a(I0
g29
tp595
a(I0
g31
tp596
atp597
a(S'Super easy (0)'
p598
I7
(lp599
(I2
g3
tp600
a(I0
g5
tp601
a(I0
g7
tp602
a(I0
g3
tp603
a(I0
g5
tp604
a(I0
g7
tp605
a(I0
g3
tp606
a(I0
g5
tp607
a(I3
g7
tp608
a(I5
g15
tp609
a(I0
g17
tp610
a(I0
g19
tp611
a(I0
g15
tp612
a(I7
g17
tp613
a(I0
g19
tp614
a(I8
g15
tp615
a(I0
g17
tp616
a(I0
g19
tp617
a(I0
g27
tp618
a(I0
g29
tp619
a(I0
g31
tp620
a(I4
g27
tp621
a(I0
g29
tp622
a(I0
g31
tp623
a(I0
g27
tp624
a(I0
g29
tp625
a(I5
g31
tp626
a(I0
g3
tp627
a(I1
g5
tp628
a(I0
g7
tp629
a(I7
g3
tp630
a(I0
g5
tp631
a(I9
g7
tp632
a(I0
g3
tp633
a(I4
g5
tp634
a(I0
g7
tp635
a(I0
g15
tp636
a(I0
g17
tp637
a(I0
g19
tp638
a(I0
g15
tp639
a(I0
g17
tp640
a(I0
g19
tp641
a(I0
g15
tp642
a(I0
g17
tp643
a(I0
g19
tp644
a(I0
g27
tp645
a(I9
g29
tp646
a(I0
g31
tp647
a(I1
g27
tp648
a(I0
g29
tp649
a(I4
g31
tp650
a(I0
g27
tp651
a(I5
g29
tp652
a(I0
g31
tp653
a(I1
g3
tp654
a(I0
g5
tp655
a(I0
g7
tp656
a(I0
g3
tp657
a(I0
g5
tp658
a(I5
g7
tp659
a(I0
g3
tp660
a(I0
g5
tp661
a(I0
g7
tp662
a(I0
g15
tp663
a(I0
g17
tp664
a(I6
g19
tp665
a(I0
g15
tp666
a(I9
g17
tp667
a(I0
g19
tp668
a(I0
g15
tp669
a(I0
g17
tp670
a(I2
g19
tp671
a(I3
g27
tp672
a(I0
g29
tp673
a(I0
g31
tp674
a(I0
g27
tp675
a(I0
g29
tp676
a(I0
g31
tp677
a(I0
g27
tp678
a(I0
g29
tp679
a(I6
g31
tp680
atp681
a(S'Super easy (0)'
p682
I8
(lp683
(I0
g3
tp684
a(I0
g5
tp685
a(I3
g7
tp686
a(I0
g3
tp687
a(I0
g5
tp688
a(I2
g7
tp689
a(I0
g3
tp690
a(I0
g5
tp691
a(I0
g7
tp692
a(I0
g15
tp693
a(I7
g17
tp694
a(I0
g19
tp695
a(I0
g15
tp696
a(I0
g17
tp697
a(I4
g19
tp698
a(I0
g15
tp699
a(I0
g17
tp700
a(I9
g19
tp701
a(I0
g27
tp702
a(I6
g29
tp703
a(I0
g31
tp704
a(I0
g27
tp705
a(I5
g29
tp706
a(I0
g31
tp707
a(I7
g27
tp708
a(I8
g29
tp709
a(I0
g31
tp710
a(I0
g3
tp711
a(I0
g5
tp712
a(I0
g7
tp713
a(I4
g3
tp714
a(I0
g5
tp715
a(I0
g7
tp716
a(I0
g3
tp717
a(I0
g5
tp718
a(I7
g7
tp719
a(I0
g15
tp720
a(I0
g17
tp721
a(I0
g19
tp722
a(I0
g15
tp723
a(I0
g17
tp724
a(I0
g19
tp725
a(I0
g15
tp726
a(I0
g17
tp727
a(I0
g19
tp728
a(I1
g27
tp729
a(I0
g29
tp730
a(I0
g31
tp731
a(I0
g27
tp732
a(I0
g29
tp733
a(I7
g31
tp734
a(I0
g27
tp735
a(I0
g29
tp736
a(I0
g31
tp737
a(I0
g3
tp738
a(I9
g5
tp739
a(I5
g7
tp740
a(I0
g3
tp741
a(I8
g5
tp742
a(I0
g7
tp743
a(I0
g3
tp744
a(I6
g5
tp745
a(I0
g7
tp746
a(I2
g15
tp747
a(I0
g17
tp748
a(I0
g19
tp749
a(I5
g15
tp750
a(I0
g17
tp751
a(I0
g19
tp752
a(I0
g15
tp753
a(I3
g17
tp754
a(I0
g19
tp755
a(I0
g27
tp756
a(I0
g29
tp757
a(I0
g31
tp758
a(I3
g27
tp759
a(I0
g29
tp760
a(I0
g31
tp761
a(I8
g27
tp762
a(I0
g29
tp763
a(I0
g31
tp764
atp765
a(S'Super easy (0)'
p766
I9
(lp767
(I0
g3
tp768
a(I1
g5
tp769
a(I6
g7
tp770
a(I0
g3
tp771
a(I0
g5
tp772
a(I0
g7
tp773
a(I0
g3
tp774
a(I3
g5
tp775
a(I0
g7
tp776
a(I0
g15
tp777
a(I0
g17
tp778
a(I3
g19
tp779
a(I0
g15
tp780
a(I0
g17
tp781
a(I5
g19
tp782
a(I0
g15
tp783
a(I9
g17
tp784
a(I0
g19
tp785
a(I0
g27
tp786
a(I0
g29
tp787
a(I5
g31
tp788
a(I0
g27
tp789
a(I0
g29
tp790
a(I0
g31
tp791
a(I0
g27
tp792
a(I4
g29
tp793
a(I0
g31
tp794
a(I0
g3
tp795
a(I8
g5
tp796
a(I0
g7
tp797
a(I0
g3
tp798
a(I0
g5
tp799
a(I0
g7
tp800
a(I0
g3
tp801
a(I0
g5
tp802
a(I0
g7
tp803
a(I7
g15
tp804
a(I0
g17
tp805
a(I0
g19
tp806
a(I0
g15
tp807
a(I0
g17
tp808
a(I0
g19
tp809
a(I0
g15
tp810
a(I0
g17
tp811
a(I6
g19
tp812
a(I0
g27
tp813
a(I0
g29
tp814
a(I0
g31
tp815
a(I0
g27
tp816
a(I0
g29
tp817
a(I0
g31
tp818
a(I0
g27
tp819
a(I8
g29
tp820
a(I0
g31
tp821
a(I0
g3
tp822
a(I4
g5
tp823
a(I0
g7
tp824
a(I0
g3
tp825
a(I0
g5
tp826
a(I0
g7
tp827
a(I1
g3
tp828
a(I0
g5
tp829
a(I0
g7
tp830
a(I0
g15
tp831
a(I2
g17
tp832
a(I0
g19
tp833
a(I5
g15
tp834
a(I0
g17
tp835
a(I0
g19
tp836
a(I4
g15
tp837
a(I0
g17
tp838
a(I0
g19
tp839
a(I0
g27
tp840
a(I3
g29
tp841
a(I0
g31
tp842
a(I0
g27
tp843
a(I0
g29
tp844
a(I0
g31
tp845
a(I9
g27
tp846
a(I7
g29
tp847
a(I0
g31
tp848
atp849
a(S'Super easy (0)'
p850
I10
(lp851
(I0
g3
tp852
a(I0
g5
tp853
a(I0
g7
tp854
a(I0
g3
tp855
a(I0
g5
tp856
a(I0
g7
tp857
a(I0
g3
tp858
a(I0
g5
tp859
a(I0
g7
tp860
a(I2
g15
tp861
a(I3
g17
tp862
a(I0
g19
tp863
a(I8
g15
tp864
a(I4
g17
tp865
a(I0
g19
tp866
a(I0
g15
tp867
a(I0
g17
tp868
a(I1
g19
tp869
a(I0
g27
tp870
a(I0
g29
tp871
a(I0
g31
tp872
a(I6
g27
tp873
a(I0
g29
tp874
a(I3
g31
tp875
a(I0
g27
tp876
a(I0
g29
tp877
a(I5
g31
tp878
a(I0
g3
tp879
a(I0
g5
tp880
a(I0
g7
tp881
a(I0
g3
tp882
a(I9
g5
tp883
a(I7
g7
tp884
a(I4
g3
tp885
a(I5
g5
tp886
a(I0
g7
tp887
a(I0
g15
tp888
a(I0
g17
tp889
a(I0
g19
tp890
a(I0
g15
tp891
a(I0
g17
tp892
a(I0
g19
tp893
a(I0
g15
tp894
a(I0
g17
tp895
a(I0
g19
tp896
a(I0
g27
tp897
a(I4
g29
tp898
a(I7
g31
tp899
a(I2
g27
tp900
a(I3
g29
tp901
a(I0
g31
tp902
a(I0
g27
tp903
a(I0
g29
tp904
a(I0
g31
tp905
a(I8
g3
tp906
a(I0
g5
tp907
a(I0
g7
tp908
a(I5
g3
tp909
a(I0
g5
tp910
a(I9
g7
tp911
a(I0
g3
tp912
a(I0
g5
tp913
a(I0
g7
tp914
a(I6
g15
tp915
a(I0
g17
tp916
a(I0
g19
tp917
a(I0
g15
tp918
a(I8
g17
tp919
a(I2
g19
tp920
a(I0
g15
tp921
a(I9
g17
tp922
a(I7
g19
tp923
a(I0
g27
tp924
a(I0
g29
tp925
a(I0
g31
tp926
a(I0
g27
tp927
a(I0
g29
tp928
a(I0
g31
tp929
a(I0
g27
tp930
a(I0
g29
tp931
a(I0
g31
tp932
atp933
a(S'Super easy (0)'
p934
I11
(lp935
(I9
g3
tp936
a(I0
g5
tp937
a(I0
g7
tp938
a(I0
g3
tp939
a(I0
g5
tp940
a(I5
g7
tp941
a(I0
g3
tp942
a(I1
g5
tp943
a(I0
g7
tp944
a(I0
g15
tp945
a(I0
g17
tp946
a(I0
g19
tp947
a(I0
g15
tp948
a(I0
g17
tp949
a(I4
g19
tp950
a(I5
g15
tp951
a(I0
g17
tp952
a(I0
g19
tp953
a(I4
g27
tp954
a(I0
g29
tp955
a(I0
g31
tp956
a(I7
g27
tp957
a(I0
g29
tp958
a(I0
g31
tp959
a(I0
g27
tp960
a(I0
g29
tp961
a(I0
g31
tp962
a(I2
g3
tp963
a(I3
g5
tp964
a(I0
g7
tp965
a(I5
g3
tp966
a(I0
g5
tp967
a(I0
g7
tp968
a(I0
g3
tp969
a(I0
g5
tp970
a(I0
g7
tp971
a(I8
g15
tp972
a(I0
g17
tp973
a(I0
g19
tp974
a(I0
g15
tp975
a(I1
g17
tp976
a(I0
g19
tp977
a(I0
g15
tp978
a(I0
g17
tp979
a(I9
g19
tp980
a(I0
g27
tp981
a(I0
g29
tp982
a(I0
g31
tp983
a(I0
g27
tp984
a(I0
g29
tp985
a(I7
g31
tp986
a(I0
g27
tp987
a(I2
g29
tp988
a(I6
g31
tp989
a(I0
g3
tp990
a(I0
g5
tp991
a(I0
g7
tp992
a(I0
g3
tp993
a(I0
g5
tp994
a(I2
g7
tp995
a(I0
g3
tp996
a(I0
g5
tp997
a(I7
g7
tp998
a(I0
g15
tp999
a(I0
g17
tp1000
a(I8
g19
tp1001
a(I4
g15
tp1002
a(I0
g17
tp1003
a(I0
g19
tp1004
a(I0
g15
tp1005
a(I0
g17
tp1006
a(I0
g19
tp1007
a(I0
g27
tp1008
a(I1
g29
tp1009
a(I0
g31
tp1010
a(I9
g27
tp1011
a(I0
g29
tp1012
a(I0
g31
tp1013
a(I0
g27
tp1014
a(I0
g29
tp1015
a(I2
g31
tp1016
atp1017
a(S'Super easy (0)'
p1018
I12
(lp1019
(I0
g3
tp1020
a(I0
g5
tp1021
a(I0
g7
tp1022
a(I0
g3
tp1023
a(I4
g5
tp1024
a(I2
g7
tp1025
a(I0
g3
tp1026
a(I0
g5
tp1027
a(I0
g7
tp1028
a(I0
g15
tp1029
a(I6
g17
tp1030
a(I0
g19
tp1031
a(I7
g15
tp1032
a(I5
g17
tp1033
a(I0
g19
tp1034
a(I0
g15
tp1035
a(I0
g17
tp1036
a(I4
g19
tp1037
a(I0
g27
tp1038
a(I0
g29
tp1039
a(I3
g31
tp1040
a(I0
g27
tp1041
a(I0
g29
tp1042
a(I0
g31
tp1043
a(I5
g27
tp1044
a(I0
g29
tp1045
a(I0
g31
tp1046
a(I5
g3
tp1047
a(I0
g5
tp1048
a(I0
g7
tp1049
a(I0
g3
tp1050
a(I0
g5
tp1051
a(I0
g7
tp1052
a(I0
g3
tp1053
a(I0
g5
tp1054
a(I0
g7
tp1055
a(I0
g15
tp1056
a(I9
g17
tp1057
a(I6
g19
tp1058
a(I5
g15
tp1059
a(I0
g17
tp1060
a(I7
g19
tp1061
a(I3
g15
tp1062
a(I4
g17
tp1063
a(I0
g19
tp1064
a(I0
g27
tp1065
a(I0
g29
tp1066
a(I0
g31
tp1067
a(I0
g27
tp1068
a(I0
g29
tp1069
a(I0
g31
tp1070
a(I0
g27
tp1071
a(I0
g29
tp1072
a(I8
g31
tp1073
a(I0
g3
tp1074
a(I0
g5
tp1075
a(I1
g7
tp1076
a(I0
g3
tp1077
a(I0
g5
tp1078
a(I0
g7
tp1079
a(I9
g3
tp1080
a(I0
g5
tp1081
a(I0
g7
tp1082
a(I6
g15
tp1083
a(I0
g17
tp1084
a(I0
g19
tp1085
a(I0
g15
tp1086
a(I8
g17
tp1087
a(I9
g19
tp1088
a(I0
g15
tp1089
a(I2
g17
tp1090
a(I0
g19
tp1091
a(I0
g27
tp1092
a(I0
g29
tp1093
a(I0
g31
tp1094
a(I1
g27
tp1095
a(I6
g29
tp1096
a(I0
g31
tp1097
a(I0
g27
tp1098
a(I0
g29
tp1099
a(I0
g31
tp1100
atp1101
a(S'Super easy (0)'
p1102
I13
(lp1103
(I0
g3
tp1104
a(I4
g5
tp1105
a(I0
g7
tp1106
a(I6
g3
tp1107
a(I0
g5
tp1108
a(I2
g7
tp1109
a(I0
g3
tp1110
a(I0
g5
tp1111
a(I0
g7
tp1112
a(I0
g15
tp1113
a(I3
g17
tp1114
a(I0
g19
tp1115
a(I0
g15
tp1116
a(I0
g17
tp1117
a(I0
g19
tp1118
a(I0
g15
tp1119
a(I0
g17
tp1120
a(I0
g19
tp1121
a(I0
g27
tp1122
a(I0
g29
tp1123
a(I0
g31
tp1124
a(I0
g27
tp1125
a(I0
g29
tp1126
a(I9
g31
tp1127
a(I4
g27
tp1128
a(I1
g29
tp1129
a(I0
g31
tp1130
a(I0
g3
tp1131
a(I0
g5
tp1132
a(I4
g7
tp1133
a(I0
g3
tp1134
a(I0
g5
tp1135
a(I0
g7
tp1136
a(I3
g3
tp1137
a(I8
g5
tp1138
a(I0
g7
tp1139
a(I0
g15
tp1140
a(I6
g17
tp1141
a(I0
g19
tp1142
a(I0
g15
tp1143
a(I8
g17
tp1144
a(I0
g19
tp1145
a(I0
g15
tp1146
a(I4
g17
tp1147
a(I0
g19
tp1148
a(I0
g27
tp1149
a(I8
g29
tp1150
a(I7
g31
tp1151
a(I0
g27
tp1152
a(I0
g29
tp1153
a(I0
g31
tp1154
a(I9
g27
tp1155
a(I0
g29
tp1156
a(I0
g31
tp1157
a(I0
g3
tp1158
a(I7
g5
tp1159
a(I5
g7
tp1160
a(I9
g3
tp1161
a(I0
g5
tp1162
a(I0
g7
tp1163
a(I0
g3
tp1164
a(I0
g5
tp1165
a(I0
g7
tp1166
a(I0
g15
tp1167
a(I0
g17
tp1168
a(I0
g19
tp1169
a(I0
g15
tp1170
a(I0
g17
tp1171
a(I0
g19
tp1172
a(I0
g15
tp1173
a(I7
g17
tp1174
a(I0
g19
tp1175
a(I0
g27
tp1176
a(I0
g29
tp1177
a(I0
g31
tp1178
a(I7
g27
tp1179
a(I0
g29
tp1180
a(I8
g31
tp1181
a(I0
g27
tp1182
a(I5
g29
tp1183
a(I0
g31
tp1184
atp1185
a(S'Super easy (0)'
p1186
I14
(lp1187
(I0
g3
tp1188
a(I0
g5
tp1189
a(I9
g7
tp1190
a(I0
g3
tp1191
a(I0
g5
tp1192
a(I4
g7
tp1193
a(I0
g3
tp1194
a(I0
g5
tp1195
a(I0
g7
tp1196
a(I4
g15
tp1197
a(I0
g17
tp1198
a(I0
g19
tp1199
a(I5
g15
tp1200
a(I0
g17
tp1201
a(I8
g19
tp1202
a(I7
g15
tp1203
a(I0
g17
tp1204
a(I0
g19
tp1205
a(I5
g27
tp1206
a(I8
g29
tp1207
a(I0
g31
tp1208
a(I9
g27
tp1209
a(I6
g29
tp1210
a(I0
g31
tp1211
a(I0
g27
tp1212
a(I0
g29
tp1213
a(I0
g31
tp1214
a(I0
g3
tp1215
a(I5
g5
tp1216
a(I0
g7
tp1217
a(I0
g3
tp1218
a(I1
g5
tp1219
a(I0
g7
tp1220
a(I0
g3
tp1221
a(I0
g5
tp1222
a(I0
g7
tp1223
a(I0
g15
tp1224
a(I0
g17
tp1225
a(I2
g19
tp1226
a(I0
g15
tp1227
a(I0
g17
tp1228
a(I0
g19
tp1229
a(I6
g15
tp1230
a(I0
g17
tp1231
a(I0
g19
tp1232
a(I0
g27
tp1233
a(I0
g29
tp1234
a(I0
g31
tp1235
a(I0
g27
tp1236
a(I7
g29
tp1237
a(I0
g31
tp1238
a(I0
g27
tp1239
a(I5
g29
tp1240
a(I0
g31
tp1241
a(I0
g3
tp1242
a(I0
g5
tp1243
a(I0
g7
tp1244
a(I0
g3
tp1245
a(I4
g5
tp1246
a(I1
g7
tp1247
a(I0
g3
tp1248
a(I3
g5
tp1249
a(I2
g7
tp1250
a(I0
g15
tp1251
a(I0
g17
tp1252
a(I4
g19
tp1253
a(I3
g15
tp1254
a(I0
g17
tp1255
a(I5
g19
tp1256
a(I0
g15
tp1257
a(I0
g17
tp1258
a(I6
g19
tp1259
a(I0
g27
tp1260
a(I0
g29
tp1261
a(I0
g31
tp1262
a(I6
g27
tp1263
a(I0
g29
tp1264
a(I0
g31
tp1265
a(I8
g27
tp1266
a(I0
g29
tp1267
a(I0
g31
tp1268
atp1269
a(S'Super easy (0)'
p1270
I15
(lp1271
(I0
g3
tp1272
a(I9
g5
tp1273
a(I0
g7
tp1274
a(I0
g3
tp1275
a(I0
g5
tp1276
a(I4
g7
tp1277
a(I6
g3
tp1278
a(I0
g5
tp1279
a(I3
g7
tp1280
a(I0
g15
tp1281
a(I0
g17
tp1282
a(I0
g19
tp1283
a(I7
g15
tp1284
a(I0
g17
tp1285
a(I0
g19
tp1286
a(I0
g15
tp1287
a(I0
g17
tp1288
a(I0
g19
tp1289
a(I0
g27
tp1290
a(I3
g29
tp1291
a(I0
g31
tp1292
a(I0
g27
tp1293
a(I1
g29
tp1294
a(I0
g31
tp1295
a(I0
g27
tp1296
a(I0
g29
tp1297
a(I0
g31
tp1298
a(I0
g3
tp1299
a(I0
g5
tp1300
a(I0
g7
tp1301
a(I3
g3
tp1302
a(I0
g5
tp1303
a(I0
g7
tp1304
a(I9
g3
tp1305
a(I4
g5
tp1306
a(I0
g7
tp1307
a(I0
g15
tp1308
a(I0
g17
tp1309
a(I0
g19
tp1310
a(I6
g15
tp1311
a(I0
g17
tp1312
a(I8
g19
tp1313
a(I0
g15
tp1314
a(I0
g17
tp1315
a(I0
g19
tp1316
a(I0
g27
tp1317
a(I4
g29
tp1318
a(I7
g31
tp1319
a(I0
g27
tp1320
a(I0
g29
tp1321
a(I5
g31
tp1322
a(I0
g27
tp1323
a(I0
g29
tp1324
a(I0
g31
tp1325
a(I0
g3
tp1326
a(I0
g5
tp1327
a(I0
g7
tp1328
a(I0
g3
tp1329
a(I6
g5
tp1330
a(I0
g7
tp1331
a(I0
g3
tp1332
a(I3
g5
tp1333
a(I0
g7
tp1334
a(I0
g15
tp1335
a(I0
g17
tp1336
a(I0
g19
tp1337
a(I0
g15
tp1338
a(I0
g17
tp1339
a(I9
g19
tp1340
a(I0
g15
tp1341
a(I0
g17
tp1342
a(I0
g19
tp1343
a(I5
g27
tp1344
a(I0
g29
tp1345
a(I4
g31
tp1346
a(I8
g27
tp1347
a(I0
g29
tp1348
a(I0
g31
tp1349
a(I0
g27
tp1350
a(I7
g29
tp1351
a(I0
g31
tp1352
atp1353
a(S'Very easy (0)'
p1354
I0
(lp1355
(I0
g3
tp1356
a(I0
g5
tp1357
a(I0
g7
tp1358
a(I6
g3
tp1359
a(I0
g5
tp1360
a(I0
g7
tp1361
a(I0
g3
tp1362
a(I0
g5
tp1363
a(I0
g7
tp1364
a(I0
g15
tp1365
a(I0
g17
tp1366
a(I0
g19
tp1367
a(I3
g15
tp1368
a(I0
g17
tp1369
a(I0
g19
tp1370
a(I0
g15
tp1371
a(I9
g17
tp1372
a(I0
g19
tp1373
a(I8
g27
tp1374
a(I0
g29
tp1375
a(I4
g31
tp1376
a(I1
g27
tp1377
a(I0
g29
tp1378
a(I0
g31
tp1379
a(I0
g27
tp1380
a(I6
g29
tp1381
a(I0
g31
tp1382
a(I0
g3
tp1383
a(I8
g5
tp1384
a(I0
g7
tp1385
a(I0
g3
tp1386
a(I0
g5
tp1387
a(I0
g7
tp1388
a(I0
g3
tp1389
a(I5
g5
tp1390
a(I0
g7
tp1391
a(I0
g15
tp1392
a(I0
g17
tp1393
a(I1
g19
tp1394
a(I0
g15
tp1395
a(I0
g17
tp1396
a(I0
g19
tp1397
a(I9
g15
tp1398
a(I0
g17
tp1399
a(I0
g19
tp1400
a(I0
g27
tp1401
a(I7
g29
tp1402
a(I0
g31
tp1403
a(I0
g27
tp1404
a(I0
g29
tp1405
a(I0
g31
tp1406
a(I0
g27
tp1407
a(I4
g29
tp1408
a(I0
g31
tp1409
a(I0
g3
tp1410
a(I6
g5
tp1411
a(I0
g7
tp1412
a(I0
g3
tp1413
a(I0
g5
tp1414
a(I4
g7
tp1415
a(I8
g3
tp1416
a(I0
g5
tp1417
a(I1
g7
tp1418
a(I0
g15
tp1419
a(I2
g17
tp1420
a(I0
g19
tp1421
a(I0
g15
tp1422
a(I0
g17
tp1423
a(I3
g19
tp1424
a(I0
g15
tp1425
a(I0
g17
tp1426
a(I0
g19
tp1427
a(I0
g27
tp1428
a(I0
g29
tp1429
a(I0
g31
tp1430
a(I0
g27
tp1431
a(I0
g29
tp1432
a(I2
g31
tp1433
a(I0
g27
tp1434
a(I0
g29
tp1435
a(I0
g31
tp1436
atp1437
a(S'Very easy (0)'
p1438
I1
(lp1439
(I0
g3
tp1440
a(I0
g5
tp1441
a(I0
g7
tp1442
a(I0
g3
tp1443
a(I0
g5
tp1444
a(I3
g7
tp1445
a(I0
g3
tp1446
a(I8
g5
tp1447
a(I0
g7
tp1448
a(I0
g15
tp1449
a(I0
g17
tp1450
a(I0
g19
tp1451
a(I0
g15
tp1452
a(I4
g17
tp1453
a(I6
g19
tp1454
a(I0
g15
tp1455
a(I5
g17
tp1456
a(I0
g19
tp1457
a(I0
g27
tp1458
a(I0
g29
tp1459
a(I0
g31
tp1460
a(I0
g27
tp1461
a(I0
g29
tp1462
a(I0
g31
tp1463
a(I0
g27
tp1464
a(I3
g29
tp1465
a(I6
g31
tp1466
a(I0
g3
tp1467
a(I9
g5
tp1468
a(I6
g7
tp1469
a(I0
g3
tp1470
a(I0
g5
tp1471
a(I0
g7
tp1472
a(I0
g3
tp1473
a(I0
g5
tp1474
a(I2
g7
tp1475
a(I1
g15
tp1476
a(I0
g17
tp1477
a(I0
g19
tp1478
a(I0
g15
tp1479
a(I0
g17
tp1480
a(I0
g19
tp1481
a(I0
g15
tp1482
a(I0
g17
tp1483
a(I5
g19
tp1484
a(I7
g27
tp1485
a(I0
g29
tp1486
a(I0
g31
tp1487
a(I0
g27
tp1488
a(I0
g29
tp1489
a(I0
g31
tp1490
a(I6
g27
tp1491
a(I9
g29
tp1492
a(I0
g31
tp1493
a(I5
g3
tp1494
a(I6
g5
tp1495
a(I0
g7
tp1496
a(I0
g3
tp1497
a(I0
g5
tp1498
a(I0
g7
tp1499
a(I0
g3
tp1500
a(I0
g5
tp1501
a(I0
g7
tp1502
a(I0
g15
tp1503
a(I1
g17
tp1504
a(I0
g19
tp1505
a(I7
g15
tp1506
a(I8
g17
tp1507
a(I0
g19
tp1508
a(I0
g15
tp1509
a(I0
g17
tp1510
a(I0
g19
tp1511
a(I0
g27
tp1512
a(I4
g29
tp1513
a(I0
g31
tp1514
a(I9
g27
tp1515
a(I0
g29
tp1516
a(I0
g31
tp1517
a(I0
g27
tp1518
a(I0
g29
tp1519
a(I0
g31
tp1520
atp1521
a(S'Very easy (0)'
p1522
I2
(lp1523
(I0
g3
tp1524
a(I0
g5
tp1525
a(I6
g7
tp1526
a(I0
g3
tp1527
a(I7
g5
tp1528
a(I2
g7
tp1529
a(I0
g3
tp1530
a(I0
g5
tp1531
a(I3
g7
tp1532
a(I0
g15
tp1533
a(I0
g17
tp1534
a(I0
g19
tp1535
a(I0
g15
tp1536
a(I5
g17
tp1537
a(I3
g19
tp1538
a(I0
g15
tp1539
a(I2
g17
tp1540
a(I0
g19
tp1541
a(I0
g27
tp1542
a(I0
g29
tp1543
a(I0
g31
tp1544
a(I0
g27
tp1545
a(I0
g29
tp1546
a(I0
g31
tp1547
a(I0
g27
tp1548
a(I0
g29
tp1549
a(I0
g31
tp1550
a(I2
g3
tp1551
a(I0
g5
tp1552
a(I0
g7
tp1553
a(I0
g3
tp1554
a(I0
g5
tp1555
a(I0
g7
tp1556
a(I0
g3
tp1557
a(I6
g5
tp1558
a(I4
g7
tp1559
a(I8
g15
tp1560
a(I0
g17
tp1561
a(I0
g19
tp1562
a(I0
g15
tp1563
a(I0
g17
tp1564
a(I0
g19
tp1565
a(I0
g15
tp1566
a(I0
g17
tp1567
a(I7
g19
tp1568
a(I3
g27
tp1569
a(I1
g29
tp1570
a(I0
g31
tp1571
a(I0
g27
tp1572
a(I0
g29
tp1573
a(I0
g31
tp1574
a(I0
g27
tp1575
a(I0
g29
tp1576
a(I8
g31
tp1577
a(I0
g3
tp1578
a(I0
g5
tp1579
a(I0
g7
tp1580
a(I0
g3
tp1581
a(I0
g5
tp1582
a(I0
g7
tp1583
a(I0
g3
tp1584
a(I0
g5
tp1585
a(I0
g7
tp1586
a(I0
g15
tp1587
a(I4
g17
tp1588
a(I0
g19
tp1589
a(I1
g15
tp1590
a(I3
g17
tp1591
a(I0
g19
tp1592
a(I0
g15
tp1593
a(I0
g17
tp1594
a(I0
g19
tp1595
a(I1
g27
tp1596
a(I0
g29
tp1597
a(I0
g31
tp1598
a(I6
g27
tp1599
a(I2
g29
tp1600
a(I0
g31
tp1601
a(I5
g27
tp1602
a(I0
g29
tp1603
a(I0
g31
tp1604
atp1605
a(S'Very easy (0)'
p1606
I3
(lp1607
(I0
g3
tp1608
a(I0
g5
tp1609
a(I5
g7
tp1610
a(I0
g3
tp1611
a(I0
g5
tp1612
a(I0
g7
tp1613
a(I0
g3
tp1614
a(I0
g5
tp1615
a(I0
g7
tp1616
a(I0
g15
tp1617
a(I0
g17
tp1618
a(I7
g19
tp1619
a(I1
g15
tp1620
a(I0
g17
tp1621
a(I0
g19
tp1622
a(I9
g15
tp1623
a(I0
g17
tp1624
a(I4
g19
tp1625
a(I1
g27
tp1626
a(I0
g29
tp1627
a(I0
g31
tp1628
a(I0
g27
tp1629
a(I0
g29
tp1630
a(I4
g31
tp1631
a(I0
g27
tp1632
a(I0
g29
tp1633
a(I0
g31
tp1634
a(I3
g3
tp1635
a(I0
g5
tp1636
a(I0
g7
tp1637
a(I9
g3
tp1638
a(I2
g5
tp1639
a(I0
g7
tp1640
a(I0
g3
tp1641
a(I5
g5
tp1642
a(I0
g7
tp1643
a(I0
g15
tp1644
a(I0
g17
tp1645
a(I0
g19
tp1646
a(I3
g15
tp1647
a(I0
g17
tp1648
a(I5
g19
tp1649
a(I0
g15
tp1650
a(I0
g17
tp1651
a(I0
g19
tp1652
a(I0
g27
tp1653
a(I5
g29
tp1654
a(I0
g31
tp1655
a(I0
g27
tp1656
a(I4
g29
tp1657
a(I1
g31
tp1658
a(I0
g27
tp1659
a(I0
g29
tp1660
a(I9
g31
tp1661
a(I0
g3
tp1662
a(I0
g5
tp1663
a(I0
g7
tp1664
a(I5
g3
tp1665
a(I0
g5
tp1666
a(I0
g7
tp1667
a(I0
g3
tp1668
a(I0
g5
tp1669
a(I6
g7
tp1670
a(I5
g15
tp1671
a(I0
g17
tp1672
a(I6
g19
tp1673
a(I0
g15
tp1674
a(I0
g17
tp1675
a(I2
g19
tp1676
a(I8
g15
tp1677
a(I0
g17
tp1678
a(I0
g19
tp1679
a(I0
g27
tp1680
a(I0
g29
tp1681
a(I0
g31
tp1682
a(I0
g27
tp1683
a(I0
g29
tp1684
a(I0
g31
tp1685
a(I5
g27
tp1686
a(I0
g29
tp1687
a(I0
g31
tp1688
atp1689
a(S'Very easy (0)'
p1690
I4
(lp1691
(I0
g3
tp1692
a(I3
g5
tp1693
a(I0
g7
tp1694
a(I6
g3
tp1695
a(I9
g5
tp1696
a(I0
g7
tp1697
a(I0
g3
tp1698
a(I0
g5
tp1699
a(I5
g7
tp1700
a(I0
g15
tp1701
a(I6
g17
tp1702
a(I0
g19
tp1703
a(I8
g15
tp1704
a(I0
g17
tp1705
a(I0
g19
tp1706
a(I0
g15
tp1707
a(I0
g17
tp1708
a(I0
g19
tp1709
a(I4
g27
tp1710
a(I0
g29
tp1711
a(I0
g31
tp1712
a(I0
g27
tp1713
a(I0
g29
tp1714
a(I0
g31
tp1715
a(I0
g27
tp1716
a(I0
g29
tp1717
a(I0
g31
tp1718
a(I0
g3
tp1719
a(I0
g5
tp1720
a(I0
g7
tp1721
a(I0
g3
tp1722
a(I0
g5
tp1723
a(I3
g7
tp1724
a(I0
g3
tp1725
a(I4
g5
tp1726
a(I0
g7
tp1727
a(I0
g15
tp1728
a(I0
g17
tp1729
a(I6
g19
tp1730
a(I0
g15
tp1731
a(I0
g17
tp1732
a(I0
g19
tp1733
a(I3
g15
tp1734
a(I0
g17
tp1735
a(I0
g19
tp1736
a(I0
g27
tp1737
a(I1
g29
tp1738
a(I0
g31
tp1739
a(I2
g27
tp1740
a(I0
g29
tp1741
a(I0
g31
tp1742
a(I0
g27
tp1743
a(I0
g29
tp1744
a(I0
g31
tp1745
a(I0
g3
tp1746
a(I0
g5
tp1747
a(I0
g7
tp1748
a(I0
g3
tp1749
a(I0
g5
tp1750
a(I0
g7
tp1751
a(I0
g3
tp1752
a(I0
g5
tp1753
a(I4
g7
tp1754
a(I0
g15
tp1755
a(I0
g17
tp1756
a(I0
g19
tp1757
a(I0
g15
tp1758
a(I0
g17
tp1759
a(I5
g19
tp1760
a(I0
g15
tp1761
a(I7
g17
tp1762
a(I0
g19
tp1763
a(I9
g27
tp1764
a(I0
g29
tp1765
a(I0
g31
tp1766
a(I0
g27
tp1767
a(I3
g29
tp1768
a(I7
g31
tp1769
a(I0
g27
tp1770
a(I6
g29
tp1771
a(I0
g31
tp1772
atp1773
a(S'Very easy (0)'
p1774
I5
(lp1775
(I1
g3
tp1776
a(I0
g5
tp1777
a(I0
g7
tp1778
a(I0
g3
tp1779
a(I0
g5
tp1780
a(I0
g7
tp1781
a(I0
g3
tp1782
a(I0
g5
tp1783
a(I0
g7
tp1784
a(I0
g15
tp1785
a(I0
g17
tp1786
a(I0
g19
tp1787
a(I0
g15
tp1788
a(I0
g17
tp1789
a(I3
g19
tp1790
a(I5
g15
tp1791
a(I0
g17
tp1792
a(I4
g19
tp1793
a(I0
g27
tp1794
a(I0
g29
tp1795
a(I0
g31
tp1796
a(I0
g27
tp1797
a(I0
g29
tp1798
a(I9
g31
tp1799
a(I0
g27
tp1800
a(I6
g29
tp1801
a(I7
g31
tp1802
a(I0
g3
tp1803
a(I0
g5
tp1804
a(I0
g7
tp1805
a(I0
g3
tp1806
a(I0
g5
tp1807
a(I4
g7
tp1808
a(I7
g3
tp1809
a(I9
g5
tp1810
a(I0
g7
tp1811
a(I0
g15
tp1812
a(I0
g17
tp1813
a(I0
g19
tp1814
a(I0
g15
tp1815
a(I0
g17
tp1816
a(I0
g19
tp1817
a(I0
g15
tp1818
a(I0
g17
tp1819
a(I0
g19
tp1820
a(I0
g27
tp1821
a(I5
g29
tp1822
a(I2
g31
tp1823
a(I6
g27
tp1824
a(I0
g29
tp1825
a(I0
g31
tp1826
a(I0
g27
tp1827
a(I0
g29
tp1828
a(I0
g31
tp1829
a(I2
g3
tp1830
a(I3
g5
tp1831
a(I0
g7
tp1832
a(I8
g3
tp1833
a(I0
g5
tp1834
a(I0
g7
tp1835
a(I0
g3
tp1836
a(I0
g5
tp1837
a(I0
g7
tp1838
a(I9
g15
tp1839
a(I0
g17
tp1840
a(I1
g19
tp1841
a(I2
g15
tp1842
a(I0
g17
tp1843
a(I0
g19
tp1844
a(I0
g15
tp1845
a(I0
g17
tp1846
a(I0
g19
tp1847
a(I0
g27
tp1848
a(I0
g29
tp1849
a(I0
g31
tp1850
a(I0
g27
tp1851
a(I0
g29
tp1852
a(I0
g31
tp1853
a(I0
g27
tp1854
a(I0
g29
tp1855
a(I3
g31
tp1856
atp1857
a(S'Very easy (0)'
p1858
I6
(lp1859
(I7
g3
tp1860
a(I3
g5
tp1861
a(I0
g7
tp1862
a(I0
g3
tp1863
a(I0
g5
tp1864
a(I0
g7
tp1865
a(I6
g3
tp1866
a(I8
g5
tp1867
a(I0
g7
tp1868
a(I0
g15
tp1869
a(I6
g17
tp1870
a(I0
g19
tp1871
a(I0
g15
tp1872
a(I0
g17
tp1873
a(I0
g19
tp1874
a(I0
g15
tp1875
a(I0
g17
tp1876
a(I0
g19
tp1877
a(I0
g27
tp1878
a(I0
g29
tp1879
a(I2
g31
tp1880
a(I0
g27
tp1881
a(I0
g29
tp1882
a(I7
g31
tp1883
a(I0
g27
tp1884
a(I0
g29
tp1885
a(I0
g31
tp1886
a(I0
g3
tp1887
a(I0
g5
tp1888
a(I3
g7
tp1889
a(I0
g3
tp1890
a(I0
g5
tp1891
a(I0
g7
tp1892
a(I0
g3
tp1893
a(I1
g5
tp1894
a(I0
g7
tp1895
a(I0
g15
tp1896
a(I0
g17
tp1897
a(I1
g19
tp1898
a(I0
g15
tp1899
a(I0
g17
tp1900
a(I0
g19
tp1901
a(I8
g15
tp1902
a(I0
g17
tp1903
a(I0
g19
tp1904
a(I0
g27
tp1905
a(I7
g29
tp1906
a(I0
g31
tp1907
a(I0
g27
tp1908
a(I0
g29
tp1909
a(I0
g31
tp1910
a(I5
g27
tp1911
a(I0
g29
tp1912
a(I0
g31
tp1913
a(I0
g3
tp1914
a(I0
g5
tp1915
a(I0
g7
tp1916
a(I1
g3
tp1917
a(I0
g5
tp1918
a(I0
g7
tp1919
a(I4
g3
tp1920
a(I0
g5
tp1921
a(I0
g7
tp1922
a(I0
g15
tp1923
a(I0
g17
tp1924
a(I0
g19
tp1925
a(I0
g15
tp1926
a(I0
g17
tp1927
a(I0
g19
tp1928
a(I0
g15
tp1929
a(I5
g17
tp1930
a(I0
g19
tp1931
a(I0
g27
tp1932
a(I4
g29
tp1933
a(I9
g31
tp1934
a(I0
g27
tp1935
a(I0
g29
tp1936
a(I0
g31
tp1937
a(I0
g27
tp1938
a(I3
g29
tp1939
a(I1
g31
tp1940
atp1941
a(S'Very easy (0)'
p1942
I7
(lp1943
(I0
g3
tp1944
a(I0
g5
tp1945
a(I0
g7
tp1946
a(I3
g3
tp1947
a(I0
g5
tp1948
a(I0
g7
tp1949
a(I0
g3
tp1950
a(I0
g5
tp1951
a(I2
g7
tp1952
a(I0
g15
tp1953
a(I0
g17
tp1954
a(I0
g19
tp1955
a(I4
g15
tp1956
a(I0
g17
tp1957
a(I9
g19
tp1958
a(I0
g15
tp1959
a(I8
g17
tp1960
a(I3
g19
tp1961
a(I0
g27
tp1962
a(I8
g29
tp1963
a(I0
g31
tp1964
a(I0
g27
tp1965
a(I0
g29
tp1966
a(I0
g31
tp1967
a(I0
g27
tp1968
a(I0
g29
tp1969
a(I0
g31
tp1970
a(I0
g3
tp1971
a(I0
g5
tp1972
a(I0
g7
tp1973
a(I9
g3
tp1974
a(I0
g5
tp1975
a(I0
g7
tp1976
a(I0
g3
tp1977
a(I0
g5
tp1978
a(I7
g7
tp1979
a(I0
g15
tp1980
a(I7
g17
tp1981
a(I0
g19
tp1982
a(I0
g15
tp1983
a(I0
g17
tp1984
a(I0
g19
tp1985
a(I0
g15
tp1986
a(I1
g17
tp1987
a(I0
g19
tp1988
a(I9
g27
tp1989
a(I0
g29
tp1990
a(I0
g31
tp1991
a(I0
g27
tp1992
a(I0
g29
tp1993
a(I8
g31
tp1994
a(I0
g27
tp1995
a(I0
g29
tp1996
a(I0
g31
tp1997
a(I0
g3
tp1998
a(I0
g5
tp1999
a(I0
g7
tp2000
a(I0
g3
tp2001
a(I0
g5
tp2002
a(I0
g7
tp2003
a(I0
g3
tp2004
a(I6
g5
tp2005
a(I0
g7
tp2006
a(I1
g15
tp2007
a(I2
g17
tp2008
a(I0
g19
tp2009
a(I6
g15
tp2010
a(I0
g17
tp2011
a(I5
g19
tp2012
a(I0
g15
tp2013
a(I0
g17
tp2014
a(I0
g19
tp2015
a(I6
g27
tp2016
a(I0
g29
tp2017
a(I0
g31
tp2018
a(I0
g27
tp2019
a(I0
g29
tp2020
a(I3
g31
tp2021
a(I0
g27
tp2022
a(I0
g29
tp2023
a(I0
g31
tp2024
atp2025
a(S'Very easy (0)'
p2026
I8
(lp2027
(I0
g3
tp2028
a(I0
g5
tp2029
a(I0
g7
tp2030
a(I5
g3
tp2031
a(I0
g5
tp2032
a(I0
g7
tp2033
a(I0
g3
tp2034
a(I0
g5
tp2035
a(I4
g7
tp2036
a(I0
g15
tp2037
a(I2
g17
tp2038
a(I0
g19
tp2039
a(I0
g15
tp2040
a(I0
g17
tp2041
a(I0
g19
tp2042
a(I8
g15
tp2043
a(I0
g17
tp2044
a(I0
g19
tp2045
a(I0
g27
tp2046
a(I3
g29
tp2047
a(I1
g31
tp2048
a(I0
g27
tp2049
a(I0
g29
tp2050
a(I0
g31
tp2051
a(I7
g27
tp2052
a(I0
g29
tp2053
a(I0
g31
tp2054
a(I0
g3
tp2055
a(I0
g5
tp2056
a(I5
g7
tp2057
a(I0
g3
tp2058
a(I9
g5
tp2059
a(I0
g7
tp2060
a(I4
g3
tp2061
a(I0
g5
tp2062
a(I0
g7
tp2063
a(I0
g15
tp2064
a(I0
g17
tp2065
a(I0
g19
tp2066
a(I0
g15
tp2067
a(I0
g17
tp2068
a(I0
g19
tp2069
a(I0
g15
tp2070
a(I0
g17
tp2071
a(I0
g19
tp2072
a(I0
g27
tp2073
a(I0
g29
tp2074
a(I7
g31
tp2075
a(I0
g27
tp2076
a(I6
g29
tp2077
a(I0
g31
tp2078
a(I5
g27
tp2079
a(I0
g29
tp2080
a(I0
g31
tp2081
a(I0
g3
tp2082
a(I0
g5
tp2083
a(I2
g7
tp2084
a(I0
g3
tp2085
a(I0
g5
tp2086
a(I0
g7
tp2087
a(I9
g3
tp2088
a(I3
g5
tp2089
a(I0
g7
tp2090
a(I0
g15
tp2091
a(I0
g17
tp2092
a(I4
g19
tp2093
a(I0
g15
tp2094
a(I0
g17
tp2095
a(I0
g19
tp2096
a(I0
g15
tp2097
a(I7
g17
tp2098
a(I0
g19
tp2099
a(I3
g27
tp2100
a(I0
g29
tp2101
a(I0
g31
tp2102
a(I0
g27
tp2103
a(I0
g29
tp2104
a(I6
g31
tp2105
a(I0
g27
tp2106
a(I0
g29
tp2107
a(I0
g31
tp2108
atp2109
a(S'Very easy (0)'
p2110
I9
(lp2111
(I0
g3
tp2112
a(I0
g5
tp2113
a(I0
g7
tp2114
a(I7
g3
tp2115
a(I0
g5
tp2116
a(I0
g7
tp2117
a(I2
g3
tp2118
a(I0
g5
tp2119
a(I0
g7
tp2120
a(I0
g15
tp2121
a(I8
g17
tp2122
a(I0
g19
tp2123
a(I0
g15
tp2124
a(I9
g17
tp2125
a(I1
g19
tp2126
a(I0
g15
tp2127
a(I0
g17
tp2128
a(I0
g19
tp2129
a(I0
g27
tp2130
a(I0
g29
tp2131
a(I0
g31
tp2132
a(I0
g27
tp2133
a(I2
g29
tp2134
a(I0
g31
tp2135
a(I0
g27
tp2136
a(I0
g29
tp2137
a(I7
g31
tp2138
a(I0
g3
tp2139
a(I0
g5
tp2140
a(I9
g7
tp2141
a(I0
g3
tp2142
a(I0
g5
tp2143
a(I6
g7
tp2144
a(I0
g3
tp2145
a(I7
g5
tp2146
a(I0
g7
tp2147
a(I0
g15
tp2148
a(I0
g17
tp2149
a(I0
g19
tp2150
a(I0
g15
tp2151
a(I4
g17
tp2152
a(I0
g19
tp2153
a(I0
g15
tp2154
a(I0
g17
tp2155
a(I0
g19
tp2156
a(I0
g27
tp2157
a(I4
g29
tp2158
a(I0
g31
tp2159
a(I9
g27
tp2160
a(I0
g29
tp2161
a(I0
g31
tp2162
a(I1
g27
tp2163
a(I0
g29
tp2164
a(I0
g31
tp2165
a(I6
g3
tp2166
a(I0
g5
tp2167
a(I0
g7
tp2168
a(I0
g3
tp2169
a(I8
g5
tp2170
a(I0
g7
tp2171
a(I0
g3
tp2172
a(I0
g5
tp2173
a(I0
g7
tp2174
a(I0
g15
tp2175
a(I0
g17
tp2176
a(I0
g19
tp2177
a(I1
g15
tp2178
a(I3
g17
tp2179
a(I0
g19
tp2180
a(I0
g15
tp2181
a(I6
g17
tp2182
a(I0
g19
tp2183
a(I0
g27
tp2184
a(I0
g29
tp2185
a(I8
g31
tp2186
a(I0
g27
tp2187
a(I0
g29
tp2188
a(I9
g31
tp2189
a(I0
g27
tp2190
a(I0
g29
tp2191
a(I0
g31
tp2192
atp2193
a(S'Very easy (0)'
p2194
I10
(lp2195
(I0
g3
tp2196
a(I9
g5
tp2197
a(I0
g7
tp2198
a(I0
g3
tp2199
a(I0
g5
tp2200
a(I0
g7
tp2201
a(I0
g3
tp2202
a(I0
g5
tp2203
a(I2
g7
tp2204
a(I0
g15
tp2205
a(I0
g17
tp2206
a(I4
g19
tp2207
a(I6
g15
tp2208
a(I2
g17
tp2209
a(I0
g19
tp2210
a(I0
g15
tp2211
a(I3
g17
tp2212
a(I0
g19
tp2213
a(I0
g27
tp2214
a(I0
g29
tp2215
a(I0
g31
tp2216
a(I0
g27
tp2217
a(I7
g29
tp2218
a(I4
g31
tp2219
a(I0
g27
tp2220
a(I0
g29
tp2221
a(I0
g31
tp2222
a(I0
g3
tp2223
a(I0
g5
tp2224
a(I7
g7
tp2225
a(I0
g3
tp2226
a(I4
g5
tp2227
a(I0
g7
tp2228
a(I2
g3
tp2229
a(I0
g5
tp2230
a(I0
g7
tp2231
a(I0
g15
tp2232
a(I0
g17
tp2233
a(I0
g19
tp2234
a(I0
g15
tp2235
a(I0
g17
tp2236
a(I0
g19
tp2237
a(I0
g15
tp2238
a(I0
g17
tp2239
a(I0
g19
tp2240
a(I0
g27
tp2241
a(I0
g29
tp2242
a(I2
g31
tp2243
a(I0
g27
tp2244
a(I5
g29
tp2245
a(I0
g31
tp2246
a(I7
g27
tp2247
a(I0
g29
tp2248
a(I0
g31
tp2249
a(I0
g3
tp2250
a(I0
g5
tp2251
a(I0
g7
tp2252
a(I5
g3
tp2253
a(I3
g5
tp2254
a(I0
g7
tp2255
a(I0
g3
tp2256
a(I0
g5
tp2257
a(I0
g7
tp2258
a(I0
g15
tp2259
a(I8
g17
tp2260
a(I0
g19
tp2261
a(I0
g15
tp2262
a(I1
g17
tp2263
a(I9
g19
tp2264
a(I3
g15
tp2265
a(I0
g17
tp2266
a(I0
g19
tp2267
a(I4
g27
tp2268
a(I0
g29
tp2269
a(I0
g31
tp2270
a(I0
g27
tp2271
a(I0
g29
tp2272
a(I0
g31
tp2273
a(I0
g27
tp2274
a(I1
g29
tp2275
a(I0
g31
tp2276
atp2277
a(S'Very easy (0)'
p2278
I11
(lp2279
(I2
g3
tp2280
a(I0
g5
tp2281
a(I0
g7
tp2282
a(I0
g3
tp2283
a(I0
g5
tp2284
a(I0
g7
tp2285
a(I0
g3
tp2286
a(I9
g5
tp2287
a(I4
g7
tp2288
a(I0
g15
tp2289
a(I3
g17
tp2290
a(I0
g19
tp2291
a(I0
g15
tp2292
a(I0
g17
tp2293
a(I9
g19
tp2294
a(I1
g15
tp2295
a(I0
g17
tp2296
a(I0
g19
tp2297
a(I0
g27
tp2298
a(I0
g29
tp2299
a(I0
g31
tp2300
a(I0
g27
tp2301
a(I0
g29
tp2302
a(I3
g31
tp2303
a(I0
g27
tp2304
a(I0
g29
tp2305
a(I2
g31
tp2306
a(I0
g3
tp2307
a(I0
g5
tp2308
a(I7
g7
tp2309
a(I4
g3
tp2310
a(I3
g5
tp2311
a(I0
g7
tp2312
a(I0
g3
tp2313
a(I0
g5
tp2314
a(I0
g7
tp2315
a(I0
g15
tp2316
a(I0
g17
tp2317
a(I0
g19
tp2318
a(I0
g15
tp2319
a(I0
g17
tp2320
a(I0
g19
tp2321
a(I0
g15
tp2322
a(I0
g17
tp2323
a(I0
g19
tp2324
a(I0
g27
tp2325
a(I0
g29
tp2326
a(I0
g31
tp2327
a(I0
g27
tp2328
a(I9
g29
tp2329
a(I5
g31
tp2330
a(I4
g27
tp2331
a(I0
g29
tp2332
a(I0
g31
tp2333
a(I1
g3
tp2334
a(I0
g5
tp2335
a(I0
g7
tp2336
a(I9
g3
tp2337
a(I0
g5
tp2338
a(I0
g7
tp2339
a(I0
g3
tp2340
a(I0
g5
tp2341
a(I0
g7
tp2342
a(I0
g15
tp2343
a(I0
g17
tp2344
a(I3
g19
tp2345
a(I7
g15
tp2346
a(I0
g17
tp2347
a(I0
g19
tp2348
a(I0
g15
tp2349
a(I1
g17
tp2350
a(I0
g19
tp2351
a(I7
g27
tp2352
a(I6
g29
tp2353
a(I0
g31
tp2354
a(I0
g27
tp2355
a(I0
g29
tp2356
a(I0
g31
tp2357
a(I0
g27
tp2358
a(I0
g29
tp2359
a(I8
g31
tp2360
atp2361
a(S'Very easy (0)'
p2362
I12
(lp2363
(I5
g3
tp2364
a(I0
g5
tp2365
a(I8
g7
tp2366
a(I0
g3
tp2367
a(I0
g5
tp2368
a(I0
g7
tp2369
a(I9
g3
tp2370
a(I0
g5
tp2371
a(I0
g7
tp2372
a(I0
g15
tp2373
a(I0
g17
tp2374
a(I9
g19
tp2375
a(I0
g15
tp2376
a(I0
g17
tp2377
a(I0
g19
tp2378
a(I5
g15
tp2379
a(I3
g17
tp2380
a(I8
g19
tp2381
a(I0
g27
tp2382
a(I0
g29
tp2383
a(I0
g31
tp2384
a(I0
g27
tp2385
a(I0
g29
tp2386
a(I0
g31
tp2387
a(I0
g27
tp2388
a(I0
g29
tp2389
a(I1
g31
tp2390
a(I0
g3
tp2391
a(I0
g5
tp2392
a(I0
g7
tp2393
a(I0
g3
tp2394
a(I0
g5
tp2395
a(I2
g7
tp2396
a(I0
g3
tp2397
a(I0
g5
tp2398
a(I0
g7
tp2399
a(I0
g15
tp2400
a(I0
g17
tp2401
a(I6
g19
tp2402
a(I0
g15
tp2403
a(I5
g17
tp2404
a(I0
g19
tp2405
a(I8
g15
tp2406
a(I0
g17
tp2407
a(I0
g19
tp2408
a(I0
g27
tp2409
a(I0
g29
tp2410
a(I0
g31
tp2411
a(I8
g27
tp2412
a(I0
g29
tp2413
a(I0
g31
tp2414
a(I0
g27
tp2415
a(I0
g29
tp2416
a(I0
g31
tp2417
a(I4
g3
tp2418
a(I0
g5
tp2419
a(I0
g7
tp2420
a(I0
g3
tp2421
a(I0
g5
tp2422
a(I0
g7
tp2423
a(I0
g3
tp2424
a(I0
g5
tp2425
a(I0
g7
tp2426
a(I9
g15
tp2427
a(I2
g17
tp2428
a(I1
g19
tp2429
a(I0
g15
tp2430
a(I0
g17
tp2431
a(I0
g19
tp2432
a(I7
g15
tp2433
a(I0
g17
tp2434
a(I0
g19
tp2435
a(I0
g27
tp2436
a(I0
g29
tp2437
a(I3
g31
tp2438
a(I0
g27
tp2439
a(I0
g29
tp2440
a(I0
g31
tp2441
a(I6
g27
tp2442
a(I0
g29
tp2443
a(I5
g31
tp2444
atp2445
a(S'Very easy (0)'
p2446
I13
(lp2447
(I0
g3
tp2448
a(I0
g5
tp2449
a(I9
g7
tp2450
a(I0
g3
tp2451
a(I0
g5
tp2452
a(I0
g7
tp2453
a(I5
g3
tp2454
a(I2
g5
tp2455
a(I0
g7
tp2456
a(I0
g15
tp2457
a(I0
g17
tp2458
a(I8
g19
tp2459
a(I0
g15
tp2460
a(I0
g17
tp2461
a(I0
g19
tp2462
a(I3
g15
tp2463
a(I0
g17
tp2464
a(I0
g19
tp2465
a(I0
g27
tp2466
a(I0
g29
tp2467
a(I0
g31
tp2468
a(I0
g27
tp2469
a(I0
g29
tp2470
a(I5
g31
tp2471
a(I1
g27
tp2472
a(I0
g29
tp2473
a(I9
g31
tp2474
a(I0
g3
tp2475
a(I0
g5
tp2476
a(I0
g7
tp2477
a(I8
g3
tp2478
a(I0
g5
tp2479
a(I0
g7
tp2480
a(I0
g3
tp2481
a(I0
g5
tp2482
a(I0
g7
tp2483
a(I7
g15
tp2484
a(I0
g17
tp2485
a(I0
g19
tp2486
a(I2
g15
tp2487
a(I0
g17
tp2488
a(I9
g19
tp2489
a(I0
g15
tp2490
a(I0
g17
tp2491
a(I3
g19
tp2492
a(I0
g27
tp2493
a(I0
g29
tp2494
a(I0
g31
tp2495
a(I0
g27
tp2496
a(I0
g29
tp2497
a(I6
g31
tp2498
a(I0
g27
tp2499
a(I0
g29
tp2500
a(I0
g31
tp2501
a(I3
g3
tp2502
a(I0
g5
tp2503
a(I1
g7
tp2504
a(I6
g3
tp2505
a(I0
g5
tp2506
a(I0
g7
tp2507
a(I0
g3
tp2508
a(I0
g5
tp2509
a(I0
g7
tp2510
a(I0
g15
tp2511
a(I0
g17
tp2512
a(I6
g19
tp2513
a(I0
g15
tp2514
a(I0
g17
tp2515
a(I0
g19
tp2516
a(I4
g15
tp2517
a(I0
g17
tp2518
a(I0
g19
tp2519
a(I0
g27
tp2520
a(I9
g29
tp2521
a(I2
g31
tp2522
a(I0
g27
tp2523
a(I0
g29
tp2524
a(I0
g31
tp2525
a(I8
g27
tp2526
a(I0
g29
tp2527
a(I0
g31
tp2528
atp2529
a(S'Very easy (0)'
p2530
I14
(lp2531
(I0
g3
tp2532
a(I9
g5
tp2533
a(I0
g7
tp2534
a(I0
g3
tp2535
a(I0
g5
tp2536
a(I0
g7
tp2537
a(I0
g3
tp2538
a(I0
g5
tp2539
a(I0
g7
tp2540
a(I0
g15
tp2541
a(I0
g17
tp2542
a(I8
g19
tp2543
a(I2
g15
tp2544
a(I0
g17
tp2545
a(I0
g19
tp2546
a(I0
g15
tp2547
a(I9
g17
tp2548
a(I3
g19
tp2549
a(I0
g27
tp2550
a(I0
g29
tp2551
a(I0
g31
tp2552
a(I0
g27
tp2553
a(I0
g29
tp2554
a(I1
g31
tp2555
a(I7
g27
tp2556
a(I0
g29
tp2557
a(I0
g31
tp2558
a(I0
g3
tp2559
a(I0
g5
tp2560
a(I0
g7
tp2561
a(I0
g3
tp2562
a(I1
g5
tp2563
a(I0
g7
tp2564
a(I0
g3
tp2565
a(I3
g5
tp2566
a(I7
g7
tp2567
a(I3
g15
tp2568
a(I0
g17
tp2569
a(I7
g19
tp2570
a(I0
g15
tp2571
a(I0
g17
tp2572
a(I0
g19
tp2573
a(I8
g15
tp2574
a(I0
g17
tp2575
a(I6
g19
tp2576
a(I5
g27
tp2577
a(I1
g29
tp2578
a(I0
g31
tp2579
a(I0
g27
tp2580
a(I3
g29
tp2581
a(I0
g31
tp2582
a(I0
g27
tp2583
a(I0
g29
tp2584
a(I0
g31
tp2585
a(I0
g3
tp2586
a(I0
g5
tp2587
a(I1
g7
tp2588
a(I9
g3
tp2589
a(I0
g5
tp2590
a(I0
g7
tp2591
a(I0
g3
tp2592
a(I0
g5
tp2593
a(I0
g7
tp2594
a(I7
g15
tp2595
a(I3
g17
tp2596
a(I0
g19
tp2597
a(I0
g15
tp2598
a(I0
g17
tp2599
a(I5
g19
tp2600
a(I9
g15
tp2601
a(I0
g17
tp2602
a(I0
g19
tp2603
a(I0
g27
tp2604
a(I0
g29
tp2605
a(I0
g31
tp2606
a(I0
g27
tp2607
a(I0
g29
tp2608
a(I0
g31
tp2609
a(I0
g27
tp2610
a(I5
g29
tp2611
a(I0
g31
tp2612
atp2613
a(S'Very easy (0)'
p2614
I15
(lp2615
(I3
g3
tp2616
a(I0
g5
tp2617
a(I0
g7
tp2618
a(I0
g3
tp2619
a(I2
g5
tp2620
a(I8
g7
tp2621
a(I0
g3
tp2622
a(I0
g5
tp2623
a(I0
g7
tp2624
a(I0
g15
tp2625
a(I8
g17
tp2626
a(I0
g19
tp2627
a(I0
g15
tp2628
a(I0
g17
tp2629
a(I0
g19
tp2630
a(I0
g15
tp2631
a(I0
g17
tp2632
a(I7
g19
tp2633
a(I0
g27
tp2634
a(I0
g29
tp2635
a(I5
g31
tp2636
a(I0
g27
tp2637
a(I0
g29
tp2638
a(I0
g31
tp2639
a(I0
g27
tp2640
a(I4
g29
tp2641
a(I0
g31
tp2642
a(I0
g3
tp2643
a(I0
g5
tp2644
a(I7
g7
tp2645
a(I0
g3
tp2646
a(I0
g5
tp2647
a(I3
g7
tp2648
a(I2
g3
tp2649
a(I0
g5
tp2650
a(I1
g7
tp2651
a(I0
g15
tp2652
a(I0
g17
tp2653
a(I0
g19
tp2654
a(I0
g15
tp2655
a(I4
g17
tp2656
a(I0
g19
tp2657
a(I0
g15
tp2658
a(I0
g17
tp2659
a(I0
g19
tp2660
a(I2
g27
tp2661
a(I0
g29
tp2662
a(I1
g31
tp2663
a(I7
g27
tp2664
a(I0
g29
tp2665
a(I0
g31
tp2666
a(I5
g27
tp2667
a(I0
g29
tp2668
a(I0
g31
tp2669
a(I0
g3
tp2670
a(I4
g5
tp2671
a(I0
g7
tp2672
a(I0
g3
tp2673
a(I0
g5
tp2674
a(I0
g7
tp2675
a(I1
g3
tp2676
a(I0
g5
tp2677
a(I0
g7
tp2678
a(I5
g15
tp2679
a(I0
g17
tp2680
a(I0
g19
tp2681
a(I0
g15
tp2682
a(I0
g17
tp2683
a(I0
g19
tp2684
a(I0
g15
tp2685
a(I9
g17
tp2686
a(I0
g19
tp2687
a(I0
g27
tp2688
a(I0
g29
tp2689
a(I0
g31
tp2690
a(I6
g27
tp2691
a(I5
g29
tp2692
a(I0
g31
tp2693
a(I0
g27
tp2694
a(I0
g29
tp2695
a(I2
g31
tp2696
atp2697
a(S'Easy (0)'
p2698
I0
(lp2699
(I5
g3
tp2700
a(I0
g5
tp2701
a(I0
g7
tp2702
a(I0
g3
tp2703
a(I0
g5
tp2704
a(I0
g7
tp2705
a(I0
g3
tp2706
a(I0
g5
tp2707
a(I2
g7
tp2708
a(I2
g15
tp2709
a(I0
g17
tp2710
a(I0
g19
tp2711
a(I0
g15
tp2712
a(I1
g17
tp2713
a(I0
g19
tp2714
a(I0
g15
tp2715
a(I7
g17
tp2716
a(I0
g19
tp2717
a(I0
g27
tp2718
a(I0
g29
tp2719
a(I0
g31
tp2720
a(I3
g27
tp2721
a(I0
g29
tp2722
a(I0
g31
tp2723
a(I0
g27
tp2724
a(I0
g29
tp2725
a(I0
g31
tp2726
a(I4
g3
tp2727
a(I0
g5
tp2728
a(I0
g7
tp2729
a(I0
g3
tp2730
a(I7
g5
tp2731
a(I0
g7
tp2732
a(I0
g3
tp2733
a(I0
g5
tp2734
a(I5
g7
tp2735
a(I0
g15
tp2736
a(I0
g17
tp2737
a(I0
g19
tp2738
a(I6
g15
tp2739
a(I0
g17
tp2740
a(I4
g19
tp2741
a(I0
g15
tp2742
a(I0
g17
tp2743
a(I0
g19
tp2744
a(I1
g27
tp2745
a(I0
g29
tp2746
a(I0
g31
tp2747
a(I0
g27
tp2748
a(I3
g29
tp2749
a(I0
g31
tp2750
a(I0
g27
tp2751
a(I0
g29
tp2752
a(I4
g31
tp2753
a(I0
g3
tp2754
a(I0
g5
tp2755
a(I0
g7
tp2756
a(I0
g3
tp2757
a(I0
g5
tp2758
a(I6
g7
tp2759
a(I0
g3
tp2760
a(I0
g5
tp2761
a(I0
g7
tp2762
a(I0
g15
tp2763
a(I4
g17
tp2764
a(I0
g19
tp2765
a(I0
g15
tp2766
a(I9
g17
tp2767
a(I0
g19
tp2768
a(I0
g15
tp2769
a(I0
g17
tp2770
a(I7
g19
tp2771
a(I9
g27
tp2772
a(I0
g29
tp2773
a(I0
g31
tp2774
a(I0
g27
tp2775
a(I0
g29
tp2776
a(I0
g31
tp2777
a(I0
g27
tp2778
a(I0
g29
tp2779
a(I1
g31
tp2780
atp2781
a(S'Easy (0)'
p2782
I1
(lp2783
(I6
g3
tp2784
a(I0
g5
tp2785
a(I0
g7
tp2786
a(I0
g3
tp2787
a(I0
g5
tp2788
a(I0
g7
tp2789
a(I0
g3
tp2790
a(I0
g5
tp2791
a(I0
g7
tp2792
a(I0
g15
tp2793
a(I0
g17
tp2794
a(I0
g19
tp2795
a(I9
g15
tp2796
a(I0
g17
tp2797
a(I0
g19
tp2798
a(I1
g15
tp2799
a(I2
g17
tp2800
a(I0
g19
tp2801
a(I0
g27
tp2802
a(I0
g29
tp2803
a(I0
g31
tp2804
a(I0
g27
tp2805
a(I3
g29
tp2806
a(I2
g31
tp2807
a(I0
g27
tp2808
a(I6
g29
tp2809
a(I0
g31
tp2810
a(I0
g3
tp2811
a(I0
g5
tp2812
a(I0
g7
tp2813
a(I0
g3
tp2814
a(I0
g5
tp2815
a(I0
g7
tp2816
a(I9
g3
tp2817
a(I0
g5
tp2818
a(I4
g7
tp2819
a(I0
g15
tp2820
a(I0
g17
tp2821
a(I0
g19
tp2822
a(I2
g15
tp2823
a(I0
g17
tp2824
a(I4
g19
tp2825
a(I0
g15
tp2826
a(I0
g17
tp2827
a(I0
g19
tp2828
a(I5
g27
tp2829
a(I0
g29
tp2830
a(I9
g31
tp2831
a(I0
g27
tp2832
a(I0
g29
tp2833
a(I0
g31
tp2834
a(I0
g27
tp2835
a(I0
g29
tp2836
a(I0
g31
tp2837
a(I0
g3
tp2838
a(I5
g5
tp2839
a(I0
g7
tp2840
a(I3
g3
tp2841
a(I8
g5
tp2842
a(I0
g7
tp2843
a(I0
g3
tp2844
a(I0
g5
tp2845
a(I0
g7
tp2846
a(I0
g15
tp2847
a(I7
g17
tp2848
a(I2
g19
tp2849
a(I0
g15
tp2850
a(I0
g17
tp2851
a(I9
g19
tp2852
a(I0
g15
tp2853
a(I0
g17
tp2854
a(I0
g19
tp2855
a(I0
g27
tp2856
a(I0
g29
tp2857
a(I0
g31
tp2858
a(I0
g27
tp2859
a(I0
g29
tp2860
a(I0
g31
tp2861
a(I0
g27
tp2862
a(I0
g29
tp2863
a(I8
g31
tp2864
atp2865
a(S'Easy (0)'
p2866
I2
(lp2867
(I2
g3
tp2868
a(I0
g5
tp2869
a(I0
g7
tp2870
a(I0
g3
tp2871
a(I0
g5
tp2872
a(I0
g7
tp2873
a(I0
g3
tp2874
a(I0
g5
tp2875
a(I0
g7
tp2876
a(I0
g15
tp2877
a(I0
g17
tp2878
a(I0
g19
tp2879
a(I0
g15
tp2880
a(I8
g17
tp2881
a(I7
g19
tp2882
a(I2
g15
tp2883
a(I3
g17
tp2884
a(I0
g19
tp2885
a(I0
g27
tp2886
a(I3
g29
tp2887
a(I0
g31
tp2888
a(I0
g27
tp2889
a(I0
g29
tp2890
a(I0
g31
tp2891
a(I6
g27
tp2892
a(I0
g29
tp2893
a(I0
g31
tp2894
a(I8
g3
tp2895
a(I0
g5
tp2896
a(I0
g7
tp2897
a(I3
g3
tp2898
a(I5
g5
tp2899
a(I0
g7
tp2900
a(I0
g3
tp2901
a(I0
g5
tp2902
a(I1
g7
tp2903
a(I0
g15
tp2904
a(I0
g17
tp2905
a(I0
g19
tp2906
a(I0
g15
tp2907
a(I0
g17
tp2908
a(I0
g19
tp2909
a(I0
g15
tp2910
a(I0
g17
tp2911
a(I0
g19
tp2912
a(I5
g27
tp2913
a(I0
g29
tp2914
a(I0
g31
tp2915
a(I0
g27
tp2916
a(I4
g29
tp2917
a(I9
g31
tp2918
a(I0
g27
tp2919
a(I0
g29
tp2920
a(I3
g31
tp2921
a(I0
g3
tp2922
a(I0
g5
tp2923
a(I9
g7
tp2924
a(I0
g3
tp2925
a(I0
g5
tp2926
a(I0
g7
tp2927
a(I0
g3
tp2928
a(I4
g5
tp2929
a(I0
g7
tp2930
a(I0
g15
tp2931
a(I7
g17
tp2932
a(I1
g19
tp2933
a(I4
g15
tp2934
a(I6
g17
tp2935
a(I0
g19
tp2936
a(I0
g15
tp2937
a(I0
g17
tp2938
a(I0
g19
tp2939
a(I0
g27
tp2940
a(I0
g29
tp2941
a(I0
g31
tp2942
a(I0
g27
tp2943
a(I0
g29
tp2944
a(I0
g31
tp2945
a(I0
g27
tp2946
a(I0
g29
tp2947
a(I6
g31
tp2948
atp2949
a(S'Easy (0)'
p2950
I3
(lp2951
(I3
g3
tp2952
a(I0
g5
tp2953
a(I7
g7
tp2954
a(I0
g3
tp2955
a(I0
g5
tp2956
a(I0
g7
tp2957
a(I0
g3
tp2958
a(I0
g5
tp2959
a(I0
g7
tp2960
a(I0
g15
tp2961
a(I0
g17
tp2962
a(I4
g19
tp2963
a(I0
g15
tp2964
a(I3
g17
tp2965
a(I0
g19
tp2966
a(I0
g15
tp2967
a(I2
g17
tp2968
a(I0
g19
tp2969
a(I1
g27
tp2970
a(I0
g29
tp2971
a(I0
g31
tp2972
a(I8
g27
tp2973
a(I0
g29
tp2974
a(I7
g31
tp2975
a(I0
g27
tp2976
a(I0
g29
tp2977
a(I0
g31
tp2978
a(I0
g3
tp2979
a(I7
g5
tp2980
a(I0
g7
tp2981
a(I0
g3
tp2982
a(I0
g5
tp2983
a(I0
g7
tp2984
a(I4
g3
tp2985
a(I9
g5
tp2986
a(I2
g7
tp2987
a(I0
g15
tp2988
a(I0
g17
tp2989
a(I0
g19
tp2990
a(I0
g15
tp2991
a(I0
g17
tp2992
a(I0
g19
tp2993
a(I0
g15
tp2994
a(I0
g17
tp2995
a(I0
g19
tp2996
a(I2
g27
tp2997
a(I1
g29
tp2998
a(I9
g31
tp2999
a(I0
g27
tp3000
a(I0
g29
tp3001
a(I0
g31
tp3002
a(I0
g27
tp3003
a(I3
g29
tp3004
a(I0
g31
tp3005
a(I0
g3
tp3006
a(I0
g5
tp3007
a(I0
g7
tp3008
a(I7
g3
tp3009
a(I0
g5
tp3010
a(I8
g7
tp3011
a(I0
g3
tp3012
a(I0
g5
tp3013
a(I6
g7
tp3014
a(I0
g15
tp3015
a(I4
g17
tp3016
a(I0
g19
tp3017
a(I0
g15
tp3018
a(I6
g17
tp3019
a(I0
g19
tp3020
a(I2
g15
tp3021
a(I0
g17
tp3022
a(I0
g19
tp3023
a(I0
g27
tp3024
a(I0
g29
tp3025
a(I0
g31
tp3026
a(I0
g27
tp3027
a(I0
g29
tp3028
a(I0
g31
tp3029
a(I7
g27
tp3030
a(I0
g29
tp3031
a(I3
g31
tp3032
atp3033
a(S'Easy (0)'
p3034
I4
(lp3035
(I0
g3
tp3036
a(I5
g5
tp3037
a(I0
g7
tp3038
a(I0
g3
tp3039
a(I0
g5
tp3040
a(I1
g7
tp3041
a(I0
g3
tp3042
a(I0
g5
tp3043
a(I0
g7
tp3044
a(I0
g15
tp3045
a(I0
g17
tp3046
a(I4
g19
tp3047
a(I0
g15
tp3048
a(I5
g17
tp3049
a(I0
g19
tp3050
a(I0
g15
tp3051
a(I0
g17
tp3052
a(I0
g19
tp3053
a(I0
g27
tp3054
a(I0
g29
tp3055
a(I1
g31
tp3056
a(I3
g27
tp3057
a(I0
g29
tp3058
a(I0
g31
tp3059
a(I0
g27
tp3060
a(I0
g29
tp3061
a(I6
g31
tp3062
a(I0
g3
tp3063
a(I0
g5
tp3064
a(I5
g7
tp3065
a(I0
g3
tp3066
a(I0
g5
tp3067
a(I0
g7
tp3068
a(I0
g3
tp3069
a(I0
g5
tp3070
a(I0
g7
tp3071
a(I6
g15
tp3072
a(I8
g17
tp3073
a(I0
g19
tp3074
a(I7
g15
tp3075
a(I0
g17
tp3076
a(I5
g19
tp3077
a(I0
g15
tp3078
a(I1
g17
tp3079
a(I9
g19
tp3080
a(I0
g27
tp3081
a(I0
g29
tp3082
a(I0
g31
tp3083
a(I0
g27
tp3084
a(I0
g29
tp3085
a(I0
g31
tp3086
a(I4
g27
tp3087
a(I0
g29
tp3088
a(I0
g31
tp3089
a(I5
g3
tp3090
a(I0
g5
tp3091
a(I0
g7
tp3092
a(I0
g3
tp3093
a(I0
g5
tp3094
a(I3
g7
tp3095
a(I6
g3
tp3096
a(I0
g5
tp3097
a(I0
g7
tp3098
a(I0
g15
tp3099
a(I0
g17
tp3100
a(I0
g19
tp3101
a(I0
g15
tp3102
a(I2
g17
tp3103
a(I0
g19
tp3104
a(I8
g15
tp3105
a(I0
g17
tp3106
a(I0
g19
tp3107
a(I0
g27
tp3108
a(I0
g29
tp3109
a(I0
g31
tp3110
a(I9
g27
tp3111
a(I0
g29
tp3112
a(I0
g31
tp3113
a(I0
g27
tp3114
a(I5
g29
tp3115
a(I0
g31
tp3116
atp3117
a(S'Easy (0)'
p3118
I5
(lp3119
(I0
g3
tp3120
a(I7
g5
tp3121
a(I0
g7
tp3122
a(I0
g3
tp3123
a(I0
g5
tp3124
a(I0
g7
tp3125
a(I0
g3
tp3126
a(I0
g5
tp3127
a(I0
g7
tp3128
a(I0
g15
tp3129
a(I0
g17
tp3130
a(I0
g19
tp3131
a(I7
g15
tp3132
a(I9
g17
tp3133
a(I0
g19
tp3134
a(I0
g15
tp3135
a(I0
g17
tp3136
a(I0
g19
tp3137
a(I9
g27
tp3138
a(I0
g29
tp3139
a(I8
g31
tp3140
a(I2
g27
tp3141
a(I5
g29
tp3142
a(I0
g31
tp3143
a(I0
g27
tp3144
a(I4
g29
tp3145
a(I0
g31
tp3146
a(I0
g3
tp3147
a(I0
g5
tp3148
a(I0
g7
tp3149
a(I0
g3
tp3150
a(I0
g5
tp3151
a(I0
g7
tp3152
a(I0
g3
tp3153
a(I0
g5
tp3154
a(I0
g7
tp3155
a(I0
g15
tp3156
a(I2
g17
tp3157
a(I0
g19
tp3158
a(I5
g15
tp3159
a(I0
g17
tp3160
a(I9
g19
tp3161
a(I0
g15
tp3162
a(I8
g17
tp3163
a(I0
g19
tp3164
a(I0
g27
tp3165
a(I0
g29
tp3166
a(I0
g31
tp3167
a(I0
g27
tp3168
a(I0
g29
tp3169
a(I0
g31
tp3170
a(I0
g27
tp3171
a(I0
g29
tp3172
a(I0
g31
tp3173
a(I0
g3
tp3174
a(I4
g5
tp3175
a(I0
g7
tp3176
a(I0
g3
tp3177
a(I2
g5
tp3178
a(I7
g7
tp3179
a(I9
g3
tp3180
a(I0
g5
tp3181
a(I5
g7
tp3182
a(I0
g15
tp3183
a(I0
g17
tp3184
a(I0
g19
tp3185
a(I0
g15
tp3186
a(I3
g17
tp3187
a(I5
g19
tp3188
a(I0
g15
tp3189
a(I0
g17
tp3190
a(I0
g19
tp3191
a(I0
g27
tp3192
a(I0
g29
tp3193
a(I0
g31
tp3194
a(I0
g27
tp3195
a(I0
g29
tp3196
a(I0
g31
tp3197
a(I0
g27
tp3198
a(I1
g29
tp3199
a(I0
g31
tp3200
atp3201
a(S'Easy (0)'
p3202
I6
(lp3203
(I0
g3
tp3204
a(I0
g5
tp3205
a(I4
g7
tp3206
a(I0
g3
tp3207
a(I3
g5
tp3208
a(I0
g7
tp3209
a(I0
g3
tp3210
a(I0
g5
tp3211
a(I0
g7
tp3212
a(I3
g15
tp3213
a(I0
g17
tp3214
a(I0
g19
tp3215
a(I9
g15
tp3216
a(I0
g17
tp3217
a(I0
g19
tp3218
a(I4
g15
tp3219
a(I1
g17
tp3220
a(I0
g19
tp3221
a(I2
g27
tp3222
a(I7
g29
tp3223
a(I9
g31
tp3224
a(I0
g27
tp3225
a(I0
g29
tp3226
a(I0
g31
tp3227
a(I3
g27
tp3228
a(I0
g29
tp3229
a(I0
g31
tp3230
a(I0
g3
tp3231
a(I0
g5
tp3232
a(I0
g7
tp3233
a(I4
g3
tp3234
a(I0
g5
tp3235
a(I0
g7
tp3236
a(I2
g3
tp3237
a(I0
g5
tp3238
a(I0
g7
tp3239
a(I0
g15
tp3240
a(I0
g17
tp3241
a(I0
g19
tp3242
a(I0
g15
tp3243
a(I0
g17
tp3244
a(I0
g19
tp3245
a(I0
g15
tp3246
a(I0
g17
tp3247
a(I0
g19
tp3248
a(I0
g27
tp3249
a(I0
g29
tp3250
a(I3
g31
tp3251
a(I0
g27
tp3252
a(I0
g29
tp3253
a(I1
g31
tp3254
a(I0
g27
tp3255
a(I0
g29
tp3256
a(I0
g31
tp3257
a(I0
g3
tp3258
a(I0
g5
tp3259
a(I7
g7
tp3260
a(I0
g3
tp3261
a(I0
g5
tp3262
a(I0
g7
tp3263
a(I9
g3
tp3264
a(I2
g5
tp3265
a(I8
g7
tp3266
a(I0
g15
tp3267
a(I3
g17
tp3268
a(I5
g19
tp3269
a(I0
g15
tp3270
a(I0
g17
tp3271
a(I9
g19
tp3272
a(I0
g15
tp3273
a(I0
g17
tp3274
a(I4
g19
tp3275
a(I0
g27
tp3276
a(I0
g29
tp3277
a(I0
g31
tp3278
a(I0
g27
tp3279
a(I8
g29
tp3280
a(I0
g31
tp3281
a(I5
g27
tp3282
a(I0
g29
tp3283
a(I0
g31
tp3284
atp3285
a(S'Easy (0)'
p3286
I7
(lp3287
(I6
g3
tp3288
a(I0
g5
tp3289
a(I0
g7
tp3290
a(I0
g3
tp3291
a(I0
g5
tp3292
a(I0
g7
tp3293
a(I0
g3
tp3294
a(I5
g5
tp3295
a(I0
g7
tp3296
a(I0
g15
tp3297
a(I0
g17
tp3298
a(I0
g19
tp3299
a(I0
g15
tp3300
a(I7
g17
tp3301
a(I0
g19
tp3302
a(I0
g15
tp3303
a(I0
g17
tp3304
a(I8
g19
tp3305
a(I9
g27
tp3306
a(I0
g29
tp3307
a(I0
g31
tp3308
a(I0
g27
tp3309
a(I8
g29
tp3310
a(I0
g31
tp3311
a(I0
g27
tp3312
a(I0
g29
tp3313
a(I0
g31
tp3314
a(I0
g3
tp3315
a(I7
g5
tp3316
a(I5
g7
tp3317
a(I0
g3
tp3318
a(I0
g5
tp3319
a(I0
g7
tp3320
a(I0
g3
tp3321
a(I0
g5
tp3322
a(I6
g7
tp3323
a(I0
g15
tp3324
a(I1
g17
tp3325
a(I0
g19
tp3326
a(I2
g15
tp3327
a(I0
g17
tp3328
a(I7
g19
tp3329
a(I0
g15
tp3330
a(I4
g17
tp3331
a(I0
g19
tp3332
a(I2
g27
tp3333
a(I0
g29
tp3334
a(I0
g31
tp3335
a(I0
g27
tp3336
a(I0
g29
tp3337
a(I0
g31
tp3338
a(I8
g27
tp3339
a(I7
g29
tp3340
a(I0
g31
tp3341
a(I0
g3
tp3342
a(I0
g5
tp3343
a(I0
g7
tp3344
a(I0
g3
tp3345
a(I3
g5
tp3346
a(I0
g7
tp3347
a(I0
g3
tp3348
a(I0
g5
tp3349
a(I4
g7
tp3350
a(I5
g15
tp3351
a(I0
g17
tp3352
a(I0
g19
tp3353
a(I0
g15
tp3354
a(I2
g17
tp3355
a(I0
g19
tp3356
a(I0
g15
tp3357
a(I0
g17
tp3358
a(I0
g19
tp3359
a(I0
g27
tp3360
a(I3
g29
tp3361
a(I0
g31
tp3362
a(I0
g27
tp3363
a(I0
g29
tp3364
a(I0
g31
tp3365
a(I0
g27
tp3366
a(I0
g29
tp3367
a(I7
g31
tp3368
atp3369
a(S'Easy (0)'
p3370
I8
(lp3371
(I0
g3
tp3372
a(I5
g5
tp3373
a(I0
g7
tp3374
a(I3
g3
tp3375
a(I0
g5
tp3376
a(I0
g7
tp3377
a(I0
g3
tp3378
a(I0
g5
tp3379
a(I0
g7
tp3380
a(I0
g15
tp3381
a(I0
g17
tp3382
a(I0
g19
tp3383
a(I9
g15
tp3384
a(I4
g17
tp3385
a(I0
g19
tp3386
a(I0
g15
tp3387
a(I5
g17
tp3388
a(I1
g19
tp3389
a(I0
g27
tp3390
a(I0
g29
tp3391
a(I0
g31
tp3392
a(I0
g27
tp3393
a(I0
g29
tp3394
a(I0
g31
tp3395
a(I0
g27
tp3396
a(I0
g29
tp3397
a(I7
g31
tp3398
a(I7
g3
tp3399
a(I0
g5
tp3400
a(I0
g7
tp3401
a(I0
g3
tp3402
a(I1
g5
tp3403
a(I0
g7
tp3404
a(I2
g3
tp3405
a(I0
g5
tp3406
a(I0
g7
tp3407
a(I0
g15
tp3408
a(I0
g17
tp3409
a(I9
g19
tp3410
a(I0
g15
tp3411
a(I0
g17
tp3412
a(I0
g19
tp3413
a(I7
g15
tp3414
a(I0
g17
tp3415
a(I0
g19
tp3416
a(I0
g27
tp3417
a(I0
g29
tp3418
a(I3
g31
tp3419
a(I0
g27
tp3420
a(I2
g29
tp3421
a(I0
g31
tp3422
a(I0
g27
tp3423
a(I0
g29
tp3424
a(I9
g31
tp3425
a(I5
g3
tp3426
a(I0
g5
tp3427
a(I0
g7
tp3428
a(I0
g3
tp3429
a(I0
g5
tp3430
a(I0
g7
tp3431
a(I0
g3
tp3432
a(I0
g5
tp3433
a(I0
g7
tp3434
a(I8
g15
tp3435
a(I6
g17
tp3436
a(I0
g19
tp3437
a(I0
g15
tp3438
a(I3
g17
tp3439
a(I5
g19
tp3440
a(I0
g15
tp3441
a(I0
g17
tp3442
a(I0
g19
tp3443
a(I0
g27
tp3444
a(I0
g29
tp3445
a(I0
g31
tp3446
a(I0
g27
tp3447
a(I0
g29
tp3448
a(I1
g31
tp3449
a(I0
g27
tp3450
a(I7
g29
tp3451
a(I0
g31
tp3452
atp3453
a(S'Easy (0)'
p3454
I9
(lp3455
(I0
g3
tp3456
a(I8
g5
tp3457
a(I0
g7
tp3458
a(I0
g3
tp3459
a(I0
g5
tp3460
a(I0
g7
tp3461
a(I0
g3
tp3462
a(I0
g5
tp3463
a(I0
g7
tp3464
a(I0
g15
tp3465
a(I5
g17
tp3466
a(I0
g19
tp3467
a(I6
g15
tp3468
a(I2
g17
tp3469
a(I0
g19
tp3470
a(I0
g15
tp3471
a(I0
g17
tp3472
a(I0
g19
tp3473
a(I0
g27
tp3474
a(I3
g29
tp3475
a(I0
g31
tp3476
a(I0
g27
tp3477
a(I0
g29
tp3478
a(I0
g31
tp3479
a(I8
g27
tp3480
a(I0
g29
tp3481
a(I0
g31
tp3482
a(I0
g3
tp3483
a(I0
g5
tp3484
a(I4
g7
tp3485
a(I0
g3
tp3486
a(I0
g5
tp3487
a(I0
g7
tp3488
a(I0
g3
tp3489
a(I0
g5
tp3490
a(I0
g7
tp3491
a(I3
g15
tp3492
a(I0
g17
tp3493
a(I0
g19
tp3494
a(I0
g15
tp3495
a(I0
g17
tp3496
a(I0
g19
tp3497
a(I0
g15
tp3498
a(I0
g17
tp3499
a(I1
g19
tp3500
a(I0
g27
tp3501
a(I0
g29
tp3502
a(I0
g31
tp3503
a(I0
g27
tp3504
a(I0
g29
tp3505
a(I0
g31
tp3506
a(I2
g27
tp3507
a(I0
g29
tp3508
a(I0
g31
tp3509
a(I0
g3
tp3510
a(I0
g5
tp3511
a(I7
g7
tp3512
a(I0
g3
tp3513
a(I0
g5
tp3514
a(I0
g7
tp3515
a(I0
g3
tp3516
a(I2
g5
tp3517
a(I0
g7
tp3518
a(I0
g15
tp3519
a(I0
g17
tp3520
a(I0
g19
tp3521
a(I0
g15
tp3522
a(I9
g17
tp3523
a(I3
g19
tp3524
a(I0
g15
tp3525
a(I6
g17
tp3526
a(I0
g19
tp3527
a(I0
g27
tp3528
a(I0
g29
tp3529
a(I0
g31
tp3530
a(I0
g27
tp3531
a(I0
g29
tp3532
a(I0
g31
tp3533
a(I0
g27
tp3534
a(I1
g29
tp3535
a(I0
g31
tp3536
atp3537
a(S'Easy (0)'
p3538
I10
(lp3539
(I8
g3
tp3540
a(I0
g5
tp3541
a(I0
g7
tp3542
a(I0
g3
tp3543
a(I0
g5
tp3544
a(I6
g7
tp3545
a(I0
g3
tp3546
a(I9
g5
tp3547
a(I0
g7
tp3548
a(I0
g15
tp3549
a(I0
g17
tp3550
a(I9
g19
tp3551
a(I7
g15
tp3552
a(I0
g17
tp3553
a(I2
g19
tp3554
a(I0
g15
tp3555
a(I0
g17
tp3556
a(I0
g19
tp3557
a(I0
g27
tp3558
a(I6
g29
tp3559
a(I0
g31
tp3560
a(I0
g27
tp3561
a(I0
g29
tp3562
a(I0
g31
tp3563
a(I0
g27
tp3564
a(I0
g29
tp3565
a(I0
g31
tp3566
a(I0
g3
tp3567
a(I8
g5
tp3568
a(I0
g7
tp3569
a(I5
g3
tp3570
a(I0
g5
tp3571
a(I0
g7
tp3572
a(I3
g3
tp3573
a(I0
g5
tp3574
a(I0
g7
tp3575
a(I0
g15
tp3576
a(I0
g17
tp3577
a(I0
g19
tp3578
a(I0
g15
tp3579
a(I0
g17
tp3580
a(I0
g19
tp3581
a(I0
g15
tp3582
a(I0
g17
tp3583
a(I0
g19
tp3584
a(I0
g27
tp3585
a(I0
g29
tp3586
a(I4
g31
tp3587
a(I0
g27
tp3588
a(I0
g29
tp3589
a(I3
g31
tp3590
a(I0
g27
tp3591
a(I8
g29
tp3592
a(I0
g31
tp3593
a(I0
g3
tp3594
a(I0
g5
tp3595
a(I0
g7
tp3596
a(I0
g3
tp3597
a(I0
g5
tp3598
a(I0
g7
tp3599
a(I0
g3
tp3600
a(I7
g5
tp3601
a(I0
g7
tp3602
a(I0
g15
tp3603
a(I0
g17
tp3604
a(I0
g19
tp3605
a(I2
g15
tp3606
a(I0
g17
tp3607
a(I1
g19
tp3608
a(I6
g15
tp3609
a(I0
g17
tp3610
a(I0
g19
tp3611
a(I0
g27
tp3612
a(I2
g29
tp3613
a(I0
g31
tp3614
a(I8
g27
tp3615
a(I0
g29
tp3616
a(I0
g31
tp3617
a(I0
g27
tp3618
a(I0
g29
tp3619
a(I1
g31
tp3620
atp3621
a(S'Easy (0)'
p3622
I11
(lp3623
(I0
g3
tp3624
a(I0
g5
tp3625
a(I0
g7
tp3626
a(I0
g3
tp3627
a(I0
g5
tp3628
a(I0
g7
tp3629
a(I6
g3
tp3630
a(I0
g5
tp3631
a(I0
g7
tp3632
a(I0
g15
tp3633
a(I6
g17
tp3634
a(I0
g19
tp3635
a(I0
g15
tp3636
a(I9
g17
tp3637
a(I7
g19
tp3638
a(I0
g15
tp3639
a(I0
g17
tp3640
a(I0
g19
tp3641
a(I0
g27
tp3642
a(I0
g29
tp3643
a(I0
g31
tp3644
a(I6
g27
tp3645
a(I0
g29
tp3646
a(I0
g31
tp3647
a(I0
g27
tp3648
a(I1
g29
tp3649
a(I0
g31
tp3650
a(I7
g3
tp3651
a(I0
g5
tp3652
a(I0
g7
tp3653
a(I0
g3
tp3654
a(I0
g5
tp3655
a(I0
g7
tp3656
a(I2
g3
tp3657
a(I0
g5
tp3658
a(I4
g7
tp3659
a(I6
g15
tp3660
a(I0
g17
tp3661
a(I0
g19
tp3662
a(I0
g15
tp3663
a(I0
g17
tp3664
a(I0
g19
tp3665
a(I0
g15
tp3666
a(I0
g17
tp3667
a(I5
g19
tp3668
a(I5
g27
tp3669
a(I0
g29
tp3670
a(I2
g31
tp3671
a(I0
g27
tp3672
a(I0
g29
tp3673
a(I0
g31
tp3674
a(I0
g27
tp3675
a(I0
g29
tp3676
a(I9
g31
tp3677
a(I0
g3
tp3678
a(I1
g5
tp3679
a(I0
g7
tp3680
a(I0
g3
tp3681
a(I0
g5
tp3682
a(I3
g7
tp3683
a(I0
g3
tp3684
a(I0
g5
tp3685
a(I0
g7
tp3686
a(I0
g15
tp3687
a(I0
g17
tp3688
a(I0
g19
tp3689
a(I2
g15
tp3690
a(I4
g17
tp3691
a(I0
g19
tp3692
a(I0
g15
tp3693
a(I3
g17
tp3694
a(I0
g19
tp3695
a(I0
g27
tp3696
a(I0
g29
tp3697
a(I7
g31
tp3698
a(I0
g27
tp3699
a(I0
g29
tp3700
a(I0
g31
tp3701
a(I0
g27
tp3702
a(I0
g29
tp3703
a(I0
g31
tp3704
atp3705
a(S'Easy (0)'
p3706
I12
(lp3707
(I0
g3
tp3708
a(I0
g5
tp3709
a(I0
g7
tp3710
a(I0
g3
tp3711
a(I0
g5
tp3712
a(I0
g7
tp3713
a(I0
g3
tp3714
a(I0
g5
tp3715
a(I0
g7
tp3716
a(I0
g15
tp3717
a(I7
g17
tp3718
a(I0
g19
tp3719
a(I0
g15
tp3720
a(I5
g17
tp3721
a(I0
g19
tp3722
a(I0
g15
tp3723
a(I0
g17
tp3724
a(I1
g19
tp3725
a(I0
g27
tp3726
a(I0
g29
tp3727
a(I0
g31
tp3728
a(I0
g27
tp3729
a(I4
g29
tp3730
a(I1
g31
tp3731
a(I0
g27
tp3732
a(I0
g29
tp3733
a(I3
g31
tp3734
a(I0
g3
tp3735
a(I0
g5
tp3736
a(I1
g7
tp3737
a(I3
g3
tp3738
a(I0
g5
tp3739
a(I4
g7
tp3740
a(I0
g3
tp3741
a(I0
g5
tp3742
a(I9
g7
tp3743
a(I0
g15
tp3744
a(I0
g17
tp3745
a(I0
g19
tp3746
a(I0
g15
tp3747
a(I0
g17
tp3748
a(I0
g19
tp3749
a(I0
g15
tp3750
a(I0
g17
tp3751
a(I0
g19
tp3752
a(I9
g27
tp3753
a(I0
g29
tp3754
a(I0
g31
tp3755
a(I1
g27
tp3756
a(I0
g29
tp3757
a(I5
g31
tp3758
a(I2
g27
tp3759
a(I0
g29
tp3760
a(I0
g31
tp3761
a(I2
g3
tp3762
a(I0
g5
tp3763
a(I0
g7
tp3764
a(I7
g3
tp3765
a(I3
g5
tp3766
a(I0
g7
tp3767
a(I0
g3
tp3768
a(I0
g5
tp3769
a(I0
g7
tp3770
a(I1
g15
tp3771
a(I0
g17
tp3772
a(I0
g19
tp3773
a(I0
g15
tp3774
a(I9
g17
tp3775
a(I0
g19
tp3776
a(I0
g15
tp3777
a(I6
g17
tp3778
a(I0
g19
tp3779
a(I0
g27
tp3780
a(I0
g29
tp3781
a(I0
g31
tp3782
a(I0
g27
tp3783
a(I0
g29
tp3784
a(I0
g31
tp3785
a(I0
g27
tp3786
a(I0
g29
tp3787
a(I0
g31
tp3788
atp3789
a(S'Easy (0)'
p3790
I13
(lp3791
(I0
g3
tp3792
a(I0
g5
tp3793
a(I2
g7
tp3794
a(I0
g3
tp3795
a(I0
g5
tp3796
a(I0
g7
tp3797
a(I9
g3
tp3798
a(I0
g5
tp3799
a(I0
g7
tp3800
a(I4
g15
tp3801
a(I0
g17
tp3802
a(I3
g19
tp3803
a(I0
g15
tp3804
a(I0
g17
tp3805
a(I6
g19
tp3806
a(I0
g15
tp3807
a(I0
g17
tp3808
a(I0
g19
tp3809
a(I0
g27
tp3810
a(I9
g29
tp3811
a(I0
g31
tp3812
a(I0
g27
tp3813
a(I0
g29
tp3814
a(I0
g31
tp3815
a(I0
g27
tp3816
a(I0
g29
tp3817
a(I1
g31
tp3818
a(I0
g3
tp3819
a(I0
g5
tp3820
a(I0
g7
tp3821
a(I0
g3
tp3822
a(I0
g5
tp3823
a(I0
g7
tp3824
a(I0
g3
tp3825
a(I6
g5
tp3826
a(I0
g7
tp3827
a(I0
g15
tp3828
a(I0
g17
tp3829
a(I9
g19
tp3830
a(I2
g15
tp3831
a(I0
g17
tp3832
a(I8
g19
tp3833
a(I1
g15
tp3834
a(I0
g17
tp3835
a(I0
g19
tp3836
a(I0
g27
tp3837
a(I4
g29
tp3838
a(I0
g31
tp3839
a(I0
g27
tp3840
a(I0
g29
tp3841
a(I0
g31
tp3842
a(I0
g27
tp3843
a(I0
g29
tp3844
a(I0
g31
tp3845
a(I1
g3
tp3846
a(I0
g5
tp3847
a(I0
g7
tp3848
a(I0
g3
tp3849
a(I0
g5
tp3850
a(I0
g7
tp3851
a(I0
g3
tp3852
a(I4
g5
tp3853
a(I0
g7
tp3854
a(I0
g15
tp3855
a(I0
g17
tp3856
a(I0
g19
tp3857
a(I7
g15
tp3858
a(I0
g17
tp3859
a(I0
g19
tp3860
a(I6
g15
tp3861
a(I0
g17
tp3862
a(I2
g19
tp3863
a(I0
g27
tp3864
a(I0
g29
tp3865
a(I6
g31
tp3866
a(I0
g27
tp3867
a(I0
g29
tp3868
a(I0
g31
tp3869
a(I7
g27
tp3870
a(I0
g29
tp3871
a(I0
g31
tp3872
atp3873
a(S'Easy (0)'
p3874
I14
(lp3875
(I5
g3
tp3876
a(I0
g5
tp3877
a(I0
g7
tp3878
a(I0
g3
tp3879
a(I0
g5
tp3880
a(I0
g7
tp3881
a(I0
g3
tp3882
a(I0
g5
tp3883
a(I6
g7
tp3884
a(I6
g15
tp3885
a(I8
g17
tp3886
a(I0
g19
tp3887
a(I0
g15
tp3888
a(I0
g17
tp3889
a(I4
g19
tp3890
a(I0
g15
tp3891
a(I0
g17
tp3892
a(I0
g19
tp3893
a(I3
g27
tp3894
a(I0
g29
tp3895
a(I1
g31
tp3896
a(I9
g27
tp3897
a(I0
g29
tp3898
a(I6
g31
tp3899
a(I0
g27
tp3900
a(I0
g29
tp3901
a(I0
g31
tp3902
a(I0
g3
tp3903
a(I0
g5
tp3904
a(I3
g7
tp3905
a(I0
g3
tp3906
a(I0
g5
tp3907
a(I0
g7
tp3908
a(I0
g3
tp3909
a(I5
g5
tp3910
a(I0
g7
tp3911
a(I7
g15
tp3912
a(I0
g17
tp3913
a(I0
g19
tp3914
a(I0
g15
tp3915
a(I0
g17
tp3916
a(I0
g19
tp3917
a(I0
g15
tp3918
a(I0
g17
tp3919
a(I9
g19
tp3920
a(I0
g27
tp3921
a(I1
g29
tp3922
a(I0
g31
tp3923
a(I0
g27
tp3924
a(I0
g29
tp3925
a(I0
g31
tp3926
a(I6
g27
tp3927
a(I0
g29
tp3928
a(I0
g31
tp3929
a(I0
g3
tp3930
a(I0
g5
tp3931
a(I0
g7
tp3932
a(I6
g3
tp3933
a(I0
g5
tp3934
a(I5
g7
tp3935
a(I3
g3
tp3936
a(I0
g5
tp3937
a(I8
g7
tp3938
a(I0
g15
tp3939
a(I0
g17
tp3940
a(I0
g19
tp3941
a(I8
g15
tp3942
a(I0
g17
tp3943
a(I0
g19
tp3944
a(I0
g15
tp3945
a(I7
g17
tp3946
a(I1
g19
tp3947
a(I2
g27
tp3948
a(I0
g29
tp3949
a(I0
g31
tp3950
a(I0
g27
tp3951
a(I0
g29
tp3952
a(I0
g31
tp3953
a(I0
g27
tp3954
a(I0
g29
tp3955
a(I4
g31
tp3956
atp3957
a(S'Easy (0)'
p3958
I15
(lp3959
(I0
g3
tp3960
a(I8
g5
tp3961
a(I0
g7
tp3962
a(I0
g3
tp3963
a(I0
g5
tp3964
a(I0
g7
tp3965
a(I0
g3
tp3966
a(I0
g5
tp3967
a(I0
g7
tp3968
a(I0
g15
tp3969
a(I0
g17
tp3970
a(I3
g19
tp3971
a(I0
g15
tp3972
a(I0
g17
tp3973
a(I0
g19
tp3974
a(I4
g15
tp3975
a(I1
g17
tp3976
a(I0
g19
tp3977
a(I7
g27
tp3978
a(I0
g29
tp3979
a(I0
g31
tp3980
a(I0
g27
tp3981
a(I0
g29
tp3982
a(I0
g31
tp3983
a(I0
g27
tp3984
a(I0
g29
tp3985
a(I0
g31
tp3986
a(I4
g3
tp3987
a(I0
g5
tp3988
a(I0
g7
tp3989
a(I0
g3
tp3990
a(I0
g5
tp3991
a(I8
g7
tp3992
a(I9
g3
tp3993
a(I0
g5
tp3994
a(I0
g7
tp3995
a(I0
g15
tp3996
a(I0
g17
tp3997
a(I0
g19
tp3998
a(I1
g15
tp3999
a(I0
g17
tp4000
a(I9
g19
tp4001
a(I0
g15
tp4002
a(I0
g17
tp4003
a(I0
g19
tp4004
a(I0
g27
tp4005
a(I0
g29
tp4006
a(I1
g31
tp4007
a(I3
g27
tp4008
a(I0
g29
tp4009
a(I0
g31
tp4010
a(I0
g27
tp4011
a(I0
g29
tp4012
a(I4
g31
tp4013
a(I0
g3
tp4014
a(I0
g5
tp4015
a(I0
g7
tp4016
a(I0
g3
tp4017
a(I0
g5
tp4018
a(I0
g7
tp4019
a(I0
g3
tp4020
a(I0
g5
tp4021
a(I2
g7
tp4022
a(I0
g15
tp4023
a(I9
g17
tp4024
a(I4
g19
tp4025
a(I0
g15
tp4026
a(I0
g17
tp4027
a(I0
g19
tp4028
a(I6
g15
tp4029
a(I0
g17
tp4030
a(I0
g19
tp4031
a(I0
g27
tp4032
a(I0
g29
tp4033
a(I0
g31
tp4034
a(I0
g27
tp4035
a(I0
g29
tp4036
a(I0
g31
tp4037
a(I0
g27
tp4038
a(I7
g29
tp4039
a(I0
g31
tp4040
atp4041
a(S'Medium (0)'
p4042
I0
(lp4043
(I7
g3
tp4044
a(I0
g5
tp4045
a(I0
g7
tp4046
a(I0
g3
tp4047
a(I0
g5
tp4048
a(I4
g7
tp4049
a(I0
g3
tp4050
a(I0
g5
tp4051
a(I6
g7
tp4052
a(I0
g15
tp4053
a(I0
g17
tp4054
a(I0
g19
tp4055
a(I5
g15
tp4056
a(I0
g17
tp4057
a(I0
g19
tp4058
a(I0
g15
tp4059
a(I4
g17
tp4060
a(I0
g19
tp4061
a(I0
g27
tp4062
a(I0
g29
tp4063
a(I0
g31
tp4064
a(I7
g27
tp4065
a(I0
g29
tp4066
a(I8
g31
tp4067
a(I0
g27
tp4068
a(I0
g29
tp4069
a(I0
g31
tp4070
a(I0
g3
tp4071
a(I0
g5
tp4072
a(I5
g7
tp4073
a(I0
g3
tp4074
a(I0
g5
tp4075
a(I9
g7
tp4076
a(I0
g3
tp4077
a(I7
g5
tp4078
a(I0
g7
tp4079
a(I0
g15
tp4080
a(I7
g17
tp4081
a(I8
g19
tp4082
a(I0
g15
tp4083
a(I0
g17
tp4084
a(I0
g19
tp4085
a(I1
g15
tp4086
a(I9
g17
tp4087
a(I0
g19
tp4088
a(I0
g27
tp4089
a(I1
g29
tp4090
a(I0
g31
tp4091
a(I2
g27
tp4092
a(I0
g29
tp4093
a(I0
g31
tp4094
a(I5
g27
tp4095
a(I0
g29
tp4096
a(I0
g31
tp4097
a(I0
g3
tp4098
a(I0
g5
tp4099
a(I0
g7
tp4100
a(I9
g3
tp4101
a(I0
g5
tp4102
a(I1
g7
tp4103
a(I0
g3
tp4104
a(I0
g5
tp4105
a(I0
g7
tp4106
a(I0
g15
tp4107
a(I3
g17
tp4108
a(I0
g19
tp4109
a(I0
g15
tp4110
a(I0
g17
tp4111
a(I2
g19
tp4112
a(I0
g15
tp4113
a(I0
g17
tp4114
a(I0
g19
tp4115
a(I1
g27
tp4116
a(I0
g29
tp4117
a(I0
g31
tp4118
a(I8
g27
tp4119
a(I0
g29
tp4120
a(I0
g31
tp4121
a(I0
g27
tp4122
a(I0
g29
tp4123
a(I5
g31
tp4124
atp4125
a(S'Medium (0)'
p4126
I1
(lp4127
(I0
g3
tp4128
a(I5
g5
tp4129
a(I0
g7
tp4130
a(I0
g3
tp4131
a(I0
g5
tp4132
a(I7
g7
tp4133
a(I0
g3
tp4134
a(I0
g5
tp4135
a(I0
g7
tp4136
a(I0
g15
tp4137
a(I0
g17
tp4138
a(I8
g19
tp4139
a(I0
g15
tp4140
a(I0
g17
tp4141
a(I4
g19
tp4142
a(I0
g15
tp4143
a(I0
g17
tp4144
a(I1
g19
tp4145
a(I0
g27
tp4146
a(I1
g29
tp4147
a(I0
g31
tp4148
a(I0
g27
tp4149
a(I0
g29
tp4150
a(I0
g31
tp4151
a(I7
g27
tp4152
a(I0
g29
tp4153
a(I0
g31
tp4154
a(I9
g3
tp4155
a(I0
g5
tp4156
a(I0
g7
tp4157
a(I0
g3
tp4158
a(I2
g5
tp4159
a(I0
g7
tp4160
a(I6
g3
tp4161
a(I0
g5
tp4162
a(I0
g7
tp4163
a(I0
g15
tp4164
a(I0
g17
tp4165
a(I0
g19
tp4166
a(I4
g15
tp4167
a(I0
g17
tp4168
a(I3
g19
tp4169
a(I0
g15
tp4170
a(I0
g17
tp4171
a(I0
g19
tp4172
a(I0
g27
tp4173
a(I0
g29
tp4174
a(I7
g31
tp4175
a(I0
g27
tp4176
a(I9
g29
tp4177
a(I0
g31
tp4178
a(I0
g27
tp4179
a(I0
g29
tp4180
a(I8
g31
tp4181
a(I0
g3
tp4182
a(I0
g5
tp4183
a(I4
g7
tp4184
a(I0
g3
tp4185
a(I0
g5
tp4186
a(I0
g7
tp4187
a(I0
g3
tp4188
a(I3
g5
tp4189
a(I0
g7
tp4190
a(I8
g15
tp4191
a(I0
g17
tp4192
a(I0
g19
tp4193
a(I3
g15
tp4194
a(I0
g17
tp4195
a(I0
g19
tp4196
a(I5
g15
tp4197
a(I0
g17
tp4198
a(I0
g19
tp4199
a(I0
g27
tp4200
a(I0
g29
tp4201
a(I0
g31
tp4202
a(I1
g27
tp4203
a(I0
g29
tp4204
a(I0
g31
tp4205
a(I0
g27
tp4206
a(I6
g29
tp4207
a(I0
g31
tp4208
atp4209
a(S'Medium (0)'
p4210
I2
(lp4211
(I0
g3
tp4212
a(I0
g5
tp4213
a(I7
g7
tp4214
a(I0
g3
tp4215
a(I0
g5
tp4216
a(I6
g7
tp4217
a(I0
g3
tp4218
a(I0
g5
tp4219
a(I1
g7
tp4220
a(I0
g15
tp4221
a(I0
g17
tp4222
a(I0
g19
tp4223
a(I0
g15
tp4224
a(I0
g17
tp4225
a(I0
g19
tp4226
a(I0
g15
tp4227
a(I0
g17
tp4228
a(I0
g19
tp4229
a(I1
g27
tp4230
a(I0
g29
tp4231
a(I8
g31
tp4232
a(I4
g27
tp4233
a(I5
g29
tp4234
a(I7
g31
tp4235
a(I0
g27
tp4236
a(I0
g29
tp4237
a(I3
g31
tp4238
a(I0
g3
tp4239
a(I0
g5
tp4240
a(I0
g7
tp4241
a(I0
g3
tp4242
a(I0
g5
tp4243
a(I0
g7
tp4244
a(I0
g3
tp4245
a(I0
g5
tp4246
a(I0
g7
tp4247
a(I6
g15
tp4248
a(I0
g17
tp4249
a(I4
g19
tp4250
a(I0
g15
tp4251
a(I0
g17
tp4252
a(I0
g19
tp4253
a(I1
g15
tp4254
a(I0
g17
tp4255
a(I5
g19
tp4256
a(I0
g27
tp4257
a(I0
g29
tp4258
a(I0
g31
tp4259
a(I0
g27
tp4260
a(I0
g29
tp4261
a(I0
g31
tp4262
a(I0
g27
tp4263
a(I0
g29
tp4264
a(I0
g31
tp4265
a(I2
g3
tp4266
a(I0
g5
tp4267
a(I0
g7
tp4268
a(I1
g3
tp4269
a(I4
g5
tp4270
a(I3
g7
tp4271
a(I7
g3
tp4272
a(I0
g5
tp4273
a(I9
g7
tp4274
a(I0
g15
tp4275
a(I0
g17
tp4276
a(I0
g19
tp4277
a(I0
g15
tp4278
a(I0
g17
tp4279
a(I0
g19
tp4280
a(I0
g15
tp4281
a(I0
g17
tp4282
a(I0
g19
tp4283
a(I9
g27
tp4284
a(I0
g29
tp4285
a(I0
g31
tp4286
a(I8
g27
tp4287
a(I0
g29
tp4288
a(I0
g31
tp4289
a(I3
g27
tp4290
a(I0
g29
tp4291
a(I0
g31
tp4292
atp4293
a(S'Medium (0)'
p4294
I3
(lp4295
(I0
g3
tp4296
a(I2
g5
tp4297
a(I9
g7
tp4298
a(I0
g3
tp4299
a(I0
g5
tp4300
a(I0
g7
tp4301
a(I0
g3
tp4302
a(I0
g5
tp4303
a(I0
g7
tp4304
a(I0
g15
tp4305
a(I0
g17
tp4306
a(I0
g19
tp4307
a(I0
g15
tp4308
a(I0
g17
tp4309
a(I9
g19
tp4310
a(I0
g15
tp4311
a(I0
g17
tp4312
a(I0
g19
tp4313
a(I0
g27
tp4314
a(I0
g29
tp4315
a(I0
g31
tp4316
a(I0
g27
tp4317
a(I6
g29
tp4318
a(I0
g31
tp4319
a(I0
g27
tp4320
a(I0
g29
tp4321
a(I0
g31
tp4322
a(I2
g3
tp4323
a(I7
g5
tp4324
a(I0
g7
tp4325
a(I0
g3
tp4326
a(I3
g5
tp4327
a(I5
g7
tp4328
a(I0
g3
tp4329
a(I0
g5
tp4330
a(I6
g7
tp4331
a(I0
g15
tp4332
a(I8
g17
tp4333
a(I0
g19
tp4334
a(I0
g15
tp4335
a(I0
g17
tp4336
a(I0
g19
tp4337
a(I0
g15
tp4338
a(I4
g17
tp4339
a(I0
g19
tp4340
a(I5
g27
tp4341
a(I0
g29
tp4342
a(I0
g31
tp4343
a(I8
g27
tp4344
a(I7
g29
tp4345
a(I0
g31
tp4346
a(I0
g27
tp4347
a(I3
g29
tp4348
a(I2
g31
tp4349
a(I0
g3
tp4350
a(I0
g5
tp4351
a(I0
g7
tp4352
a(I0
g3
tp4353
a(I5
g5
tp4354
a(I0
g7
tp4355
a(I0
g3
tp4356
a(I0
g5
tp4357
a(I0
g7
tp4358
a(I0
g15
tp4359
a(I0
g17
tp4360
a(I0
g19
tp4361
a(I6
g15
tp4362
a(I0
g17
tp4363
a(I0
g19
tp4364
a(I0
g15
tp4365
a(I0
g17
tp4366
a(I0
g19
tp4367
a(I0
g27
tp4368
a(I0
g29
tp4369
a(I0
g31
tp4370
a(I0
g27
tp4371
a(I0
g29
tp4372
a(I0
g31
tp4373
a(I6
g27
tp4374
a(I8
g29
tp4375
a(I0
g31
tp4376
atp4377
a(S'Medium (0)'
p4378
I4
(lp4379
(I0
g3
tp4380
a(I0
g5
tp4381
a(I0
g7
tp4382
a(I4
g3
tp4383
a(I0
g5
tp4384
a(I6
g7
tp4385
a(I0
g3
tp4386
a(I2
g5
tp4387
a(I0
g7
tp4388
a(I0
g15
tp4389
a(I0
g17
tp4390
a(I9
g19
tp4391
a(I3
g15
tp4392
a(I0
g17
tp4393
a(I0
g19
tp4394
a(I0
g15
tp4395
a(I0
g17
tp4396
a(I0
g19
tp4397
a(I0
g27
tp4398
a(I0
g29
tp4399
a(I0
g31
tp4400
a(I0
g27
tp4401
a(I0
g29
tp4402
a(I0
g31
tp4403
a(I0
g27
tp4404
a(I4
g29
tp4405
a(I0
g31
tp4406
a(I1
g3
tp4407
a(I6
g5
tp4408
a(I0
g7
tp4409
a(I0
g3
tp4410
a(I4
g5
tp4411
a(I0
g7
tp4412
a(I0
g3
tp4413
a(I0
g5
tp4414
a(I9
g7
tp4415
a(I7
g15
tp4416
a(I0
g17
tp4417
a(I0
g19
tp4418
a(I1
g15
tp4419
a(I0
g17
tp4420
a(I5
g19
tp4421
a(I0
g15
tp4422
a(I0
g17
tp4423
a(I2
g19
tp4424
a(I4
g27
tp4425
a(I0
g29
tp4426
a(I0
g31
tp4427
a(I0
g27
tp4428
a(I6
g29
tp4429
a(I0
g31
tp4430
a(I0
g27
tp4431
a(I3
g29
tp4432
a(I7
g31
tp4433
a(I0
g3
tp4434
a(I7
g5
tp4435
a(I0
g7
tp4436
a(I0
g3
tp4437
a(I0
g5
tp4438
a(I0
g7
tp4439
a(I0
g3
tp4440
a(I0
g5
tp4441
a(I0
g7
tp4442
a(I0
g15
tp4443
a(I0
g17
tp4444
a(I0
g19
tp4445
a(I0
g15
tp4446
a(I0
g17
tp4447
a(I7
g19
tp4448
a(I8
g15
tp4449
a(I0
g17
tp4450
a(I0
g19
tp4451
a(I0
g27
tp4452
a(I5
g29
tp4453
a(I0
g31
tp4454
a(I8
g27
tp4455
a(I0
g29
tp4456
a(I2
g31
tp4457
a(I0
g27
tp4458
a(I0
g29
tp4459
a(I0
g31
tp4460
atp4461
a(S'Medium (0)'
p4462
I5
(lp4463
(I0
g3
tp4464
a(I0
g5
tp4465
a(I7
g7
tp4466
a(I0
g3
tp4467
a(I0
g5
tp4468
a(I0
g7
tp4469
a(I0
g3
tp4470
a(I2
g5
tp4471
a(I1
g7
tp4472
a(I0
g15
tp4473
a(I0
g17
tp4474
a(I0
g19
tp4475
a(I0
g15
tp4476
a(I2
g17
tp4477
a(I0
g19
tp4478
a(I0
g15
tp4479
a(I0
g17
tp4480
a(I8
g19
tp4481
a(I0
g27
tp4482
a(I0
g29
tp4483
a(I0
g31
tp4484
a(I0
g27
tp4485
a(I0
g29
tp4486
a(I1
g31
tp4487
a(I0
g27
tp4488
a(I0
g29
tp4489
a(I9
g31
tp4490
a(I0
g3
tp4491
a(I0
g5
tp4492
a(I0
g7
tp4493
a(I0
g3
tp4494
a(I0
g5
tp4495
a(I8
g7
tp4496
a(I0
g3
tp4497
a(I3
g5
tp4498
a(I0
g7
tp4499
a(I0
g15
tp4500
a(I0
g17
tp4501
a(I6
g19
tp4502
a(I0
g15
tp4503
a(I0
g17
tp4504
a(I0
g19
tp4505
a(I1
g15
tp4506
a(I0
g17
tp4507
a(I0
g19
tp4508
a(I0
g27
tp4509
a(I5
g29
tp4510
a(I0
g31
tp4511
a(I9
g27
tp4512
a(I0
g29
tp4513
a(I0
g31
tp4514
a(I0
g27
tp4515
a(I0
g29
tp4516
a(I0
g31
tp4517
a(I4
g3
tp4518
a(I0
g5
tp4519
a(I0
g7
tp4520
a(I6
g3
tp4521
a(I0
g5
tp4522
a(I0
g7
tp4523
a(I0
g3
tp4524
a(I0
g5
tp4525
a(I0
g7
tp4526
a(I7
g15
tp4527
a(I0
g17
tp4528
a(I0
g19
tp4529
a(I0
g15
tp4530
a(I9
g17
tp4531
a(I0
g19
tp4532
a(I0
g15
tp4533
a(I0
g17
tp4534
a(I0
g19
tp4535
a(I5
g27
tp4536
a(I6
g29
tp4537
a(I0
g31
tp4538
a(I0
g27
tp4539
a(I0
g29
tp4540
a(I0
g31
tp4541
a(I2
g27
tp4542
a(I0
g29
tp4543
a(I0
g31
tp4544
atp4545
a(S'Medium (0)'
p4546
I6
(lp4547
(I1
g3
tp4548
a(I0
g5
tp4549
a(I2
g7
tp4550
a(I0
g3
tp4551
a(I0
g5
tp4552
a(I0
g7
tp4553
a(I0
g3
tp4554
a(I0
g5
tp4555
a(I0
g7
tp4556
a(I0
g15
tp4557
a(I3
g17
tp4558
a(I0
g19
tp4559
a(I9
g15
tp4560
a(I0
g17
tp4561
a(I5
g19
tp4562
a(I0
g15
tp4563
a(I0
g17
tp4564
a(I0
g19
tp4565
a(I0
g27
tp4566
a(I0
g29
tp4567
a(I0
g31
tp4568
a(I0
g27
tp4569
a(I3
g29
tp4570
a(I0
g31
tp4571
a(I0
g27
tp4572
a(I6
g29
tp4573
a(I0
g31
tp4574
a(I0
g3
tp4575
a(I0
g5
tp4576
a(I0
g7
tp4577
a(I0
g3
tp4578
a(I0
g5
tp4579
a(I4
g7
tp4580
a(I6
g3
tp4581
a(I0
g5
tp4582
a(I0
g7
tp4583
a(I2
g15
tp4584
a(I0
g17
tp4585
a(I0
g19
tp4586
a(I0
g15
tp4587
a(I0
g17
tp4588
a(I0
g19
tp4589
a(I0
g15
tp4590
a(I0
g17
tp4591
a(I1
g19
tp4592
a(I0
g27
tp4593
a(I0
g29
tp4594
a(I9
g31
tp4595
a(I7
g27
tp4596
a(I0
g29
tp4597
a(I0
g31
tp4598
a(I0
g27
tp4599
a(I0
g29
tp4600
a(I0
g31
tp4601
a(I0
g3
tp4602
a(I8
g5
tp4603
a(I0
g7
tp4604
a(I0
g3
tp4605
a(I4
g5
tp4606
a(I0
g7
tp4607
a(I0
g3
tp4608
a(I0
g5
tp4609
a(I0
g7
tp4610
a(I0
g15
tp4611
a(I0
g17
tp4612
a(I0
g19
tp4613
a(I5
g15
tp4614
a(I0
g17
tp4615
a(I8
g19
tp4616
a(I0
g15
tp4617
a(I2
g17
tp4618
a(I0
g19
tp4619
a(I0
g27
tp4620
a(I0
g29
tp4621
a(I0
g31
tp4622
a(I0
g27
tp4623
a(I0
g29
tp4624
a(I0
g31
tp4625
a(I4
g27
tp4626
a(I0
g29
tp4627
a(I5
g31
tp4628
atp4629
a(S'Medium (0)'
p4630
I7
(lp4631
(I0
g3
tp4632
a(I0
g5
tp4633
a(I0
g7
tp4634
a(I0
g3
tp4635
a(I8
g5
tp4636
a(I0
g7
tp4637
a(I5
g3
tp4638
a(I0
g5
tp4639
a(I3
g7
tp4640
a(I0
g15
tp4641
a(I0
g17
tp4642
a(I3
g19
tp4643
a(I5
g15
tp4644
a(I0
g17
tp4645
a(I0
g19
tp4646
a(I0
g15
tp4647
a(I0
g17
tp4648
a(I0
g19
tp4649
a(I0
g27
tp4650
a(I1
g29
tp4651
a(I0
g31
tp4652
a(I0
g27
tp4653
a(I0
g29
tp4654
a(I0
g31
tp4655
a(I0
g27
tp4656
a(I4
g29
tp4657
a(I0
g31
tp4658
a(I6
g3
tp4659
a(I3
g5
tp4660
a(I0
g7
tp4661
a(I0
g3
tp4662
a(I0
g5
tp4663
a(I0
g7
tp4664
a(I0
g3
tp4665
a(I0
g5
tp4666
a(I0
g7
tp4667
a(I0
g15
tp4668
a(I0
g17
tp4669
a(I5
g19
tp4670
a(I7
g15
tp4671
a(I0
g17
tp4672
a(I9
g19
tp4673
a(I8
g15
tp4674
a(I0
g17
tp4675
a(I0
g19
tp4676
a(I0
g27
tp4677
a(I0
g29
tp4678
a(I0
g31
tp4679
a(I0
g27
tp4680
a(I0
g29
tp4681
a(I0
g31
tp4682
a(I0
g27
tp4683
a(I5
g29
tp4684
a(I2
g31
tp4685
a(I0
g3
tp4686
a(I6
g5
tp4687
a(I0
g7
tp4688
a(I0
g3
tp4689
a(I0
g5
tp4690
a(I0
g7
tp4691
a(I0
g3
tp4692
a(I7
g5
tp4693
a(I0
g7
tp4694
a(I0
g15
tp4695
a(I0
g17
tp4696
a(I0
g19
tp4697
a(I0
g15
tp4698
a(I0
g17
tp4699
a(I2
g19
tp4700
a(I6
g15
tp4701
a(I0
g17
tp4702
a(I0
g19
tp4703
a(I3
g27
tp4704
a(I0
g29
tp4705
a(I1
g31
tp4706
a(I0
g27
tp4707
a(I9
g29
tp4708
a(I0
g31
tp4709
a(I0
g27
tp4710
a(I0
g29
tp4711
a(I0
g31
tp4712
atp4713
a(S'Medium (0)'
p4714
I8
(lp4715
(I0
g3
tp4716
a(I0
g5
tp4717
a(I0
g7
tp4718
a(I0
g3
tp4719
a(I0
g5
tp4720
a(I0
g7
tp4721
a(I0
g3
tp4722
a(I0
g5
tp4723
a(I0
g7
tp4724
a(I0
g15
tp4725
a(I0
g17
tp4726
a(I6
g19
tp4727
a(I0
g15
tp4728
a(I0
g17
tp4729
a(I7
g19
tp4730
a(I8
g15
tp4731
a(I0
g17
tp4732
a(I0
g19
tp4733
a(I4
g27
tp4734
a(I5
g29
tp4735
a(I0
g31
tp4736
a(I0
g27
tp4737
a(I0
g29
tp4738
a(I0
g31
tp4739
a(I0
g27
tp4740
a(I1
g29
tp4741
a(I0
g31
tp4742
a(I9
g3
tp4743
a(I0
g5
tp4744
a(I0
g7
tp4745
a(I1
g3
tp4746
a(I0
g5
tp4747
a(I0
g7
tp4748
a(I0
g3
tp4749
a(I2
g5
tp4750
a(I0
g7
tp4751
a(I0
g15
tp4752
a(I0
g17
tp4753
a(I4
g19
tp4754
a(I0
g15
tp4755
a(I3
g17
tp4756
a(I0
g19
tp4757
a(I5
g15
tp4758
a(I0
g17
tp4759
a(I0
g19
tp4760
a(I0
g27
tp4761
a(I6
g29
tp4762
a(I0
g31
tp4763
a(I0
g27
tp4764
a(I0
g29
tp4765
a(I5
g31
tp4766
a(I0
g27
tp4767
a(I0
g29
tp4768
a(I9
g31
tp4769
a(I0
g3
tp4770
a(I9
g5
tp4771
a(I0
g7
tp4772
a(I0
g3
tp4773
a(I0
g5
tp4774
a(I0
g7
tp4775
a(I0
g3
tp4776
a(I4
g5
tp4777
a(I7
g7
tp4778
a(I0
g15
tp4779
a(I0
g17
tp4780
a(I3
g19
tp4781
a(I6
g15
tp4782
a(I0
g17
tp4783
a(I0
g19
tp4784
a(I1
g15
tp4785
a(I0
g17
tp4786
a(I0
g19
tp4787
a(I0
g27
tp4788
a(I0
g29
tp4789
a(I0
g31
tp4790
a(I0
g27
tp4791
a(I0
g29
tp4792
a(I0
g31
tp4793
a(I0
g27
tp4794
a(I0
g29
tp4795
a(I0
g31
tp4796
atp4797
a(S'Medium (0)'
p4798
I9
(lp4799
(I0
g3
tp4800
a(I0
g5
tp4801
a(I0
g7
tp4802
a(I0
g3
tp4803
a(I0
g5
tp4804
a(I1
g7
tp4805
a(I0
g3
tp4806
a(I0
g5
tp4807
a(I0
g7
tp4808
a(I8
g15
tp4809
a(I0
g17
tp4810
a(I2
g19
tp4811
a(I7
g15
tp4812
a(I0
g17
tp4813
a(I0
g19
tp4814
a(I0
g15
tp4815
a(I0
g17
tp4816
a(I5
g19
tp4817
a(I3
g27
tp4818
a(I7
g29
tp4819
a(I0
g31
tp4820
a(I0
g27
tp4821
a(I0
g29
tp4822
a(I0
g31
tp4823
a(I0
g27
tp4824
a(I0
g29
tp4825
a(I9
g31
tp4826
a(I1
g3
tp4827
a(I0
g5
tp4828
a(I0
g7
tp4829
a(I2
g3
tp4830
a(I8
g5
tp4831
a(I7
g7
tp4832
a(I0
g3
tp4833
a(I0
g5
tp4834
a(I0
g7
tp4835
a(I0
g15
tp4836
a(I0
g17
tp4837
a(I0
g19
tp4838
a(I0
g15
tp4839
a(I0
g17
tp4840
a(I0
g19
tp4841
a(I0
g15
tp4842
a(I0
g17
tp4843
a(I0
g19
tp4844
a(I0
g27
tp4845
a(I0
g29
tp4846
a(I0
g31
tp4847
a(I9
g27
tp4848
a(I5
g29
tp4849
a(I4
g31
tp4850
a(I0
g27
tp4851
a(I0
g29
tp4852
a(I8
g31
tp4853
a(I6
g3
tp4854
a(I0
g5
tp4855
a(I0
g7
tp4856
a(I0
g3
tp4857
a(I0
g5
tp4858
a(I0
g7
tp4859
a(I0
g3
tp4860
a(I2
g5
tp4861
a(I4
g7
tp4862
a(I4
g15
tp4863
a(I0
g17
tp4864
a(I0
g19
tp4865
a(I0
g15
tp4866
a(I0
g17
tp4867
a(I9
g19
tp4868
a(I5
g15
tp4869
a(I0
g17
tp4870
a(I1
g19
tp4871
a(I0
g27
tp4872
a(I0
g29
tp4873
a(I0
g31
tp4874
a(I1
g27
tp4875
a(I0
g29
tp4876
a(I0
g31
tp4877
a(I0
g27
tp4878
a(I0
g29
tp4879
a(I0
g31
tp4880
atp4881
a(S'Medium (0)'
p4882
I10
(lp4883
(I6
g3
tp4884
a(I0
g5
tp4885
a(I5
g7
tp4886
a(I0
g3
tp4887
a(I0
g5
tp4888
a(I0
g7
tp4889
a(I0
g3
tp4890
a(I0
g5
tp4891
a(I0
g7
tp4892
a(I2
g15
tp4893
a(I0
g17
tp4894
a(I1
g19
tp4895
a(I0
g15
tp4896
a(I0
g17
tp4897
a(I0
g19
tp4898
a(I7
g15
tp4899
a(I0
g17
tp4900
a(I3
g19
tp4901
a(I0
g27
tp4902
a(I0
g29
tp4903
a(I0
g31
tp4904
a(I0
g27
tp4905
a(I8
g29
tp4906
a(I0
g31
tp4907
a(I0
g27
tp4908
a(I5
g29
tp4909
a(I0
g31
tp4910
a(I0
g3
tp4911
a(I0
g5
tp4912
a(I0
g7
tp4913
a(I4
g3
tp4914
a(I5
g5
tp4915
a(I0
g7
tp4916
a(I1
g3
tp4917
a(I0
g5
tp4918
a(I0
g7
tp4919
a(I4
g15
tp4920
a(I0
g17
tp4921
a(I0
g19
tp4922
a(I0
g15
tp4923
a(I0
g17
tp4924
a(I0
g19
tp4925
a(I0
g15
tp4926
a(I0
g17
tp4927
a(I2
g19
tp4928
a(I0
g27
tp4929
a(I0
g29
tp4930
a(I7
g31
tp4931
a(I0
g27
tp4932
a(I2
g29
tp4933
a(I6
g31
tp4934
a(I0
g27
tp4935
a(I0
g29
tp4936
a(I0
g31
tp4937
a(I0
g3
tp4938
a(I6
g5
tp4939
a(I0
g7
tp4940
a(I0
g3
tp4941
a(I7
g5
tp4942
a(I0
g7
tp4943
a(I0
g3
tp4944
a(I0
g5
tp4945
a(I0
g7
tp4946
a(I5
g15
tp4947
a(I0
g17
tp4948
a(I8
g19
tp4949
a(I0
g15
tp4950
a(I0
g17
tp4951
a(I0
g19
tp4952
a(I6
g15
tp4953
a(I0
g17
tp4954
a(I7
g19
tp4955
a(I0
g27
tp4956
a(I0
g29
tp4957
a(I0
g31
tp4958
a(I0
g27
tp4959
a(I0
g29
tp4960
a(I0
g31
tp4961
a(I5
g27
tp4962
a(I0
g29
tp4963
a(I8
g31
tp4964
atp4965
a(S'Medium (0)'
p4966
I11
(lp4967
(I0
g3
tp4968
a(I0
g5
tp4969
a(I0
g7
tp4970
a(I0
g3
tp4971
a(I0
g5
tp4972
a(I0
g7
tp4973
a(I0
g3
tp4974
a(I0
g5
tp4975
a(I0
g7
tp4976
a(I0
g15
tp4977
a(I6
g17
tp4978
a(I0
g19
tp4979
a(I0
g15
tp4980
a(I7
g17
tp4981
a(I5
g19
tp4982
a(I0
g15
tp4983
a(I0
g17
tp4984
a(I0
g19
tp4985
a(I3
g27
tp4986
a(I5
g29
tp4987
a(I0
g31
tp4988
a(I0
g27
tp4989
a(I0
g29
tp4990
a(I0
g31
tp4991
a(I4
g27
tp4992
a(I0
g29
tp4993
a(I0
g31
tp4994
a(I0
g3
tp4995
a(I0
g5
tp4996
a(I5
g7
tp4997
a(I1
g3
tp4998
a(I0
g5
tp4999
a(I0
g7
tp5000
a(I0
g3
tp5001
a(I6
g5
tp5002
a(I0
g7
tp5003
a(I0
g15
tp5004
a(I0
g17
tp5005
a(I4
g19
tp5006
a(I8
g15
tp5007
a(I0
g17
tp5008
a(I7
g19
tp5009
a(I3
g15
tp5010
a(I0
g17
tp5011
a(I0
g19
tp5012
a(I0
g27
tp5013
a(I2
g29
tp5014
a(I0
g31
tp5015
a(I0
g27
tp5016
a(I0
g29
tp5017
a(I9
g31
tp5018
a(I5
g27
tp5019
a(I0
g29
tp5020
a(I0
g31
tp5021
a(I0
g3
tp5022
a(I0
g5
tp5023
a(I9
g7
tp5024
a(I0
g3
tp5025
a(I0
g5
tp5026
a(I0
g7
tp5027
a(I0
g3
tp5028
a(I4
g5
tp5029
a(I7
g7
tp5030
a(I0
g15
tp5031
a(I0
g17
tp5032
a(I0
g19
tp5033
a(I7
g15
tp5034
a(I3
g17
tp5035
a(I0
g19
tp5036
a(I0
g15
tp5037
a(I9
g17
tp5038
a(I0
g19
tp5039
a(I0
g27
tp5040
a(I0
g29
tp5041
a(I0
g31
tp5042
a(I0
g27
tp5043
a(I0
g29
tp5044
a(I0
g31
tp5045
a(I0
g27
tp5046
a(I0
g29
tp5047
a(I0
g31
tp5048
atp5049
a(S'Medium (0)'
p5050
I12
(lp5051
(I0
g3
tp5052
a(I1
g5
tp5053
a(I9
g7
tp5054
a(I2
g3
tp5055
a(I0
g5
tp5056
a(I0
g7
tp5057
a(I4
g3
tp5058
a(I0
g5
tp5059
a(I0
g7
tp5060
a(I3
g15
tp5061
a(I4
g17
tp5062
a(I0
g19
tp5063
a(I0
g15
tp5064
a(I1
g17
tp5065
a(I0
g19
tp5066
a(I0
g15
tp5067
a(I0
g17
tp5068
a(I0
g19
tp5069
a(I0
g27
tp5070
a(I0
g29
tp5071
a(I0
g31
tp5072
a(I0
g27
tp5073
a(I0
g29
tp5074
a(I0
g31
tp5075
a(I0
g27
tp5076
a(I0
g29
tp5077
a(I0
g31
tp5078
a(I0
g3
tp5079
a(I0
g5
tp5080
a(I0
g7
tp5081
a(I3
g3
tp5082
a(I0
g5
tp5083
a(I0
g7
tp5084
a(I0
g3
tp5085
a(I0
g5
tp5086
a(I5
g7
tp5087
a(I0
g15
tp5088
a(I3
g17
tp5089
a(I7
g19
tp5090
a(I0
g15
tp5091
a(I0
g17
tp5092
a(I0
g19
tp5093
a(I2
g15
tp5094
a(I9
g17
tp5095
a(I0
g19
tp5096
a(I9
g27
tp5097
a(I0
g29
tp5098
a(I0
g31
tp5099
a(I0
g27
tp5100
a(I0
g29
tp5101
a(I1
g31
tp5102
a(I0
g27
tp5103
a(I0
g29
tp5104
a(I0
g31
tp5105
a(I0
g3
tp5106
a(I0
g5
tp5107
a(I0
g7
tp5108
a(I0
g3
tp5109
a(I0
g5
tp5110
a(I0
g7
tp5111
a(I0
g3
tp5112
a(I0
g5
tp5113
a(I0
g7
tp5114
a(I0
g15
tp5115
a(I0
g17
tp5116
a(I0
g19
tp5117
a(I0
g15
tp5118
a(I8
g17
tp5119
a(I0
g19
tp5120
a(I0
g15
tp5121
a(I7
g17
tp5122
a(I4
g19
tp5123
a(I0
g27
tp5124
a(I0
g29
tp5125
a(I6
g31
tp5126
a(I0
g27
tp5127
a(I0
g29
tp5128
a(I2
g31
tp5129
a(I8
g27
tp5130
a(I1
g29
tp5131
a(I0
g31
tp5132
atp5133
a(S'Medium (0)'
p5134
I13
(lp5135
(I0
g3
tp5136
a(I4
g5
tp5137
a(I0
g7
tp5138
a(I8
g3
tp5139
a(I9
g5
tp5140
a(I0
g7
tp5141
a(I0
g3
tp5142
a(I1
g5
tp5143
a(I5
g7
tp5144
a(I0
g15
tp5145
a(I0
g17
tp5146
a(I0
g19
tp5147
a(I0
g15
tp5148
a(I0
g17
tp5149
a(I0
g19
tp5150
a(I0
g15
tp5151
a(I0
g17
tp5152
a(I0
g19
tp5153
a(I7
g27
tp5154
a(I0
g29
tp5155
a(I0
g31
tp5156
a(I0
g27
tp5157
a(I0
g29
tp5158
a(I0
g31
tp5159
a(I0
g27
tp5160
a(I0
g29
tp5161
a(I0
g31
tp5162
a(I0
g3
tp5163
a(I0
g5
tp5164
a(I0
g7
tp5165
a(I0
g3
tp5166
a(I0
g5
tp5167
a(I7
g7
tp5168
a(I0
g3
tp5169
a(I5
g5
tp5170
a(I3
g7
tp5171
a(I5
g15
tp5172
a(I0
g17
tp5173
a(I0
g19
tp5174
a(I0
g15
tp5175
a(I0
g17
tp5176
a(I0
g19
tp5177
a(I0
g15
tp5178
a(I0
g17
tp5179
a(I2
g19
tp5180
a(I9
g27
tp5181
a(I2
g29
tp5182
a(I0
g31
tp5183
a(I6
g27
tp5184
a(I0
g29
tp5185
a(I0
g31
tp5186
a(I0
g27
tp5187
a(I0
g29
tp5188
a(I0
g31
tp5189
a(I0
g3
tp5190
a(I0
g5
tp5191
a(I0
g7
tp5192
a(I0
g3
tp5193
a(I0
g5
tp5194
a(I0
g7
tp5195
a(I0
g3
tp5196
a(I0
g5
tp5197
a(I1
g7
tp5198
a(I0
g15
tp5199
a(I0
g17
tp5200
a(I0
g19
tp5201
a(I0
g15
tp5202
a(I0
g17
tp5203
a(I0
g19
tp5204
a(I0
g15
tp5205
a(I0
g17
tp5206
a(I0
g19
tp5207
a(I4
g27
tp5208
a(I9
g29
tp5209
a(I0
g31
tp5210
a(I0
g27
tp5211
a(I5
g29
tp5212
a(I2
g31
tp5213
a(I0
g27
tp5214
a(I8
g29
tp5215
a(I0
g31
tp5216
atp5217
a(S'Medium (0)'
p5218
I14
(lp5219
(I0
g3
tp5220
a(I8
g5
tp5221
a(I0
g7
tp5222
a(I7
g3
tp5223
a(I0
g5
tp5224
a(I0
g7
tp5225
a(I0
g3
tp5226
a(I0
g5
tp5227
a(I0
g7
tp5228
a(I0
g15
tp5229
a(I0
g17
tp5230
a(I0
g19
tp5231
a(I0
g15
tp5232
a(I0
g17
tp5233
a(I8
g19
tp5234
a(I5
g15
tp5235
a(I0
g17
tp5236
a(I0
g19
tp5237
a(I0
g27
tp5238
a(I0
g29
tp5239
a(I9
g31
tp5240
a(I3
g27
tp5241
a(I0
g29
tp5242
a(I5
g31
tp5243
a(I0
g27
tp5244
a(I0
g29
tp5245
a(I0
g31
tp5246
a(I0
g3
tp5247
a(I0
g5
tp5248
a(I6
g7
tp5249
a(I0
g3
tp5250
a(I5
g5
tp5251
a(I2
g7
tp5252
a(I1
g3
tp5253
a(I0
g5
tp5254
a(I0
g7
tp5255
a(I0
g15
tp5256
a(I0
g17
tp5257
a(I0
g19
tp5258
a(I0
g15
tp5259
a(I0
g17
tp5260
a(I0
g19
tp5261
a(I0
g15
tp5262
a(I0
g17
tp5263
a(I0
g19
tp5264
a(I0
g27
tp5265
a(I0
g29
tp5266
a(I4
g31
tp5267
a(I9
g27
tp5268
a(I3
g29
tp5269
a(I0
g31
tp5270
a(I2
g27
tp5271
a(I0
g29
tp5272
a(I0
g31
tp5273
a(I0
g3
tp5274
a(I0
g5
tp5275
a(I0
g7
tp5276
a(I6
g3
tp5277
a(I0
g5
tp5278
a(I4
g7
tp5279
a(I3
g3
tp5280
a(I0
g5
tp5281
a(I0
g7
tp5282
a(I0
g15
tp5283
a(I0
g17
tp5284
a(I2
g19
tp5285
a(I8
g15
tp5286
a(I0
g17
tp5287
a(I0
g19
tp5288
a(I0
g15
tp5289
a(I0
g17
tp5290
a(I0
g19
tp5291
a(I0
g27
tp5292
a(I0
g29
tp5293
a(I0
g31
tp5294
a(I0
g27
tp5295
a(I0
g29
tp5296
a(I3
g31
tp5297
a(I0
g27
tp5298
a(I8
g29
tp5299
a(I0
g31
tp5300
atp5301
a(S'Medium (0)'
p5302
I15
(lp5303
(I6
g3
tp5304
a(I0
g5
tp5305
a(I0
g7
tp5306
a(I0
g3
tp5307
a(I0
g5
tp5308
a(I1
g7
tp5309
a(I0
g3
tp5310
a(I0
g5
tp5311
a(I0
g7
tp5312
a(I0
g15
tp5313
a(I0
g17
tp5314
a(I0
g19
tp5315
a(I0
g15
tp5316
a(I2
g17
tp5317
a(I5
g19
tp5318
a(I6
g15
tp5319
a(I0
g17
tp5320
a(I0
g19
tp5321
a(I0
g27
tp5322
a(I4
g29
tp5323
a(I0
g31
tp5324
a(I0
g27
tp5325
a(I9
g29
tp5326
a(I0
g31
tp5327
a(I0
g27
tp5328
a(I0
g29
tp5329
a(I0
g31
tp5330
a(I8
g3
tp5331
a(I0
g5
tp5332
a(I0
g7
tp5333
a(I0
g3
tp5334
a(I0
g5
tp5335
a(I0
g7
tp5336
a(I3
g3
tp5337
a(I0
g5
tp5338
a(I0
g7
tp5339
a(I0
g15
tp5340
a(I6
g17
tp5341
a(I0
g19
tp5342
a(I0
g15
tp5343
a(I0
g17
tp5344
a(I0
g19
tp5345
a(I0
g15
tp5346
a(I5
g17
tp5347
a(I0
g19
tp5348
a(I0
g27
tp5349
a(I0
g29
tp5350
a(I2
g31
tp5351
a(I0
g27
tp5352
a(I0
g29
tp5353
a(I0
g31
tp5354
a(I0
g27
tp5355
a(I0
g29
tp5356
a(I7
g31
tp5357
a(I0
g3
tp5358
a(I0
g5
tp5359
a(I0
g7
tp5360
a(I0
g3
tp5361
a(I6
g5
tp5362
a(I0
g7
tp5363
a(I0
g3
tp5364
a(I7
g5
tp5365
a(I0
g7
tp5366
a(I0
g15
tp5367
a(I0
g17
tp5368
a(I6
g19
tp5369
a(I5
g15
tp5370
a(I7
g17
tp5371
a(I0
g19
tp5372
a(I0
g15
tp5373
a(I0
g17
tp5374
a(I0
g19
tp5375
a(I0
g27
tp5376
a(I0
g29
tp5377
a(I0
g31
tp5378
a(I3
g27
tp5379
a(I0
g29
tp5380
a(I0
g31
tp5381
a(I0
g27
tp5382
a(I0
g29
tp5383
a(I1
g31
tp5384
atp5385
a(S'Hard (0)'
p5386
I0
(lp5387
(I7
g3
tp5388
a(I2
g5
tp5389
a(I0
g7
tp5390
a(I0
g3
tp5391
a(I0
g5
tp5392
a(I0
g7
tp5393
a(I8
g3
tp5394
a(I0
g5
tp5395
a(I0
g7
tp5396
a(I0
g15
tp5397
a(I0
g17
tp5398
a(I0
g19
tp5399
a(I0
g15
tp5400
a(I7
g17
tp5401
a(I0
g19
tp5402
a(I0
g15
tp5403
a(I0
g17
tp5404
a(I4
g19
tp5405
a(I3
g27
tp5406
a(I0
g29
tp5407
a(I0
g31
tp5408
a(I0
g27
tp5409
a(I0
g29
tp5410
a(I4
g31
tp5411
a(I0
g27
tp5412
a(I0
g29
tp5413
a(I0
g31
tp5414
a(I6
g3
tp5415
a(I0
g5
tp5416
a(I0
g7
tp5417
a(I0
g3
tp5418
a(I0
g5
tp5419
a(I0
g7
tp5420
a(I0
g3
tp5421
a(I0
g5
tp5422
a(I0
g7
tp5423
a(I0
g15
tp5424
a(I8
g17
tp5425
a(I2
g19
tp5426
a(I0
g15
tp5427
a(I0
g17
tp5428
a(I0
g19
tp5429
a(I1
g15
tp5430
a(I3
g17
tp5431
a(I0
g19
tp5432
a(I0
g27
tp5433
a(I0
g29
tp5434
a(I0
g31
tp5435
a(I0
g27
tp5436
a(I0
g29
tp5437
a(I0
g31
tp5438
a(I0
g27
tp5439
a(I0
g29
tp5440
a(I2
g31
tp5441
a(I0
g3
tp5442
a(I0
g5
tp5443
a(I0
g7
tp5444
a(I9
g3
tp5445
a(I0
g5
tp5446
a(I0
g7
tp5447
a(I0
g3
tp5448
a(I0
g5
tp5449
a(I6
g7
tp5450
a(I8
g15
tp5451
a(I0
g17
tp5452
a(I0
g19
tp5453
a(I0
g15
tp5454
a(I2
g17
tp5455
a(I0
g19
tp5456
a(I0
g15
tp5457
a(I0
g17
tp5458
a(I0
g19
tp5459
a(I0
g27
tp5460
a(I0
g29
tp5461
a(I5
g31
tp5462
a(I0
g27
tp5463
a(I0
g29
tp5464
a(I0
g31
tp5465
a(I0
g27
tp5466
a(I7
g29
tp5467
a(I9
g31
tp5468
atp5469
a(S'Hard (0)'
p5470
I1
(lp5471
(I5
g3
tp5472
a(I0
g5
tp5473
a(I0
g7
tp5474
a(I0
g3
tp5475
a(I9
g5
tp5476
a(I0
g7
tp5477
a(I0
g3
tp5478
a(I0
g5
tp5479
a(I0
g7
tp5480
a(I0
g15
tp5481
a(I0
g17
tp5482
a(I9
g19
tp5483
a(I1
g15
tp5484
a(I0
g17
tp5485
a(I0
g19
tp5486
a(I0
g15
tp5487
a(I7
g17
tp5488
a(I0
g19
tp5489
a(I0
g27
tp5490
a(I0
g29
tp5491
a(I6
g31
tp5492
a(I0
g27
tp5493
a(I3
g29
tp5494
a(I0
g31
tp5495
a(I2
g27
tp5496
a(I0
g29
tp5497
a(I0
g31
tp5498
a(I0
g3
tp5499
a(I0
g5
tp5500
a(I0
g7
tp5501
a(I0
g3
tp5502
a(I0
g5
tp5503
a(I0
g7
tp5504
a(I0
g3
tp5505
a(I4
g5
tp5506
a(I0
g7
tp5507
a(I0
g15
tp5508
a(I3
g17
tp5509
a(I7
g19
tp5510
a(I0
g15
tp5511
a(I0
g17
tp5512
a(I0
g19
tp5513
a(I5
g15
tp5514
a(I9
g17
tp5515
a(I0
g19
tp5516
a(I0
g27
tp5517
a(I9
g29
tp5518
a(I0
g31
tp5519
a(I0
g27
tp5520
a(I0
g29
tp5521
a(I0
g31
tp5522
a(I0
g27
tp5523
a(I0
g29
tp5524
a(I0
g31
tp5525
a(I0
g3
tp5526
a(I0
g5
tp5527
a(I2
g7
tp5528
a(I0
g3
tp5529
a(I8
g5
tp5530
a(I0
g7
tp5531
a(I1
g3
tp5532
a(I0
g5
tp5533
a(I0
g7
tp5534
a(I0
g15
tp5535
a(I1
g17
tp5536
a(I0
g19
tp5537
a(I0
g15
tp5538
a(I0
g17
tp5539
a(I6
g19
tp5540
a(I8
g15
tp5541
a(I0
g17
tp5542
a(I0
g19
tp5543
a(I0
g27
tp5544
a(I0
g29
tp5545
a(I0
g31
tp5546
a(I0
g27
tp5547
a(I1
g29
tp5548
a(I0
g31
tp5549
a(I0
g27
tp5550
a(I0
g29
tp5551
a(I7
g31
tp5552
atp5553
a(S'Hard (0)'
p5554
I2
(lp5555
(I0
g3
tp5556
a(I0
g5
tp5557
a(I0
g7
tp5558
a(I0
g3
tp5559
a(I7
g5
tp5560
a(I1
g7
tp5561
a(I0
g3
tp5562
a(I0
g5
tp5563
a(I0
g7
tp5564
a(I0
g15
tp5565
a(I0
g17
tp5566
a(I0
g19
tp5567
a(I3
g15
tp5568
a(I0
g17
tp5569
a(I0
g19
tp5570
a(I0
g15
tp5571
a(I9
g17
tp5572
a(I0
g19
tp5573
a(I6
g27
tp5574
a(I1
g29
tp5575
a(I0
g31
tp5576
a(I9
g27
tp5577
a(I0
g29
tp5578
a(I0
g31
tp5579
a(I0
g27
tp5580
a(I0
g29
tp5581
a(I0
g31
tp5582
a(I8
g3
tp5583
a(I6
g5
tp5584
a(I0
g7
tp5585
a(I0
g3
tp5586
a(I0
g5
tp5587
a(I0
g7
tp5588
a(I0
g3
tp5589
a(I0
g5
tp5590
a(I0
g7
tp5591
a(I0
g15
tp5592
a(I2
g17
tp5593
a(I0
g19
tp5594
a(I8
g15
tp5595
a(I0
g17
tp5596
a(I9
g19
tp5597
a(I0
g15
tp5598
a(I6
g17
tp5599
a(I0
g19
tp5600
a(I0
g27
tp5601
a(I0
g29
tp5602
a(I0
g31
tp5603
a(I0
g27
tp5604
a(I0
g29
tp5605
a(I0
g31
tp5606
a(I0
g27
tp5607
a(I2
g29
tp5608
a(I9
g31
tp5609
a(I0
g3
tp5610
a(I0
g5
tp5611
a(I0
g7
tp5612
a(I0
g3
tp5613
a(I0
g5
tp5614
a(I7
g7
tp5615
a(I0
g3
tp5616
a(I1
g5
tp5617
a(I4
g7
tp5618
a(I0
g15
tp5619
a(I3
g17
tp5620
a(I0
g19
tp5621
a(I0
g15
tp5622
a(I0
g17
tp5623
a(I5
g19
tp5624
a(I0
g15
tp5625
a(I0
g17
tp5626
a(I0
g19
tp5627
a(I0
g27
tp5628
a(I0
g29
tp5629
a(I0
g31
tp5630
a(I4
g27
tp5631
a(I9
g29
tp5632
a(I0
g31
tp5633
a(I0
g27
tp5634
a(I0
g29
tp5635
a(I0
g31
tp5636
atp5637
a(S'Hard (0)'
p5638
I3
(lp5639
(I0
g3
tp5640
a(I0
g5
tp5641
a(I0
g7
tp5642
a(I0
g3
tp5643
a(I0
g5
tp5644
a(I6
g7
tp5645
a(I8
g3
tp5646
a(I5
g5
tp5647
a(I0
g7
tp5648
a(I0
g15
tp5649
a(I3
g17
tp5650
a(I0
g19
tp5651
a(I0
g15
tp5652
a(I0
g17
tp5653
a(I0
g19
tp5654
a(I0
g15
tp5655
a(I9
g17
tp5656
a(I6
g19
tp5657
a(I0
g27
tp5658
a(I0
g29
tp5659
a(I0
g31
tp5660
a(I8
g27
tp5661
a(I0
g29
tp5662
a(I0
g31
tp5663
a(I7
g27
tp5664
a(I0
g29
tp5665
a(I0
g31
tp5666
a(I0
g3
tp5667
a(I0
g5
tp5668
a(I0
g7
tp5669
a(I0
g3
tp5670
a(I0
g5
tp5671
a(I8
g7
tp5672
a(I0
g3
tp5673
a(I0
g5
tp5674
a(I0
g7
tp5675
a(I9
g15
tp5676
a(I0
g17
tp5677
a(I0
g19
tp5678
a(I0
g15
tp5679
a(I5
g17
tp5680
a(I0
g19
tp5681
a(I0
g15
tp5682
a(I0
g17
tp5683
a(I7
g19
tp5684
a(I0
g27
tp5685
a(I0
g29
tp5686
a(I0
g31
tp5687
a(I1
g27
tp5688
a(I0
g29
tp5689
a(I0
g31
tp5690
a(I0
g27
tp5691
a(I0
g29
tp5692
a(I0
g31
tp5693
a(I0
g3
tp5694
a(I0
g5
tp5695
a(I3
g7
tp5696
a(I0
g3
tp5697
a(I0
g5
tp5698
a(I9
g7
tp5699
a(I0
g3
tp5700
a(I0
g5
tp5701
a(I0
g7
tp5702
a(I1
g15
tp5703
a(I4
g17
tp5704
a(I0
g19
tp5705
a(I0
g15
tp5706
a(I0
g17
tp5707
a(I0
g19
tp5708
a(I0
g15
tp5709
a(I8
g17
tp5710
a(I0
g19
tp5711
a(I0
g27
tp5712
a(I7
g29
tp5713
a(I6
g31
tp5714
a(I2
g27
tp5715
a(I0
g29
tp5716
a(I0
g31
tp5717
a(I0
g27
tp5718
a(I0
g29
tp5719
a(I0
g31
tp5720
atp5721
a(S'Hard (0)'
p5722
I4
(lp5723
(I0
g3
tp5724
a(I6
g5
tp5725
a(I0
g7
tp5726
a(I0
g3
tp5727
a(I0
g5
tp5728
a(I4
g7
tp5729
a(I8
g3
tp5730
a(I0
g5
tp5731
a(I0
g7
tp5732
a(I0
g15
tp5733
a(I0
g17
tp5734
a(I9
g19
tp5735
a(I0
g15
tp5736
a(I5
g17
tp5737
a(I0
g19
tp5738
a(I0
g15
tp5739
a(I0
g17
tp5740
a(I0
g19
tp5741
a(I1
g27
tp5742
a(I0
g29
tp5743
a(I0
g31
tp5744
a(I3
g27
tp5745
a(I0
g29
tp5746
a(I0
g31
tp5747
a(I0
g27
tp5748
a(I0
g29
tp5749
a(I9
g31
tp5750
a(I0
g3
tp5751
a(I0
g5
tp5752
a(I0
g7
tp5753
a(I0
g3
tp5754
a(I2
g5
tp5755
a(I9
g7
tp5756
a(I6
g3
tp5757
a(I0
g5
tp5758
a(I0
g7
tp5759
a(I0
g15
tp5760
a(I0
g17
tp5761
a(I0
g19
tp5762
a(I8
g15
tp5763
a(I0
g17
tp5764
a(I7
g19
tp5765
a(I0
g15
tp5766
a(I0
g17
tp5767
a(I0
g19
tp5768
a(I0
g27
tp5769
a(I0
g29
tp5770
a(I8
g31
tp5771
a(I6
g27
tp5772
a(I3
g29
tp5773
a(I0
g31
tp5774
a(I0
g27
tp5775
a(I0
g29
tp5776
a(I0
g31
tp5777
a(I7
g3
tp5778
a(I0
g5
tp5779
a(I0
g7
tp5780
a(I0
g3
tp5781
a(I0
g5
tp5782
a(I1
g7
tp5783
a(I0
g3
tp5784
a(I0
g5
tp5785
a(I8
g7
tp5786
a(I0
g15
tp5787
a(I0
g17
tp5788
a(I0
g19
tp5789
a(I0
g15
tp5790
a(I7
g17
tp5791
a(I0
g19
tp5792
a(I1
g15
tp5793
a(I0
g17
tp5794
a(I0
g19
tp5795
a(I0
g27
tp5796
a(I0
g29
tp5797
a(I1
g31
tp5798
a(I5
g27
tp5799
a(I0
g29
tp5800
a(I0
g31
tp5801
a(I0
g27
tp5802
a(I9
g29
tp5803
a(I0
g31
tp5804
atp5805
a(S'Hard (0)'
p5806
I5
(lp5807
(I5
g3
tp5808
a(I0
g5
tp5809
a(I0
g7
tp5810
a(I0
g3
tp5811
a(I0
g5
tp5812
a(I9
g7
tp5813
a(I0
g3
tp5814
a(I0
g5
tp5815
a(I0
g7
tp5816
a(I0
g15
tp5817
a(I0
g17
tp5818
a(I0
g19
tp5819
a(I0
g15
tp5820
a(I0
g17
tp5821
a(I5
g19
tp5822
a(I0
g15
tp5823
a(I0
g17
tp5824
a(I9
g19
tp5825
a(I0
g27
tp5826
a(I0
g29
tp5827
a(I7
g31
tp5828
a(I0
g27
tp5829
a(I0
g29
tp5830
a(I0
g31
tp5831
a(I6
g27
tp5832
a(I0
g29
tp5833
a(I0
g31
tp5834
a(I0
g3
tp5835
a(I0
g5
tp5836
a(I0
g7
tp5837
a(I0
g3
tp5838
a(I0
g5
tp5839
a(I0
g7
tp5840
a(I0
g3
tp5841
a(I4
g5
tp5842
a(I3
g7
tp5843
a(I0
g15
tp5844
a(I9
g17
tp5845
a(I0
g19
tp5846
a(I0
g15
tp5847
a(I1
g17
tp5848
a(I0
g19
tp5849
a(I0
g15
tp5850
a(I7
g17
tp5851
a(I0
g19
tp5852
a(I8
g27
tp5853
a(I2
g29
tp5854
a(I0
g31
tp5855
a(I0
g27
tp5856
a(I0
g29
tp5857
a(I0
g31
tp5858
a(I0
g27
tp5859
a(I0
g29
tp5860
a(I0
g31
tp5861
a(I0
g3
tp5862
a(I0
g5
tp5863
a(I1
g7
tp5864
a(I0
g3
tp5865
a(I0
g5
tp5866
a(I0
g7
tp5867
a(I3
g3
tp5868
a(I0
g5
tp5869
a(I0
g7
tp5870
a(I3
g15
tp5871
a(I0
g17
tp5872
a(I0
g19
tp5873
a(I8
g15
tp5874
a(I0
g17
tp5875
a(I0
g19
tp5876
a(I0
g15
tp5877
a(I0
g17
tp5878
a(I0
g19
tp5879
a(I0
g27
tp5880
a(I0
g29
tp5881
a(I0
g31
tp5882
a(I4
g27
tp5883
a(I0
g29
tp5884
a(I0
g31
tp5885
a(I0
g27
tp5886
a(I0
g29
tp5887
a(I5
g31
tp5888
atp5889
a(S'Hard (0)'
p5890
I6
(lp5891
(I0
g3
tp5892
a(I4
g5
tp5893
a(I0
g7
tp5894
a(I0
g3
tp5895
a(I5
g5
tp5896
a(I0
g7
tp5897
a(I0
g3
tp5898
a(I0
g5
tp5899
a(I0
g7
tp5900
a(I0
g15
tp5901
a(I0
g17
tp5902
a(I0
g19
tp5903
a(I0
g15
tp5904
a(I0
g17
tp5905
a(I0
g19
tp5906
a(I0
g15
tp5907
a(I0
g17
tp5908
a(I0
g19
tp5909
a(I5
g27
tp5910
a(I7
g29
tp5911
a(I0
g31
tp5912
a(I0
g27
tp5913
a(I0
g29
tp5914
a(I9
g31
tp5915
a(I0
g27
tp5916
a(I0
g29
tp5917
a(I0
g31
tp5918
a(I0
g3
tp5919
a(I0
g5
tp5920
a(I3
g7
tp5921
a(I0
g3
tp5922
a(I9
g5
tp5923
a(I1
g7
tp5924
a(I0
g3
tp5925
a(I0
g5
tp5926
a(I5
g7
tp5927
a(I0
g15
tp5928
a(I9
g17
tp5929
a(I1
g19
tp5930
a(I0
g15
tp5931
a(I0
g17
tp5932
a(I0
g19
tp5933
a(I4
g15
tp5934
a(I7
g17
tp5935
a(I0
g19
tp5936
a(I2
g27
tp5937
a(I0
g29
tp5938
a(I0
g31
tp5939
a(I6
g27
tp5940
a(I8
g29
tp5941
a(I0
g31
tp5942
a(I3
g27
tp5943
a(I0
g29
tp5944
a(I0
g31
tp5945
a(I0
g3
tp5946
a(I0
g5
tp5947
a(I0
g7
tp5948
a(I3
g3
tp5949
a(I0
g5
tp5950
a(I0
g7
tp5951
a(I0
g3
tp5952
a(I2
g5
tp5953
a(I4
g7
tp5954
a(I0
g15
tp5955
a(I0
g17
tp5956
a(I0
g19
tp5957
a(I0
g15
tp5958
a(I0
g17
tp5959
a(I0
g19
tp5960
a(I0
g15
tp5961
a(I0
g17
tp5962
a(I0
g19
tp5963
a(I0
g27
tp5964
a(I0
g29
tp5965
a(I0
g31
tp5966
a(I0
g27
tp5967
a(I1
g29
tp5968
a(I0
g31
tp5969
a(I0
g27
tp5970
a(I6
g29
tp5971
a(I0
g31
tp5972
atp5973
a(S'Hard (0)'
p5974
I7
(lp5975
(I8
g3
tp5976
a(I0
g5
tp5977
a(I0
g7
tp5978
a(I0
g3
tp5979
a(I0
g5
tp5980
a(I0
g7
tp5981
a(I0
g3
tp5982
a(I0
g5
tp5983
a(I1
g7
tp5984
a(I0
g15
tp5985
a(I1
g17
tp5986
a(I0
g19
tp5987
a(I3
g15
tp5988
a(I0
g17
tp5989
a(I0
g19
tp5990
a(I0
g15
tp5991
a(I6
g17
tp5992
a(I0
g19
tp5993
a(I5
g27
tp5994
a(I0
g29
tp5995
a(I0
g31
tp5996
a(I0
g27
tp5997
a(I2
g29
tp5998
a(I0
g31
tp5999
a(I9
g27
tp6000
a(I0
g29
tp6001
a(I0
g31
tp6002
a(I0
g3
tp6003
a(I0
g5
tp6004
a(I0
g7
tp6005
a(I1
g3
tp6006
a(I0
g5
tp6007
a(I9
g7
tp6008
a(I0
g3
tp6009
a(I4
g5
tp6010
a(I0
g7
tp6011
a(I0
g15
tp6012
a(I0
g17
tp6013
a(I0
g19
tp6014
a(I0
g15
tp6015
a(I0
g17
tp6016
a(I0
g19
tp6017
a(I0
g15
tp6018
a(I0
g17
tp6019
a(I0
g19
tp6020
a(I0
g27
tp6021
a(I9
g29
tp6022
a(I0
g31
tp6023
a(I4
g27
tp6024
a(I0
g29
tp6025
a(I5
g31
tp6026
a(I0
g27
tp6027
a(I0
g29
tp6028
a(I0
g31
tp6029
a(I0
g3
tp6030
a(I0
g5
tp6031
a(I3
g7
tp6032
a(I0
g3
tp6033
a(I1
g5
tp6034
a(I0
g7
tp6035
a(I0
g3
tp6036
a(I0
g5
tp6037
a(I4
g7
tp6038
a(I0
g15
tp6039
a(I2
g17
tp6040
a(I0
g19
tp6041
a(I0
g15
tp6042
a(I0
g17
tp6043
a(I3
g19
tp6044
a(I0
g15
tp6045
a(I9
g17
tp6046
a(I0
g19
tp6047
a(I6
g27
tp6048
a(I0
g29
tp6049
a(I0
g31
tp6050
a(I0
g27
tp6051
a(I0
g29
tp6052
a(I0
g31
tp6053
a(I0
g27
tp6054
a(I0
g29
tp6055
a(I7
g31
tp6056
atp6057
a(S'Hard (0)'
p6058
I8
(lp6059
(I0
g3
tp6060
a(I4
g5
tp6061
a(I0
g7
tp6062
a(I0
g3
tp6063
a(I0
g5
tp6064
a(I0
g7
tp6065
a(I0
g3
tp6066
a(I0
g5
tp6067
a(I0
g7
tp6068
a(I0
g15
tp6069
a(I5
g17
tp6070
a(I0
g19
tp6071
a(I0
g15
tp6072
a(I6
g17
tp6073
a(I0
g19
tp6074
a(I0
g15
tp6075
a(I0
g17
tp6076
a(I0
g19
tp6077
a(I0
g27
tp6078
a(I8
g29
tp6079
a(I1
g31
tp6080
a(I5
g27
tp6081
a(I0
g29
tp6082
a(I0
g31
tp6083
a(I0
g27
tp6084
a(I0
g29
tp6085
a(I0
g31
tp6086
a(I0
g3
tp6087
a(I0
g5
tp6088
a(I6
g7
tp6089
a(I0
g3
tp6090
a(I0
g5
tp6091
a(I0
g7
tp6092
a(I0
g3
tp6093
a(I1
g5
tp6094
a(I9
g7
tp6095
a(I0
g15
tp6096
a(I0
g17
tp6097
a(I0
g19
tp6098
a(I1
g15
tp6099
a(I0
g17
tp6100
a(I2
g19
tp6101
a(I0
g15
tp6102
a(I0
g17
tp6103
a(I0
g19
tp6104
a(I2
g27
tp6105
a(I1
g29
tp6106
a(I0
g31
tp6107
a(I0
g27
tp6108
a(I0
g29
tp6109
a(I0
g31
tp6110
a(I8
g27
tp6111
a(I0
g29
tp6112
a(I0
g31
tp6113
a(I0
g3
tp6114
a(I0
g5
tp6115
a(I0
g7
tp6116
a(I0
g3
tp6117
a(I0
g5
tp6118
a(I4
g7
tp6119
a(I5
g3
tp6120
a(I7
g5
tp6121
a(I0
g7
tp6122
a(I0
g15
tp6123
a(I0
g17
tp6124
a(I0
g19
tp6125
a(I0
g15
tp6126
a(I1
g17
tp6127
a(I0
g19
tp6128
a(I0
g15
tp6129
a(I4
g17
tp6130
a(I0
g19
tp6131
a(I0
g27
tp6132
a(I0
g29
tp6133
a(I0
g31
tp6134
a(I0
g27
tp6135
a(I0
g29
tp6136
a(I0
g31
tp6137
a(I0
g27
tp6138
a(I6
g29
tp6139
a(I0
g31
tp6140
atp6141
a(S'Hard (0)'
p6142
I9
(lp6143
(I0
g3
tp6144
a(I7
g5
tp6145
a(I0
g7
tp6146
a(I0
g3
tp6147
a(I0
g5
tp6148
a(I0
g7
tp6149
a(I6
g3
tp6150
a(I0
g5
tp6151
a(I2
g7
tp6152
a(I6
g15
tp6153
a(I5
g17
tp6154
a(I0
g19
tp6155
a(I2
g15
tp6156
a(I0
g17
tp6157
a(I0
g19
tp6158
a(I0
g15
tp6159
a(I0
g17
tp6160
a(I0
g19
tp6161
a(I0
g27
tp6162
a(I9
g29
tp6163
a(I0
g31
tp6164
a(I6
g27
tp6165
a(I0
g29
tp6166
a(I0
g31
tp6167
a(I0
g27
tp6168
a(I0
g29
tp6169
a(I0
g31
tp6170
a(I4
g3
tp6171
a(I0
g5
tp6172
a(I0
g7
tp6173
a(I7
g3
tp6174
a(I0
g5
tp6175
a(I0
g7
tp6176
a(I0
g3
tp6177
a(I0
g5
tp6178
a(I0
g7
tp6179
a(I0
g15
tp6180
a(I8
g17
tp6181
a(I0
g19
tp6182
a(I0
g15
tp6183
a(I0
g17
tp6184
a(I0
g19
tp6185
a(I0
g15
tp6186
a(I2
g17
tp6187
a(I0
g19
tp6188
a(I0
g27
tp6189
a(I0
g29
tp6190
a(I0
g31
tp6191
a(I0
g27
tp6192
a(I0
g29
tp6193
a(I5
g31
tp6194
a(I0
g27
tp6195
a(I0
g29
tp6196
a(I4
g31
tp6197
a(I0
g3
tp6198
a(I0
g5
tp6199
a(I0
g7
tp6200
a(I0
g3
tp6201
a(I0
g5
tp6202
a(I1
g7
tp6203
a(I0
g3
tp6204
a(I6
g5
tp6205
a(I0
g7
tp6206
a(I0
g15
tp6207
a(I0
g17
tp6208
a(I0
g19
tp6209
a(I0
g15
tp6210
a(I0
g17
tp6211
a(I2
g19
tp6212
a(I0
g15
tp6213
a(I9
g17
tp6214
a(I5
g19
tp6215
a(I2
g27
tp6216
a(I0
g29
tp6217
a(I7
g31
tp6218
a(I0
g27
tp6219
a(I0
g29
tp6220
a(I0
g31
tp6221
a(I0
g27
tp6222
a(I1
g29
tp6223
a(I0
g31
tp6224
atp6225
a(S'Hard (0)'
p6226
I10
(lp6227
(I5
g3
tp6228
a(I0
g5
tp6229
a(I0
g7
tp6230
a(I0
g3
tp6231
a(I0
g5
tp6232
a(I0
g7
tp6233
a(I0
g3
tp6234
a(I0
g5
tp6235
a(I3
g7
tp6236
a(I0
g15
tp6237
a(I0
g17
tp6238
a(I0
g19
tp6239
a(I8
g15
tp6240
a(I0
g17
tp6241
a(I0
g19
tp6242
a(I0
g15
tp6243
a(I6
g17
tp6244
a(I0
g19
tp6245
a(I0
g27
tp6246
a(I0
g29
tp6247
a(I0
g31
tp6248
a(I0
g27
tp6249
a(I5
g29
tp6250
a(I6
g31
tp6251
a(I0
g27
tp6252
a(I7
g29
tp6253
a(I0
g31
tp6254
a(I0
g3
tp6255
a(I0
g5
tp6256
a(I0
g7
tp6257
a(I0
g3
tp6258
a(I0
g5
tp6259
a(I5
g7
tp6260
a(I7
g3
tp6261
a(I3
g5
tp6262
a(I0
g7
tp6263
a(I0
g15
tp6264
a(I0
g17
tp6265
a(I5
g19
tp6266
a(I6
g15
tp6267
a(I0
g17
tp6268
a(I2
g19
tp6269
a(I1
g15
tp6270
a(I0
g17
tp6271
a(I0
g19
tp6272
a(I0
g27
tp6273
a(I4
g29
tp6274
a(I3
g31
tp6275
a(I7
g27
tp6276
a(I0
g29
tp6277
a(I0
g31
tp6278
a(I0
g27
tp6279
a(I0
g29
tp6280
a(I0
g31
tp6281
a(I0
g3
tp6282
a(I2
g5
tp6283
a(I0
g7
tp6284
a(I9
g3
tp6285
a(I4
g5
tp6286
a(I0
g7
tp6287
a(I0
g3
tp6288
a(I0
g5
tp6289
a(I0
g7
tp6290
a(I0
g15
tp6291
a(I5
g17
tp6292
a(I0
g19
tp6293
a(I0
g15
tp6294
a(I0
g17
tp6295
a(I3
g19
tp6296
a(I0
g15
tp6297
a(I0
g17
tp6298
a(I0
g19
tp6299
a(I4
g27
tp6300
a(I0
g29
tp6301
a(I0
g31
tp6302
a(I0
g27
tp6303
a(I0
g29
tp6304
a(I0
g31
tp6305
a(I0
g27
tp6306
a(I0
g29
tp6307
a(I7
g31
tp6308
atp6309
a(S'Hard (0)'
p6310
I11
(lp6311
(I0
g3
tp6312
a(I0
g5
tp6313
a(I0
g7
tp6314
a(I0
g3
tp6315
a(I0
g5
tp6316
a(I0
g7
tp6317
a(I0
g3
tp6318
a(I0
g5
tp6319
a(I0
g7
tp6320
a(I0
g15
tp6321
a(I0
g17
tp6322
a(I0
g19
tp6323
a(I0
g15
tp6324
a(I0
g17
tp6325
a(I7
g19
tp6326
a(I0
g15
tp6327
a(I4
g17
tp6328
a(I0
g19
tp6329
a(I0
g27
tp6330
a(I0
g29
tp6331
a(I1
g31
tp6332
a(I0
g27
tp6333
a(I0
g29
tp6334
a(I2
g31
tp6335
a(I0
g27
tp6336
a(I5
g29
tp6337
a(I0
g31
tp6338
a(I1
g3
tp6339
a(I0
g5
tp6340
a(I0
g7
tp6341
a(I0
g3
tp6342
a(I2
g5
tp6343
a(I6
g7
tp6344
a(I0
g3
tp6345
a(I0
g5
tp6346
a(I8
g7
tp6347
a(I0
g15
tp6348
a(I0
g17
tp6349
a(I2
g19
tp6350
a(I7
g15
tp6351
a(I0
g17
tp6352
a(I8
g19
tp6353
a(I4
g15
tp6354
a(I0
g17
tp6355
a(I0
g19
tp6356
a(I8
g27
tp6357
a(I0
g29
tp6358
a(I0
g31
tp6359
a(I9
g27
tp6360
a(I3
g29
tp6361
a(I0
g31
tp6362
a(I0
g27
tp6363
a(I0
g29
tp6364
a(I6
g31
tp6365
a(I0
g3
tp6366
a(I9
g5
tp6367
a(I0
g7
tp6368
a(I6
g3
tp6369
a(I0
g5
tp6370
a(I0
g7
tp6371
a(I2
g3
tp6372
a(I0
g5
tp6373
a(I0
g7
tp6374
a(I0
g15
tp6375
a(I5
g17
tp6376
a(I0
g19
tp6377
a(I2
g15
tp6378
a(I0
g17
tp6379
a(I0
g19
tp6380
a(I0
g15
tp6381
a(I0
g17
tp6382
a(I0
g19
tp6383
a(I0
g27
tp6384
a(I0
g29
tp6385
a(I0
g31
tp6386
a(I0
g27
tp6387
a(I0
g29
tp6388
a(I0
g31
tp6389
a(I0
g27
tp6390
a(I0
g29
tp6391
a(I0
g31
tp6392
atp6393
a(S'Hard (0)'
p6394
I12
(lp6395
(I0
g3
tp6396
a(I2
g5
tp6397
a(I0
g7
tp6398
a(I0
g3
tp6399
a(I0
g5
tp6400
a(I0
g7
tp6401
a(I0
g3
tp6402
a(I6
g5
tp6403
a(I0
g7
tp6404
a(I0
g15
tp6405
a(I0
g17
tp6406
a(I4
g19
tp6407
a(I0
g15
tp6408
a(I0
g17
tp6409
a(I2
g19
tp6410
a(I8
g15
tp6411
a(I5
g17
tp6412
a(I0
g19
tp6413
a(I0
g27
tp6414
a(I0
g29
tp6415
a(I0
g31
tp6416
a(I0
g27
tp6417
a(I4
g29
tp6418
a(I9
g31
tp6419
a(I0
g27
tp6420
a(I0
g29
tp6421
a(I0
g31
tp6422
a(I0
g3
tp6423
a(I1
g5
tp6424
a(I8
g7
tp6425
a(I9
g3
tp6426
a(I0
g5
tp6427
a(I0
g7
tp6428
a(I0
g3
tp6429
a(I0
g5
tp6430
a(I0
g7
tp6431
a(I0
g15
tp6432
a(I0
g17
tp6433
a(I0
g19
tp6434
a(I0
g15
tp6435
a(I0
g17
tp6436
a(I0
g19
tp6437
a(I0
g15
tp6438
a(I0
g17
tp6439
a(I0
g19
tp6440
a(I0
g27
tp6441
a(I0
g29
tp6442
a(I0
g31
tp6443
a(I0
g27
tp6444
a(I0
g29
tp6445
a(I4
g31
tp6446
a(I6
g27
tp6447
a(I1
g29
tp6448
a(I0
g31
tp6449
a(I0
g3
tp6450
a(I0
g5
tp6451
a(I0
g7
tp6452
a(I2
g3
tp6453
a(I7
g5
tp6454
a(I0
g7
tp6455
a(I0
g3
tp6456
a(I0
g5
tp6457
a(I0
g7
tp6458
a(I0
g15
tp6459
a(I4
g17
tp6460
a(I7
g19
tp6461
a(I5
g15
tp6462
a(I0
g17
tp6463
a(I0
g19
tp6464
a(I3
g15
tp6465
a(I0
g17
tp6466
a(I0
g19
tp6467
a(I0
g27
tp6468
a(I6
g29
tp6469
a(I0
g31
tp6470
a(I0
g27
tp6471
a(I0
g29
tp6472
a(I0
g31
tp6473
a(I0
g27
tp6474
a(I2
g29
tp6475
a(I0
g31
tp6476
atp6477
a(S'Hard (0)'
p6478
I13
(lp6479
(I6
g3
tp6480
a(I0
g5
tp6481
a(I2
g7
tp6482
a(I0
g3
tp6483
a(I8
g5
tp6484
a(I0
g7
tp6485
a(I1
g3
tp6486
a(I0
g5
tp6487
a(I0
g7
tp6488
a(I0
g15
tp6489
a(I4
g17
tp6490
a(I0
g19
tp6491
a(I0
g15
tp6492
a(I0
g17
tp6493
a(I0
g19
tp6494
a(I0
g15
tp6495
a(I7
g17
tp6496
a(I0
g19
tp6497
a(I0
g27
tp6498
a(I0
g29
tp6499
a(I0
g31
tp6500
a(I0
g27
tp6501
a(I0
g29
tp6502
a(I1
g31
tp6503
a(I0
g27
tp6504
a(I0
g29
tp6505
a(I6
g31
tp6506
a(I0
g3
tp6507
a(I0
g5
tp6508
a(I7
g7
tp6509
a(I0
g3
tp6510
a(I0
g5
tp6511
a(I0
g7
tp6512
a(I9
g3
tp6513
a(I6
g5
tp6514
a(I0
g7
tp6515
a(I2
g15
tp6516
a(I0
g17
tp6517
a(I0
g19
tp6518
a(I0
g15
tp6519
a(I0
g17
tp6520
a(I0
g19
tp6521
a(I0
g15
tp6522
a(I0
g17
tp6523
a(I8
g19
tp6524
a(I0
g27
tp6525
a(I6
g29
tp6526
a(I5
g31
tp6527
a(I0
g27
tp6528
a(I0
g29
tp6529
a(I0
g31
tp6530
a(I7
g27
tp6531
a(I0
g29
tp6532
a(I0
g31
tp6533
a(I7
g3
tp6534
a(I0
g5
tp6535
a(I0
g7
tp6536
a(I8
g3
tp6537
a(I0
g5
tp6538
a(I0
g7
tp6539
a(I0
g3
tp6540
a(I0
g5
tp6541
a(I0
g7
tp6542
a(I0
g15
tp6543
a(I2
g17
tp6544
a(I0
g19
tp6545
a(I0
g15
tp6546
a(I0
g17
tp6547
a(I0
g19
tp6548
a(I0
g15
tp6549
a(I8
g17
tp6550
a(I0
g19
tp6551
a(I0
g27
tp6552
a(I0
g29
tp6553
a(I8
g31
tp6554
a(I0
g27
tp6555
a(I4
g29
tp6556
a(I0
g31
tp6557
a(I5
g27
tp6558
a(I0
g29
tp6559
a(I7
g31
tp6560
atp6561
a(S'Hard (0)'
p6562
I14
(lp6563
(I0
g3
tp6564
a(I0
g5
tp6565
a(I0
g7
tp6566
a(I0
g3
tp6567
a(I6
g5
tp6568
a(I0
g7
tp6569
a(I0
g3
tp6570
a(I0
g5
tp6571
a(I9
g7
tp6572
a(I6
g15
tp6573
a(I0
g17
tp6574
a(I0
g19
tp6575
a(I0
g15
tp6576
a(I9
g17
tp6577
a(I0
g19
tp6578
a(I5
g15
tp6579
a(I0
g17
tp6580
a(I0
g19
tp6581
a(I0
g27
tp6582
a(I0
g29
tp6583
a(I0
g31
tp6584
a(I0
g27
tp6585
a(I0
g29
tp6586
a(I3
g31
tp6587
a(I0
g27
tp6588
a(I0
g29
tp6589
a(I6
g31
tp6590
a(I9
g3
tp6591
a(I0
g5
tp6592
a(I0
g7
tp6593
a(I0
g3
tp6594
a(I3
g5
tp6595
a(I0
g7
tp6596
a(I6
g3
tp6597
a(I0
g5
tp6598
a(I4
g7
tp6599
a(I0
g15
tp6600
a(I0
g17
tp6601
a(I0
g19
tp6602
a(I9
g15
tp6603
a(I0
g17
tp6604
a(I2
g19
tp6605
a(I0
g15
tp6606
a(I0
g17
tp6607
a(I0
g19
tp6608
a(I1
g27
tp6609
a(I0
g29
tp6610
a(I7
g31
tp6611
a(I0
g27
tp6612
a(I5
g29
tp6613
a(I0
g31
tp6614
a(I0
g27
tp6615
a(I0
g29
tp6616
a(I2
g31
tp6617
a(I5
g3
tp6618
a(I0
g5
tp6619
a(I0
g7
tp6620
a(I8
g3
tp6621
a(I0
g5
tp6622
a(I0
g7
tp6623
a(I0
g3
tp6624
a(I0
g5
tp6625
a(I0
g7
tp6626
a(I0
g15
tp6627
a(I0
g17
tp6628
a(I6
g19
tp6629
a(I0
g15
tp6630
a(I4
g17
tp6631
a(I0
g19
tp6632
a(I0
g15
tp6633
a(I0
g17
tp6634
a(I7
g19
tp6635
a(I3
g27
tp6636
a(I0
g29
tp6637
a(I0
g31
tp6638
a(I0
g27
tp6639
a(I7
g29
tp6640
a(I0
g31
tp6641
a(I0
g27
tp6642
a(I0
g29
tp6643
a(I0
g31
tp6644
atp6645
a(S'Hard (0)'
p6646
I15
(lp6647
(I0
g3
tp6648
a(I0
g5
tp6649
a(I0
g7
tp6650
a(I0
g3
tp6651
a(I0
g5
tp6652
a(I0
g7
tp6653
a(I4
g3
tp6654
a(I0
g5
tp6655
a(I0
g7
tp6656
a(I0
g15
tp6657
a(I0
g17
tp6658
a(I0
g19
tp6659
a(I0
g15
tp6660
a(I0
g17
tp6661
a(I1
g19
tp6662
a(I9
g15
tp6663
a(I0
g17
tp6664
a(I0
g19
tp6665
a(I0
g27
tp6666
a(I0
g29
tp6667
a(I9
g31
tp6668
a(I2
g27
tp6669
a(I0
g29
tp6670
a(I0
g31
tp6671
a(I0
g27
tp6672
a(I0
g29
tp6673
a(I3
g31
tp6674
a(I0
g3
tp6675
a(I0
g5
tp6676
a(I5
g7
tp6677
a(I0
g3
tp6678
a(I0
g5
tp6679
a(I0
g7
tp6680
a(I0
g3
tp6681
a(I2
g5
tp6682
a(I0
g7
tp6683
a(I8
g15
tp6684
a(I0
g17
tp6685
a(I0
g19
tp6686
a(I0
g15
tp6687
a(I0
g17
tp6688
a(I0
g19
tp6689
a(I0
g15
tp6690
a(I0
g17
tp6691
a(I4
g19
tp6692
a(I0
g27
tp6693
a(I3
g29
tp6694
a(I0
g31
tp6695
a(I0
g27
tp6696
a(I0
g29
tp6697
a(I0
g31
tp6698
a(I8
g27
tp6699
a(I0
g29
tp6700
a(I0
g31
tp6701
a(I5
g3
tp6702
a(I0
g5
tp6703
a(I0
g7
tp6704
a(I0
g3
tp6705
a(I0
g5
tp6706
a(I9
g7
tp6707
a(I6
g3
tp6708
a(I0
g5
tp6709
a(I0
g7
tp6710
a(I0
g15
tp6711
a(I0
g17
tp6712
a(I6
g19
tp6713
a(I7
g15
tp6714
a(I0
g17
tp6715
a(I0
g19
tp6716
a(I0
g15
tp6717
a(I0
g17
tp6718
a(I0
g19
tp6719
a(I0
g27
tp6720
a(I0
g29
tp6721
a(I1
g31
tp6722
a(I0
g27
tp6723
a(I0
g29
tp6724
a(I0
g31
tp6725
a(I0
g27
tp6726
a(I0
g29
tp6727
a(I0
g31
tp6728
atp6729
a(S'Harder (0)'
p6730
I0
(lp6731
(I0
g3
tp6732
a(I0
g5
tp6733
a(I3
g7
tp6734
a(I0
g3
tp6735
a(I4
g5
tp6736
a(I9
g7
tp6737
a(I0
g3
tp6738
a(I0
g5
tp6739
a(I0
g7
tp6740
a(I0
g15
tp6741
a(I0
g17
tp6742
a(I0
g19
tp6743
a(I0
g15
tp6744
a(I0
g17
tp6745
a(I8
g19
tp6746
a(I0
g15
tp6747
a(I6
g17
tp6748
a(I0
g19
tp6749
a(I0
g27
tp6750
a(I8
g29
tp6751
a(I0
g31
tp6752
a(I0
g27
tp6753
a(I0
g29
tp6754
a(I0
g31
tp6755
a(I3
g27
tp6756
a(I0
g29
tp6757
a(I0
g31
tp6758
a(I0
g3
tp6759
a(I9
g5
tp6760
a(I7
g7
tp6761
a(I0
g3
tp6762
a(I0
g5
tp6763
a(I0
g7
tp6764
a(I8
g3
tp6765
a(I0
g5
tp6766
a(I0
g7
tp6767
a(I3
g15
tp6768
a(I0
g17
tp6769
a(I0
g19
tp6770
a(I0
g15
tp6771
a(I0
g17
tp6772
a(I0
g19
tp6773
a(I0
g15
tp6774
a(I0
g17
tp6775
a(I5
g19
tp6776
a(I0
g27
tp6777
a(I0
g29
tp6778
a(I2
g31
tp6779
a(I0
g27
tp6780
a(I0
g29
tp6781
a(I0
g31
tp6782
a(I7
g27
tp6783
a(I1
g29
tp6784
a(I0
g31
tp6785
a(I0
g3
tp6786
a(I0
g5
tp6787
a(I8
g7
tp6788
a(I0
g3
tp6789
a(I0
g5
tp6790
a(I0
g7
tp6791
a(I0
g3
tp6792
a(I2
g5
tp6793
a(I0
g7
tp6794
a(I0
g15
tp6795
a(I4
g17
tp6796
a(I0
g19
tp6797
a(I8
g15
tp6798
a(I0
g17
tp6799
a(I0
g19
tp6800
a(I0
g15
tp6801
a(I0
g17
tp6802
a(I0
g19
tp6803
a(I0
g27
tp6804
a(I0
g29
tp6805
a(I0
g31
tp6806
a(I9
g27
tp6807
a(I2
g29
tp6808
a(I0
g31
tp6809
a(I1
g27
tp6810
a(I0
g29
tp6811
a(I0
g31
tp6812
atp6813
a(S'Harder (0)'
p6814
I1
(lp6815
(I9
g3
tp6816
a(I0
g5
tp6817
a(I0
g7
tp6818
a(I0
g3
tp6819
a(I0
g5
tp6820
a(I0
g7
tp6821
a(I0
g3
tp6822
a(I0
g5
tp6823
a(I0
g7
tp6824
a(I0
g15
tp6825
a(I4
g17
tp6826
a(I0
g19
tp6827
a(I0
g15
tp6828
a(I0
g17
tp6829
a(I0
g19
tp6830
a(I0
g15
tp6831
a(I9
g17
tp6832
a(I6
g19
tp6833
a(I8
g27
tp6834
a(I0
g29
tp6835
a(I3
g31
tp6836
a(I0
g27
tp6837
a(I6
g29
tp6838
a(I0
g31
tp6839
a(I1
g27
tp6840
a(I0
g29
tp6841
a(I0
g31
tp6842
a(I0
g3
tp6843
a(I0
g5
tp6844
a(I0
g7
tp6845
a(I5
g3
tp6846
a(I0
g5
tp6847
a(I0
g7
tp6848
a(I0
g3
tp6849
a(I3
g5
tp6850
a(I0
g7
tp6851
a(I0
g15
tp6852
a(I0
g17
tp6853
a(I0
g19
tp6854
a(I0
g15
tp6855
a(I8
g17
tp6856
a(I0
g19
tp6857
a(I0
g15
tp6858
a(I0
g17
tp6859
a(I0
g19
tp6860
a(I0
g27
tp6861
a(I3
g29
tp6862
a(I0
g31
tp6863
a(I0
g27
tp6864
a(I0
g29
tp6865
a(I4
g31
tp6866
a(I0
g27
tp6867
a(I0
g29
tp6868
a(I0
g31
tp6869
a(I0
g3
tp6870
a(I0
g5
tp6871
a(I4
g7
tp6872
a(I0
g3
tp6873
a(I1
g5
tp6874
a(I0
g7
tp6875
a(I7
g3
tp6876
a(I0
g5
tp6877
a(I3
g7
tp6878
a(I2
g15
tp6879
a(I7
g17
tp6880
a(I0
g19
tp6881
a(I0
g15
tp6882
a(I0
g17
tp6883
a(I0
g19
tp6884
a(I0
g15
tp6885
a(I6
g17
tp6886
a(I0
g19
tp6887
a(I0
g27
tp6888
a(I0
g29
tp6889
a(I0
g31
tp6890
a(I0
g27
tp6891
a(I0
g29
tp6892
a(I0
g31
tp6893
a(I0
g27
tp6894
a(I0
g29
tp6895
a(I8
g31
tp6896
atp6897
a(S'Harder (0)'
p6898
I2
(lp6899
(I0
g3
tp6900
a(I0
g5
tp6901
a(I0
g7
tp6902
a(I0
g3
tp6903
a(I8
g5
tp6904
a(I0
g7
tp6905
a(I0
g3
tp6906
a(I0
g5
tp6907
a(I6
g7
tp6908
a(I3
g15
tp6909
a(I9
g17
tp6910
a(I0
g19
tp6911
a(I0
g15
tp6912
a(I0
g17
tp6913
a(I7
g19
tp6914
a(I0
g15
tp6915
a(I4
g17
tp6916
a(I0
g19
tp6917
a(I0
g27
tp6918
a(I0
g29
tp6919
a(I4
g31
tp6920
a(I9
g27
tp6921
a(I0
g29
tp6922
a(I0
g31
tp6923
a(I0
g27
tp6924
a(I0
g29
tp6925
a(I0
g31
tp6926
a(I0
g3
tp6927
a(I0
g5
tp6928
a(I7
g7
tp6929
a(I0
g3
tp6930
a(I1
g5
tp6931
a(I0
g7
tp6932
a(I0
g3
tp6933
a(I6
g5
tp6934
a(I0
g7
tp6935
a(I0
g15
tp6936
a(I0
g17
tp6937
a(I0
g19
tp6938
a(I0
g15
tp6939
a(I0
g17
tp6940
a(I0
g19
tp6941
a(I0
g15
tp6942
a(I0
g17
tp6943
a(I0
g19
tp6944
a(I0
g27
tp6945
a(I8
g29
tp6946
a(I0
g31
tp6947
a(I0
g27
tp6948
a(I9
g29
tp6949
a(I0
g31
tp6950
a(I1
g27
tp6951
a(I0
g29
tp6952
a(I0
g31
tp6953
a(I0
g3
tp6954
a(I0
g5
tp6955
a(I0
g7
tp6956
a(I0
g3
tp6957
a(I0
g5
tp6958
a(I9
g7
tp6959
a(I6
g3
tp6960
a(I0
g5
tp6961
a(I0
g7
tp6962
a(I0
g15
tp6963
a(I7
g17
tp6964
a(I0
g19
tp6965
a(I6
g15
tp6966
a(I0
g17
tp6967
a(I0
g19
tp6968
a(I0
g15
tp6969
a(I2
g17
tp6970
a(I3
g19
tp6971
a(I2
g27
tp6972
a(I0
g29
tp6973
a(I0
g31
tp6974
a(I0
g27
tp6975
a(I7
g29
tp6976
a(I0
g31
tp6977
a(I0
g27
tp6978
a(I0
g29
tp6979
a(I0
g31
tp6980
atp6981
a(S'Harder (0)'
p6982
I3
(lp6983
(I0
g3
tp6984
a(I0
g5
tp6985
a(I0
g7
tp6986
a(I6
g3
tp6987
a(I4
g5
tp6988
a(I0
g7
tp6989
a(I0
g3
tp6990
a(I0
g5
tp6991
a(I0
g7
tp6992
a(I0
g15
tp6993
a(I8
g17
tp6994
a(I0
g19
tp6995
a(I0
g15
tp6996
a(I0
g17
tp6997
a(I0
g19
tp6998
a(I0
g15
tp6999
a(I3
g17
tp7000
a(I0
g19
tp7001
a(I0
g27
tp7002
a(I7
g29
tp7003
a(I0
g31
tp7004
a(I8
g27
tp7005
a(I0
g29
tp7006
a(I0
g31
tp7007
a(I0
g27
tp7008
a(I9
g29
tp7009
a(I0
g31
tp7010
a(I0
g3
tp7011
a(I0
g5
tp7012
a(I8
g7
tp7013
a(I4
g3
tp7014
a(I0
g5
tp7015
a(I0
g7
tp7016
a(I0
g3
tp7017
a(I1
g5
tp7018
a(I0
g7
tp7019
a(I0
g15
tp7020
a(I0
g17
tp7021
a(I1
g19
tp7022
a(I0
g15
tp7023
a(I0
g17
tp7024
a(I0
g19
tp7025
a(I3
g15
tp7026
a(I0
g17
tp7027
a(I0
g19
tp7028
a(I0
g27
tp7029
a(I4
g29
tp7030
a(I0
g31
tp7031
a(I0
g27
tp7032
a(I0
g29
tp7033
a(I9
g31
tp7034
a(I7
g27
tp7035
a(I0
g29
tp7036
a(I0
g31
tp7037
a(I0
g3
tp7038
a(I3
g5
tp7039
a(I0
g7
tp7040
a(I0
g3
tp7041
a(I0
g5
tp7042
a(I5
g7
tp7043
a(I0
g3
tp7044
a(I8
g5
tp7045
a(I0
g7
tp7046
a(I0
g15
tp7047
a(I5
g17
tp7048
a(I0
g19
tp7049
a(I0
g15
tp7050
a(I0
g17
tp7051
a(I0
g19
tp7052
a(I0
g15
tp7053
a(I7
g17
tp7054
a(I0
g19
tp7055
a(I0
g27
tp7056
a(I0
g29
tp7057
a(I0
g31
tp7058
a(I0
g27
tp7059
a(I8
g29
tp7060
a(I6
g31
tp7061
a(I0
g27
tp7062
a(I0
g29
tp7063
a(I0
g31
tp7064
atp7065
a(S'Harder (0)'
p7066
I4
(lp7067
(I0
g3
tp7068
a(I0
g5
tp7069
a(I0
g7
tp7070
a(I0
g3
tp7071
a(I0
g5
tp7072
a(I0
g7
tp7073
a(I0
g3
tp7074
a(I0
g5
tp7075
a(I0
g7
tp7076
a(I0
g15
tp7077
a(I0
g17
tp7078
a(I6
g19
tp7079
a(I4
g15
tp7080
a(I0
g17
tp7081
a(I5
g19
tp7082
a(I0
g15
tp7083
a(I0
g17
tp7084
a(I7
g19
tp7085
a(I0
g27
tp7086
a(I0
g29
tp7087
a(I4
g31
tp7088
a(I0
g27
tp7089
a(I0
g29
tp7090
a(I1
g31
tp7091
a(I0
g27
tp7092
a(I2
g29
tp7093
a(I0
g31
tp7094
a(I0
g3
tp7095
a(I0
g5
tp7096
a(I0
g7
tp7097
a(I0
g3
tp7098
a(I1
g5
tp7099
a(I0
g7
tp7100
a(I0
g3
tp7101
a(I7
g5
tp7102
a(I0
g7
tp7103
a(I7
g15
tp7104
a(I0
g17
tp7105
a(I1
g19
tp7106
a(I0
g15
tp7107
a(I0
g17
tp7108
a(I0
g19
tp7109
a(I8
g15
tp7110
a(I0
g17
tp7111
a(I9
g19
tp7112
a(I0
g27
tp7113
a(I4
g29
tp7114
a(I0
g31
tp7115
a(I0
g27
tp7116
a(I7
g29
tp7117
a(I0
g31
tp7118
a(I0
g27
tp7119
a(I0
g29
tp7120
a(I0
g31
tp7121
a(I0
g3
tp7122
a(I8
g5
tp7123
a(I0
g7
tp7124
a(I9
g3
tp7125
a(I0
g5
tp7126
a(I0
g7
tp7127
a(I7
g3
tp7128
a(I0
g5
tp7129
a(I0
g7
tp7130
a(I3
g15
tp7131
a(I0
g17
tp7132
a(I0
g19
tp7133
a(I1
g15
tp7134
a(I0
g17
tp7135
a(I8
g19
tp7136
a(I6
g15
tp7137
a(I0
g17
tp7138
a(I0
g19
tp7139
a(I0
g27
tp7140
a(I0
g29
tp7141
a(I0
g31
tp7142
a(I0
g27
tp7143
a(I0
g29
tp7144
a(I0
g31
tp7145
a(I0
g27
tp7146
a(I0
g29
tp7147
a(I0
g31
tp7148
atp7149
a(S'Harder (0)'
p7150
I5
(lp7151
(I0
g3
tp7152
a(I0
g5
tp7153
a(I0
g7
tp7154
a(I0
g3
tp7155
a(I0
g5
tp7156
a(I0
g7
tp7157
a(I0
g3
tp7158
a(I0
g5
tp7159
a(I0
g7
tp7160
a(I6
g15
tp7161
a(I0
g17
tp7162
a(I0
g19
tp7163
a(I1
g15
tp7164
a(I5
g17
tp7165
a(I4
g19
tp7166
a(I9
g15
tp7167
a(I0
g17
tp7168
a(I0
g19
tp7169
a(I9
g27
tp7170
a(I0
g29
tp7171
a(I2
g31
tp7172
a(I3
g27
tp7173
a(I0
g29
tp7174
a(I0
g31
tp7175
a(I0
g27
tp7176
a(I0
g29
tp7177
a(I1
g31
tp7178
a(I1
g3
tp7179
a(I0
g5
tp7180
a(I0
g7
tp7181
a(I0
g3
tp7182
a(I0
g5
tp7183
a(I0
g7
tp7184
a(I0
g3
tp7185
a(I9
g5
tp7186
a(I0
g7
tp7187
a(I0
g15
tp7188
a(I0
g17
tp7189
a(I3
g19
tp7190
a(I0
g15
tp7191
a(I0
g17
tp7192
a(I0
g19
tp7193
a(I5
g15
tp7194
a(I0
g17
tp7195
a(I0
g19
tp7196
a(I0
g27
tp7197
a(I2
g29
tp7198
a(I0
g31
tp7199
a(I0
g27
tp7200
a(I0
g29
tp7201
a(I0
g31
tp7202
a(I0
g27
tp7203
a(I0
g29
tp7204
a(I3
g31
tp7205
a(I3
g3
tp7206
a(I0
g5
tp7207
a(I0
g7
tp7208
a(I0
g3
tp7209
a(I0
g5
tp7210
a(I7
g7
tp7211
a(I2
g3
tp7212
a(I0
g5
tp7213
a(I9
g7
tp7214
a(I0
g15
tp7215
a(I0
g17
tp7216
a(I8
g19
tp7217
a(I4
g15
tp7218
a(I6
g17
tp7219
a(I9
g19
tp7220
a(I0
g15
tp7221
a(I0
g17
tp7222
a(I5
g19
tp7223
a(I0
g27
tp7224
a(I0
g29
tp7225
a(I0
g31
tp7226
a(I0
g27
tp7227
a(I0
g29
tp7228
a(I0
g31
tp7229
a(I0
g27
tp7230
a(I0
g29
tp7231
a(I0
g31
tp7232
atp7233
a(S'Harder (0)'
p7234
I6
(lp7235
(I0
g3
tp7236
a(I6
g5
tp7237
a(I1
g7
tp7238
a(I0
g3
tp7239
a(I9
g5
tp7240
a(I0
g7
tp7241
a(I0
g3
tp7242
a(I0
g5
tp7243
a(I0
g7
tp7244
a(I0
g15
tp7245
a(I0
g17
tp7246
a(I0
g19
tp7247
a(I0
g15
tp7248
a(I0
g17
tp7249
a(I0
g19
tp7250
a(I0
g15
tp7251
a(I0
g17
tp7252
a(I0
g19
tp7253
a(I9
g27
tp7254
a(I0
g29
tp7255
a(I0
g31
tp7256
a(I0
g27
tp7257
a(I8
g29
tp7258
a(I0
g31
tp7259
a(I0
g27
tp7260
a(I3
g29
tp7261
a(I1
g31
tp7262
a(I0
g3
tp7263
a(I3
g5
tp7264
a(I9
g7
tp7265
a(I0
g3
tp7266
a(I0
g5
tp7267
a(I0
g7
tp7268
a(I0
g3
tp7269
a(I0
g5
tp7270
a(I0
g7
tp7271
a(I2
g15
tp7272
a(I0
g17
tp7273
a(I0
g19
tp7274
a(I0
g15
tp7275
a(I0
g17
tp7276
a(I0
g19
tp7277
a(I0
g15
tp7278
a(I0
g17
tp7279
a(I7
g19
tp7280
a(I0
g27
tp7281
a(I0
g29
tp7282
a(I0
g31
tp7283
a(I0
g27
tp7284
a(I0
g29
tp7285
a(I0
g31
tp7286
a(I4
g27
tp7287
a(I1
g29
tp7288
a(I0
g31
tp7289
a(I4
g3
tp7290
a(I8
g5
tp7291
a(I0
g7
tp7292
a(I0
g3
tp7293
a(I1
g5
tp7294
a(I0
g7
tp7295
a(I0
g3
tp7296
a(I0
g5
tp7297
a(I2
g7
tp7298
a(I0
g15
tp7299
a(I0
g17
tp7300
a(I0
g19
tp7301
a(I0
g15
tp7302
a(I0
g17
tp7303
a(I0
g19
tp7304
a(I0
g15
tp7305
a(I0
g17
tp7306
a(I0
g19
tp7307
a(I0
g27
tp7308
a(I0
g29
tp7309
a(I0
g31
tp7310
a(I0
g27
tp7311
a(I6
g29
tp7312
a(I0
g31
tp7313
a(I5
g27
tp7314
a(I9
g29
tp7315
a(I0
g31
tp7316
atp7317
a(S'Harder (0)'
p7318
I7
(lp7319
(I0
g3
tp7320
a(I0
g5
tp7321
a(I0
g7
tp7322
a(I0
g3
tp7323
a(I3
g5
tp7324
a(I1
g7
tp7325
a(I0
g3
tp7326
a(I0
g5
tp7327
a(I0
g7
tp7328
a(I0
g15
tp7329
a(I0
g17
tp7330
a(I0
g19
tp7331
a(I7
g15
tp7332
a(I0
g17
tp7333
a(I0
g19
tp7334
a(I1
g15
tp7335
a(I0
g17
tp7336
a(I8
g19
tp7337
a(I0
g27
tp7338
a(I2
g29
tp7339
a(I0
g31
tp7340
a(I0
g27
tp7341
a(I0
g29
tp7342
a(I0
g31
tp7343
a(I7
g27
tp7344
a(I6
g29
tp7345
a(I0
g31
tp7346
a(I0
g3
tp7347
a(I0
g5
tp7348
a(I0
g7
tp7349
a(I0
g3
tp7350
a(I1
g5
tp7351
a(I0
g7
tp7352
a(I4
g3
tp7353
a(I0
g5
tp7354
a(I0
g7
tp7355
a(I0
g15
tp7356
a(I0
g17
tp7357
a(I5
g19
tp7358
a(I0
g15
tp7359
a(I9
g17
tp7360
a(I0
g19
tp7361
a(I3
g15
tp7362
a(I0
g17
tp7363
a(I0
g19
tp7364
a(I0
g27
tp7365
a(I0
g29
tp7366
a(I8
g31
tp7367
a(I0
g27
tp7368
a(I7
g29
tp7369
a(I0
g31
tp7370
a(I0
g27
tp7371
a(I0
g29
tp7372
a(I0
g31
tp7373
a(I0
g3
tp7374
a(I5
g5
tp7375
a(I7
g7
tp7376
a(I0
g3
tp7377
a(I0
g5
tp7378
a(I0
g7
tp7379
a(I0
g3
tp7380
a(I2
g5
tp7381
a(I0
g7
tp7382
a(I2
g15
tp7383
a(I0
g17
tp7384
a(I4
g19
tp7385
a(I0
g15
tp7386
a(I0
g17
tp7387
a(I7
g19
tp7388
a(I0
g15
tp7389
a(I0
g17
tp7390
a(I0
g19
tp7391
a(I0
g27
tp7392
a(I0
g29
tp7393
a(I0
g31
tp7394
a(I2
g27
tp7395
a(I8
g29
tp7396
a(I0
g31
tp7397
a(I0
g27
tp7398
a(I0
g29
tp7399
a(I0
g31
tp7400
atp7401
a(S'Harder (0)'
p7402
I8
(lp7403
(I0
g3
tp7404
a(I0
g5
tp7405
a(I0
g7
tp7406
a(I0
g3
tp7407
a(I6
g5
tp7408
a(I0
g7
tp7409
a(I9
g3
tp7410
a(I0
g5
tp7411
a(I0
g7
tp7412
a(I0
g15
tp7413
a(I0
g17
tp7414
a(I0
g19
tp7415
a(I0
g15
tp7416
a(I0
g17
tp7417
a(I4
g19
tp7418
a(I6
g15
tp7419
a(I1
g17
tp7420
a(I0
g19
tp7421
a(I1
g27
tp7422
a(I0
g29
tp7423
a(I0
g31
tp7424
a(I0
g27
tp7425
a(I0
g29
tp7426
a(I0
g31
tp7427
a(I0
g27
tp7428
a(I0
g29
tp7429
a(I0
g31
tp7430
a(I2
g3
tp7431
a(I0
g5
tp7432
a(I5
g7
tp7433
a(I0
g3
tp7434
a(I0
g5
tp7435
a(I1
g7
tp7436
a(I0
g3
tp7437
a(I0
g5
tp7438
a(I0
g7
tp7439
a(I9
g15
tp7440
a(I0
g17
tp7441
a(I0
g19
tp7442
a(I0
g15
tp7443
a(I8
g17
tp7444
a(I0
g19
tp7445
a(I0
g15
tp7446
a(I0
g17
tp7447
a(I1
g19
tp7448
a(I0
g27
tp7449
a(I0
g29
tp7450
a(I0
g31
tp7451
a(I6
g27
tp7452
a(I0
g29
tp7453
a(I0
g31
tp7454
a(I3
g27
tp7455
a(I0
g29
tp7456
a(I5
g31
tp7457
a(I0
g3
tp7458
a(I0
g5
tp7459
a(I0
g7
tp7460
a(I0
g3
tp7461
a(I0
g5
tp7462
a(I0
g7
tp7463
a(I0
g3
tp7464
a(I0
g5
tp7465
a(I3
g7
tp7466
a(I0
g15
tp7467
a(I7
g17
tp7468
a(I2
g19
tp7469
a(I4
g15
tp7470
a(I0
g17
tp7471
a(I0
g19
tp7472
a(I0
g15
tp7473
a(I0
g17
tp7474
a(I0
g19
tp7475
a(I0
g27
tp7476
a(I0
g29
tp7477
a(I1
g31
tp7478
a(I0
g27
tp7479
a(I3
g29
tp7480
a(I0
g31
tp7481
a(I0
g27
tp7482
a(I0
g29
tp7483
a(I0
g31
tp7484
atp7485
a(S'Harder (0)'
p7486
I9
(lp7487
(I0
g3
tp7488
a(I3
g5
tp7489
a(I0
g7
tp7490
a(I0
g3
tp7491
a(I2
g5
tp7492
a(I0
g7
tp7493
a(I0
g3
tp7494
a(I6
g5
tp7495
a(I0
g7
tp7496
a(I0
g15
tp7497
a(I0
g17
tp7498
a(I0
g19
tp7499
a(I5
g15
tp7500
a(I0
g17
tp7501
a(I0
g19
tp7502
a(I0
g15
tp7503
a(I0
g17
tp7504
a(I0
g19
tp7505
a(I9
g27
tp7506
a(I0
g29
tp7507
a(I6
g31
tp7508
a(I0
g27
tp7509
a(I0
g29
tp7510
a(I0
g31
tp7511
a(I2
g27
tp7512
a(I0
g29
tp7513
a(I0
g31
tp7514
a(I0
g3
tp7515
a(I0
g5
tp7516
a(I0
g7
tp7517
a(I8
g3
tp7518
a(I0
g5
tp7519
a(I0
g7
tp7520
a(I0
g3
tp7521
a(I0
g5
tp7522
a(I0
g7
tp7523
a(I7
g15
tp7524
a(I6
g17
tp7525
a(I0
g19
tp7526
a(I0
g15
tp7527
a(I0
g17
tp7528
a(I0
g19
tp7529
a(I0
g15
tp7530
a(I8
g17
tp7531
a(I2
g19
tp7532
a(I0
g27
tp7533
a(I0
g29
tp7534
a(I0
g31
tp7535
a(I0
g27
tp7536
a(I0
g29
tp7537
a(I4
g31
tp7538
a(I0
g27
tp7539
a(I0
g29
tp7540
a(I0
g31
tp7541
a(I0
g3
tp7542
a(I0
g5
tp7543
a(I4
g7
tp7544
a(I0
g3
tp7545
a(I0
g5
tp7546
a(I0
g7
tp7547
a(I6
g3
tp7548
a(I0
g5
tp7549
a(I1
g7
tp7550
a(I0
g15
tp7551
a(I0
g17
tp7552
a(I0
g19
tp7553
a(I0
g15
tp7554
a(I0
g17
tp7555
a(I7
g19
tp7556
a(I0
g15
tp7557
a(I0
g17
tp7558
a(I0
g19
tp7559
a(I0
g27
tp7560
a(I1
g29
tp7561
a(I0
g31
tp7562
a(I0
g27
tp7563
a(I3
g29
tp7564
a(I0
g31
tp7565
a(I0
g27
tp7566
a(I2
g29
tp7567
a(I0
g31
tp7568
atp7569
a(S'Harder (0)'
p7570
I10
(lp7571
(I0
g3
tp7572
a(I6
g5
tp7573
a(I0
g7
tp7574
a(I0
g3
tp7575
a(I0
g5
tp7576
a(I9
g7
tp7577
a(I5
g3
tp7578
a(I0
g5
tp7579
a(I0
g7
tp7580
a(I5
g15
tp7581
a(I0
g17
tp7582
a(I9
g19
tp7583
a(I6
g15
tp7584
a(I3
g17
tp7585
a(I0
g19
tp7586
a(I0
g15
tp7587
a(I0
g17
tp7588
a(I0
g19
tp7589
a(I7
g27
tp7590
a(I8
g29
tp7591
a(I0
g31
tp7592
a(I0
g27
tp7593
a(I0
g29
tp7594
a(I0
g31
tp7595
a(I6
g27
tp7596
a(I0
g29
tp7597
a(I0
g31
tp7598
a(I0
g3
tp7599
a(I0
g5
tp7600
a(I0
g7
tp7601
a(I4
g3
tp7602
a(I0
g5
tp7603
a(I0
g7
tp7604
a(I0
g3
tp7605
a(I9
g5
tp7606
a(I0
g7
tp7607
a(I9
g15
tp7608
a(I0
g17
tp7609
a(I0
g19
tp7610
a(I0
g15
tp7611
a(I0
g17
tp7612
a(I0
g19
tp7613
a(I0
g15
tp7614
a(I0
g17
tp7615
a(I1
g19
tp7616
a(I0
g27
tp7617
a(I5
g29
tp7618
a(I0
g31
tp7619
a(I0
g27
tp7620
a(I0
g29
tp7621
a(I1
g31
tp7622
a(I0
g27
tp7623
a(I0
g29
tp7624
a(I0
g31
tp7625
a(I0
g3
tp7626
a(I0
g5
tp7627
a(I6
g7
tp7628
a(I0
g3
tp7629
a(I0
g5
tp7630
a(I0
g7
tp7631
a(I0
g3
tp7632
a(I5
g5
tp7633
a(I4
g7
tp7634
a(I0
g15
tp7635
a(I0
g17
tp7636
a(I0
g19
tp7637
a(I0
g15
tp7638
a(I6
g17
tp7639
a(I5
g19
tp7640
a(I2
g15
tp7641
a(I0
g17
tp7642
a(I8
g19
tp7643
a(I0
g27
tp7644
a(I0
g29
tp7645
a(I5
g31
tp7646
a(I9
g27
tp7647
a(I0
g29
tp7648
a(I0
g31
tp7649
a(I0
g27
tp7650
a(I6
g29
tp7651
a(I0
g31
tp7652
atp7653
a(S'Harder (0)'
p7654
I11
(lp7655
(I6
g3
tp7656
a(I0
g5
tp7657
a(I0
g7
tp7658
a(I0
g3
tp7659
a(I0
g5
tp7660
a(I0
g7
tp7661
a(I0
g3
tp7662
a(I1
g5
tp7663
a(I0
g7
tp7664
a(I0
g15
tp7665
a(I0
g17
tp7666
a(I0
g19
tp7667
a(I0
g15
tp7668
a(I0
g17
tp7669
a(I0
g19
tp7670
a(I9
g15
tp7671
a(I0
g17
tp7672
a(I0
g19
tp7673
a(I3
g27
tp7674
a(I7
g29
tp7675
a(I0
g31
tp7676
a(I0
g27
tp7677
a(I0
g29
tp7678
a(I6
g31
tp7679
a(I0
g27
tp7680
a(I0
g29
tp7681
a(I0
g31
tp7682
a(I0
g3
tp7683
a(I0
g5
tp7684
a(I0
g7
tp7685
a(I0
g3
tp7686
a(I0
g5
tp7687
a(I7
g7
tp7688
a(I0
g3
tp7689
a(I0
g5
tp7690
a(I4
g7
tp7691
a(I0
g15
tp7692
a(I0
g17
tp7693
a(I0
g19
tp7694
a(I6
g15
tp7695
a(I0
g17
tp7696
a(I3
g19
tp7697
a(I0
g15
tp7698
a(I0
g17
tp7699
a(I0
g19
tp7700
a(I5
g27
tp7701
a(I0
g29
tp7702
a(I0
g31
tp7703
a(I1
g27
tp7704
a(I0
g29
tp7705
a(I0
g31
tp7706
a(I0
g27
tp7707
a(I0
g29
tp7708
a(I0
g31
tp7709
a(I0
g3
tp7710
a(I0
g5
tp7711
a(I0
g7
tp7712
a(I5
g3
tp7713
a(I0
g5
tp7714
a(I0
g7
tp7715
a(I0
g3
tp7716
a(I4
g5
tp7717
a(I8
g7
tp7718
a(I0
g15
tp7719
a(I0
g17
tp7720
a(I5
g19
tp7721
a(I0
g15
tp7722
a(I0
g17
tp7723
a(I0
g19
tp7724
a(I0
g15
tp7725
a(I0
g17
tp7726
a(I0
g19
tp7727
a(I0
g27
tp7728
a(I9
g29
tp7729
a(I0
g31
tp7730
a(I0
g27
tp7731
a(I0
g29
tp7732
a(I0
g31
tp7733
a(I0
g27
tp7734
a(I0
g29
tp7735
a(I7
g31
tp7736
atp7737
a(S'Harder (0)'
p7738
I12
(lp7739
(I0
g3
tp7740
a(I0
g5
tp7741
a(I0
g7
tp7742
a(I0
g3
tp7743
a(I6
g5
tp7744
a(I0
g7
tp7745
a(I9
g3
tp7746
a(I0
g5
tp7747
a(I0
g7
tp7748
a(I0
g15
tp7749
a(I0
g17
tp7750
a(I0
g19
tp7751
a(I0
g15
tp7752
a(I0
g17
tp7753
a(I4
g19
tp7754
a(I6
g15
tp7755
a(I1
g17
tp7756
a(I0
g19
tp7757
a(I1
g27
tp7758
a(I0
g29
tp7759
a(I0
g31
tp7760
a(I0
g27
tp7761
a(I0
g29
tp7762
a(I0
g31
tp7763
a(I0
g27
tp7764
a(I0
g29
tp7765
a(I0
g31
tp7766
a(I2
g3
tp7767
a(I0
g5
tp7768
a(I5
g7
tp7769
a(I0
g3
tp7770
a(I0
g5
tp7771
a(I1
g7
tp7772
a(I0
g3
tp7773
a(I0
g5
tp7774
a(I0
g7
tp7775
a(I9
g15
tp7776
a(I0
g17
tp7777
a(I0
g19
tp7778
a(I0
g15
tp7779
a(I8
g17
tp7780
a(I0
g19
tp7781
a(I0
g15
tp7782
a(I0
g17
tp7783
a(I1
g19
tp7784
a(I0
g27
tp7785
a(I0
g29
tp7786
a(I0
g31
tp7787
a(I6
g27
tp7788
a(I0
g29
tp7789
a(I0
g31
tp7790
a(I3
g27
tp7791
a(I0
g29
tp7792
a(I5
g31
tp7793
a(I0
g3
tp7794
a(I0
g5
tp7795
a(I0
g7
tp7796
a(I0
g3
tp7797
a(I0
g5
tp7798
a(I0
g7
tp7799
a(I0
g3
tp7800
a(I0
g5
tp7801
a(I3
g7
tp7802
a(I0
g15
tp7803
a(I7
g17
tp7804
a(I2
g19
tp7805
a(I4
g15
tp7806
a(I0
g17
tp7807
a(I0
g19
tp7808
a(I0
g15
tp7809
a(I0
g17
tp7810
a(I0
g19
tp7811
a(I0
g27
tp7812
a(I0
g29
tp7813
a(I1
g31
tp7814
a(I0
g27
tp7815
a(I3
g29
tp7816
a(I0
g31
tp7817
a(I0
g27
tp7818
a(I0
g29
tp7819
a(I0
g31
tp7820
atp7821
a(S'Harder (0)'
p7822
I13
(lp7823
(I0
g3
tp7824
a(I0
g5
tp7825
a(I4
g7
tp7826
a(I2
g3
tp7827
a(I0
g5
tp7828
a(I0
g7
tp7829
a(I5
g3
tp7830
a(I0
g5
tp7831
a(I0
g7
tp7832
a(I0
g15
tp7833
a(I0
g17
tp7834
a(I0
g19
tp7835
a(I0
g15
tp7836
a(I5
g17
tp7837
a(I0
g19
tp7838
a(I0
g15
tp7839
a(I0
g17
tp7840
a(I0
g19
tp7841
a(I5
g27
tp7842
a(I0
g29
tp7843
a(I0
g31
tp7844
a(I7
g27
tp7845
a(I0
g29
tp7846
a(I0
g31
tp7847
a(I0
g27
tp7848
a(I0
g29
tp7849
a(I0
g31
tp7850
a(I0
g3
tp7851
a(I4
g5
tp7852
a(I0
g7
tp7853
a(I0
g3
tp7854
a(I0
g5
tp7855
a(I6
g7
tp7856
a(I8
g3
tp7857
a(I0
g5
tp7858
a(I1
g7
tp7859
a(I0
g15
tp7860
a(I0
g17
tp7861
a(I0
g19
tp7862
a(I0
g15
tp7863
a(I0
g17
tp7864
a(I0
g19
tp7865
a(I0
g15
tp7866
a(I0
g17
tp7867
a(I0
g19
tp7868
a(I8
g27
tp7869
a(I0
g29
tp7870
a(I1
g31
tp7871
a(I4
g27
tp7872
a(I0
g29
tp7873
a(I0
g31
tp7874
a(I0
g27
tp7875
a(I3
g29
tp7876
a(I0
g31
tp7877
a(I0
g3
tp7878
a(I0
g5
tp7879
a(I0
g7
tp7880
a(I0
g3
tp7881
a(I0
g5
tp7882
a(I2
g7
tp7883
a(I0
g3
tp7884
a(I0
g5
tp7885
a(I5
g7
tp7886
a(I0
g15
tp7887
a(I0
g17
tp7888
a(I0
g19
tp7889
a(I0
g15
tp7890
a(I4
g17
tp7891
a(I0
g19
tp7892
a(I0
g15
tp7893
a(I0
g17
tp7894
a(I0
g19
tp7895
a(I0
g27
tp7896
a(I0
g29
tp7897
a(I6
g31
tp7898
a(I0
g27
tp7899
a(I0
g29
tp7900
a(I3
g31
tp7901
a(I1
g27
tp7902
a(I0
g29
tp7903
a(I0
g31
tp7904
atp7905
a(S'Harder (0)'
p7906
I14
(lp7907
(I0
g3
tp7908
a(I0
g5
tp7909
a(I0
g7
tp7910
a(I0
g3
tp7911
a(I3
g5
tp7912
a(I1
g7
tp7913
a(I0
g3
tp7914
a(I0
g5
tp7915
a(I0
g7
tp7916
a(I0
g15
tp7917
a(I0
g17
tp7918
a(I0
g19
tp7919
a(I7
g15
tp7920
a(I0
g17
tp7921
a(I0
g19
tp7922
a(I1
g15
tp7923
a(I0
g17
tp7924
a(I8
g19
tp7925
a(I0
g27
tp7926
a(I2
g29
tp7927
a(I0
g31
tp7928
a(I0
g27
tp7929
a(I0
g29
tp7930
a(I0
g31
tp7931
a(I7
g27
tp7932
a(I6
g29
tp7933
a(I0
g31
tp7934
a(I0
g3
tp7935
a(I0
g5
tp7936
a(I0
g7
tp7937
a(I0
g3
tp7938
a(I1
g5
tp7939
a(I0
g7
tp7940
a(I4
g3
tp7941
a(I0
g5
tp7942
a(I0
g7
tp7943
a(I0
g15
tp7944
a(I0
g17
tp7945
a(I5
g19
tp7946
a(I0
g15
tp7947
a(I9
g17
tp7948
a(I0
g19
tp7949
a(I3
g15
tp7950
a(I0
g17
tp7951
a(I0
g19
tp7952
a(I0
g27
tp7953
a(I0
g29
tp7954
a(I8
g31
tp7955
a(I0
g27
tp7956
a(I7
g29
tp7957
a(I0
g31
tp7958
a(I0
g27
tp7959
a(I0
g29
tp7960
a(I0
g31
tp7961
a(I0
g3
tp7962
a(I5
g5
tp7963
a(I7
g7
tp7964
a(I0
g3
tp7965
a(I0
g5
tp7966
a(I0
g7
tp7967
a(I0
g3
tp7968
a(I2
g5
tp7969
a(I0
g7
tp7970
a(I2
g15
tp7971
a(I0
g17
tp7972
a(I4
g19
tp7973
a(I0
g15
tp7974
a(I0
g17
tp7975
a(I7
g19
tp7976
a(I0
g15
tp7977
a(I0
g17
tp7978
a(I0
g19
tp7979
a(I0
g27
tp7980
a(I0
g29
tp7981
a(I0
g31
tp7982
a(I2
g27
tp7983
a(I8
g29
tp7984
a(I0
g31
tp7985
a(I0
g27
tp7986
a(I0
g29
tp7987
a(I0
g31
tp7988
atp7989
a(S'Harder (0)'
p7990
I15
(lp7991
(I0
g3
tp7992
a(I0
g5
tp7993
a(I0
g7
tp7994
a(I0
g3
tp7995
a(I0
g5
tp7996
a(I0
g7
tp7997
a(I7
g3
tp7998
a(I0
g5
tp7999
a(I6
g7
tp8000
a(I0
g15
tp8001
a(I0
g17
tp8002
a(I0
g19
tp8003
a(I2
g15
tp8004
a(I0
g17
tp8005
a(I0
g19
tp8006
a(I0
g15
tp8007
a(I0
g17
tp8008
a(I3
g19
tp8009
a(I0
g27
tp8010
a(I2
g29
tp8011
a(I0
g31
tp8012
a(I0
g27
tp8013
a(I0
g29
tp8014
a(I3
g31
tp8015
a(I0
g27
tp8016
a(I1
g29
tp8017
a(I9
g31
tp8018
a(I9
g3
tp8019
a(I0
g5
tp8020
a(I0
g7
tp8021
a(I0
g3
tp8022
a(I0
g5
tp8023
a(I0
g7
tp8024
a(I0
g3
tp8025
a(I0
g5
tp8026
a(I0
g7
tp8027
a(I0
g15
tp8028
a(I0
g17
tp8029
a(I6
g19
tp8030
a(I7
g15
tp8031
a(I0
g17
tp8032
a(I9
g19
tp8033
a(I3
g15
tp8034
a(I0
g17
tp8035
a(I0
g19
tp8036
a(I0
g27
tp8037
a(I0
g29
tp8038
a(I0
g31
tp8039
a(I0
g27
tp8040
a(I0
g29
tp8041
a(I0
g31
tp8042
a(I0
g27
tp8043
a(I0
g29
tp8044
a(I5
g31
tp8045
a(I2
g3
tp8046
a(I5
g5
tp8047
a(I0
g7
tp8048
a(I1
g3
tp8049
a(I0
g5
tp8050
a(I0
g7
tp8051
a(I0
g3
tp8052
a(I7
g5
tp8053
a(I0
g7
tp8054
a(I1
g15
tp8055
a(I0
g17
tp8056
a(I0
g19
tp8057
a(I0
g15
tp8058
a(I0
g17
tp8059
a(I8
g19
tp8060
a(I0
g15
tp8061
a(I0
g17
tp8062
a(I0
g19
tp8063
a(I3
g27
tp8064
a(I0
g29
tp8065
a(I8
g31
tp8066
a(I0
g27
tp8067
a(I0
g29
tp8068
a(I0
g31
tp8069
a(I0
g27
tp8070
a(I0
g29
tp8071
a(I0
g31
tp8072
atp8073
a.