(lp0
(S'Super easy (0)'
p1
I0
(lp2
(I0
S'red'
p3
tp4
a(I7
S'blue'
p5
tp6
a(I0
S'green'
p7
tp8
a(I0
g3
tp9
a(I0
g5
tp10
a(I0
g7
tp11
a(I0
g3
tp12
a(I0
g5
tp13
a(I0
g7
tp14
a(I0
S'yellow'
p15
tp16
a(I5
S'pink'
p17
tp18
a(I0
S'lblue'
p19
tp20
a(I8
g15
tp21
a(I0
g17
tp22
a(I0
g19
tp23
a(I0
g15
tp24
a(I0
g17
tp25
a(I0
g19
tp26
a(I0
S'black'
p27
tp28
a(I0
S'brown'
p29
tp30
a(I0
S'grey'
p31
tp32
a(I1
g27
tp33
a(I0
g29
tp34
a(I0
g31
tp35
a(I0
g27
tp36
a(I4
g29
tp37
a(I7
g31
tp38
a(I0
g3
tp39
a(I3
g5
tp40
a(I0
g7
tp41
a(I0
g3
tp42
a(I2
g5
tp43
a(I0
g7
tp44
a(I5
g3
tp45
a(I0
g5
tp46
a(I8
g7
tp47
a(I0
g15
tp48
a(I0
g17
tp49
a(I0
g19
tp50
a(I7
g15
tp51
a(I0
g17
tp52
a(I1
g19
tp53
a(I0
g15
tp54
a(I0
g17
tp55
a(I0
g19
tp56
a(I6
g27
tp57
a(I0
g29
tp58
a(I9
g31
tp59
a(I0
g27
tp60
a(I3
g29
tp61
a(I0
g31
tp62
a(I0
g27
tp63
a(I7
g29
tp64
a(I0
g31
tp65
a(I4
g3
tp66
a(I1
g5
tp67
a(I0
g7
tp68
a(I0
g3
tp69
a(I0
g5
tp70
a(I3
g7
tp71
a(I0
g3
tp72
a(I0
g5
tp73
a(I0
g7
tp74
a(I0
g15
tp75
a(I0
g17
tp76
a(I0
g19
tp77
a(I0
g15
tp78
a(I0
g17
tp79
a(I7
g19
tp80
a(I0
g15
tp81
a(I2
g17
tp82
a(I0
g19
tp83
a(I0
g27
tp84
a(I0
g29
tp85
a(I0
g31
tp86
a(I0
g27
tp87
a(I0
g29
tp88
a(I0
g31
tp89
a(I0
g27
tp90
a(I9
g29
tp91
a(I0
g31
tp92
atp93
a(S'Super easy (0)'
p94
I1
(lp95
(I4
g3
tp96
a(I0
g5
tp97
a(I0
g7
tp98
a(I0
g3
tp99
a(I0
g5
tp100
a(I0
g7
tp101
a(I0
g3
tp102
a(I2
g5
tp103
a(I5
g7
tp104
a(I0
g15
tp105
a(I0
g17
tp106
a(I0
g19
tp107
a(I0
g15
tp108
a(I4
g17
tp109
a(I0
g19
tp110
a(I8
g15
tp111
a(I0
g17
tp112
a(I0
g19
tp113
a(I0
g27
tp114
a(I0
g29
tp115
a(I2
g31
tp116
a(I0
g27
tp117
a(I0
g29
tp118
a(I8
g31
tp119
a(I0
g27
tp120
a(I9
g29
tp121
a(I0
g31
tp122
a(I0
g3
tp123
a(I0
g5
tp124
a(I0
g7
tp125
a(I1
g3
tp126
a(I9
g5
tp127
a(I0
g7
tp128
a(I0
g3
tp129
a(I3
g5
tp130
a(I0
g7
tp131
a(I0
g15
tp132
a(I2
g17
tp133
a(I0
g19
tp134
a(I0
g15
tp135
a(I0
g17
tp136
a(I0
g19
tp137
a(I0
g15
tp138
a(I5
g17
tp139
a(I0
g19
tp140
a(I0
g27
tp141
a(I3
g29
tp142
a(I0
g31
tp143
a(I0
g27
tp144
a(I6
g29
tp145
a(I5
g31
tp146
a(I0
g27
tp147
a(I0
g29
tp148
a(I0
g31
tp149
a(I0
g3
tp150
a(I5
g5
tp151
a(I0
g7
tp152
a(I9
g3
tp153
a(I0
g5
tp154
a(I0
g7
tp155
a(I3
g3
tp156
a(I0
g5
tp157
a(I0
g7
tp158
a(I0
g15
tp159
a(I0
g17
tp160
a(I7
g19
tp161
a(I0
g15
tp162
a(I3
g17
tp163
a(I0
g19
tp164
a(I0
g15
tp165
a(I0
g17
tp166
a(I0
g19
tp167
a(I3
g27
tp168
a(I1
g29
tp169
a(I0
g31
tp170
a(I0
g27
tp171
a(I0
g29
tp172
a(I0
g31
tp173
a(I0
g27
tp174
a(I0
g29
tp175
a(I7
g31
tp176
atp177
a(S'Super easy (0)'
p178
I2
(lp179
(I0
g3
tp180
a(I0
g5
tp181
a(I4
g7
tp182
a(I0
g3
tp183
a(I7
g5
tp184
a(I5
g7
tp185
a(I0
g3
tp186
a(I2
g5
tp187
a(I6
g7
tp188
a(I9
g15
tp189
a(I0
g17
tp190
a(I1
g19
tp191
a(I0
g15
tp192
a(I4
g17
tp193
a(I2
g19
tp194
a(I7
g15
tp195
a(I0
g17
tp196
a(I0
g19
tp197
a(I0
g27
tp198
a(I0
g29
tp199
a(I0
g31
tp200
a(I0
g27
tp201
a(I0
g29
tp202
a(I0
g31
tp203
a(I0
g27
tp204
a(I0
g29
tp205
a(I0
g31
tp206
a(I0
g3
tp207
a(I0
g5
tp208
a(I0
g7
tp209
a(I0
g3
tp210
a(I0
g5
tp211
a(I0
g7
tp212
a(I6
g3
tp213
a(I0
g5
tp214
a(I0
g7
tp215
a(I6
g15
tp216
a(I0
g17
tp217
a(I0
g19
tp218
a(I0
g15
tp219
a(I0
g17
tp220
a(I0
g19
tp221
a(I0
g15
tp222
a(I0
g17
tp223
a(I4
g19
tp224
a(I0
g27
tp225
a(I0
g29
tp226
a(I9
g31
tp227
a(I0
g27
tp228
a(I0
g29
tp229
a(I0
g31
tp230
a(I0
g27
tp231
a(I0
g29
tp232
a(I0
g31
tp233
a(I0
g3
tp234
a(I0
g5
tp235
a(I0
g7
tp236
a(I0
g3
tp237
a(I0
g5
tp238
a(I0
g7
tp239
a(I0
g3
tp240
a(I0
g5
tp241
a(I0
g7
tp242
a(I0
g15
tp243
a(I0
g17
tp244
a(I6
g19
tp245
a(I2
g15
tp246
a(I5
g17
tp247
a(I0
g19
tp248
a(I3
g15
tp249
a(I0
g17
tp250
a(I7
g19
tp251
a(I5
g27
tp252
a(I7
g29
tp253
a(I0
g31
tp254
a(I9
g27
tp255
a(I3
g29
tp256
a(I0
g31
tp257
a(I8
g27
tp258
a(I0
g29
tp259
a(I0
g31
tp260
atp261
a(S'Super easy (0)'
p262
I3
(lp263
(I0
g3
tp264
a(I7
g5
tp265
a(I0
g7
tp266
a(I0
g3
tp267
a(I5
g5
tp268
a(I4
g7
tp269
a(I0
g3
tp270
a(I3
g5
tp271
a(I0
g7
tp272
a(I0
g15
tp273
a(I0
g17
tp274
a(I0
g19
tp275
a(I0
g15
tp276
a(I0
g17
tp277
a(I0
g19
tp278
a(I0
g15
tp279
a(I0
g17
tp280
a(I0
g19
tp281
a(I0
g27
tp282
a(I0
g29
tp283
a(I0
g31
tp284
a(I0
g27
tp285
a(I9
g29
tp286
a(I0
g31
tp287
a(I6
g27
tp288
a(I4
g29
tp289
a(I0
g31
tp290
a(I0
g3
tp291
a(I0
g5
tp292
a(I0
g7
tp293
a(I0
g3
tp294
a(I0
g5
tp295
a(I0
g7
tp296
a(I0
g3
tp297
a(I0
g5
tp298
a(I6
g7
tp299
a(I5
g15
tp300
a(I0
g17
tp301
a(I1
g19
tp302
a(I8
g15
tp303
a(I0
g17
tp304
a(I6
g19
tp305
a(I3
g15
tp306
a(I0
g17
tp307
a(I7
g19
tp308
a(I7
g27
tp309
a(I0
g29
tp310
a(I0
g31
tp311
a(I0
g27
tp312
a(I0
g29
tp313
a(I0
g31
tp314
a(I0
g27
tp315
a(I0
g29
tp316
a(I0
g31
tp317
a(I0
g3
tp318
a(I9
g5
tp319
a(I7
g7
tp320
a(I0
g3
tp321
a(I4
g5
tp322
a(I0
g7
tp323
a(I0
g3
tp324
a(I0
g5
tp325
a(I0
g7
tp326
a(I0
g15
tp327
a(I0
g17
tp328
a(I0
g19
tp329
a(I0
g15
tp330
a(I0
g17
tp331
a(I0
g19
tp332
a(I0
g15
tp333
a(I0
g17
tp334
a(I0
g19
tp335
a(I0
g27
tp336
a(I8
g29
tp337
a(I0
g31
tp338
a(I3
g27
tp339
a(I7
g29
tp340
a(I0
g31
tp341
a(I0
g27
tp342
a(I5
g29
tp343
a(I0
g31
tp344
atp345
a(S'Super easy (0)'
p346
I4
(lp347
(I0
g3
tp348
a(I1
g5
tp349
a(I0
g7
tp350
a(I0
g3
tp351
a(I0
g5
tp352
a(I0
g7
tp353
a(I0
g3
tp354
a(I0
g5
tp355
a(I2
g7
tp356
a(I0
g15
tp357
a(I0
g17
tp358
a(I0
g19
tp359
a(I2
g15
tp360
a(I0
g17
tp361
a(I0
g19
tp362
a(I0
g15
tp363
a(I4
g17
tp364
a(I0
g19
tp365
a(I0
g27
tp366
a(I5
g29
tp367
a(I0
g31
tp368
a(I1
g27
tp369
a(I0
g29
tp370
a(I0
g31
tp371
a(I0
g27
tp372
a(I0
g29
tp373
a(I0
g31
tp374
a(I1
g3
tp375
a(I0
g5
tp376
a(I0
g7
tp377
a(I0
g3
tp378
a(I9
g5
tp379
a(I0
g7
tp380
a(I0
g3
tp381
a(I0
g5
tp382
a(I3
g7
tp383
a(I0
g15
tp384
a(I2
g17
tp385
a(I0
g19
tp386
a(I0
g15
tp387
a(I0
g17
tp388
a(I0
g19
tp389
a(I0
g15
tp390
a(I1
g17
tp391
a(I0
g19
tp392
a(I4
g27
tp393
a(I0
g29
tp394
a(I0
g31
tp395
a(I0
g27
tp396
a(I2
g29
tp397
a(I0
g31
tp398
a(I0
g27
tp399
a(I0
g29
tp400
a(I6
g31
tp401
a(I0
g3
tp402
a(I0
g5
tp403
a(I0
g7
tp404
a(I0
g3
tp405
a(I0
g5
tp406
a(I4
g7
tp407
a(I0
g3
tp408
a(I8
g5
tp409
a(I0
g7
tp410
a(I0
g15
tp411
a(I8
g17
tp412
a(I0
g19
tp413
a(I0
g15
tp414
a(I0
g17
tp415
a(I6
g19
tp416
a(I0
g15
tp417
a(I0
g17
tp418
a(I0
g19
tp419
a(I7
g27
tp420
a(I0
g29
tp421
a(I0
g31
tp422
a(I0
g27
tp423
a(I0
g29
tp424
a(I0
g31
tp425
a(I0
g27
tp426
a(I9
g29
tp427
a(I0
g31
tp428
atp429
a(S'Super easy (0)'
p430
I5
(lp431
(I0
g3
tp432
a(I0
g5
tp433
a(I0
g7
tp434
a(I0
g3
tp435
a(I4
g5
tp436
a(I6
g7
tp437
a(I0
g3
tp438
a(I5
g5
tp439
a(I0
g7
tp440
a(I0
g15
tp441
a(I0
g17
tp442
a(I0
g19
tp443
a(I0
g15
tp444
a(I1
g17
tp445
a(I0
g19
tp446
a(I2
g15
tp447
a(I9
g17
tp448
a(I0
g19
tp449
a(I0
g27
tp450
a(I0
g29
tp451
a(I0
g31
tp452
a(I0
g27
tp453
a(I0
g29
tp454
a(I3
g31
tp455
a(I7
g27
tp456
a(I0
g29
tp457
a(I6
g31
tp458
a(I0
g3
tp459
a(I0
g5
tp460
a(I0
g7
tp461
a(I0
g3
tp462
a(I0
g5
tp463
a(I8
g7
tp464
a(I0
g3
tp465
a(I0
g5
tp466
a(I0
g7
tp467
a(I0
g15
tp468
a(I0
g17
tp469
a(I3
g19
tp470
a(I0
g15
tp471
a(I0
g17
tp472
a(I0
g19
tp473
a(I8
g15
tp474
a(I0
g17
tp475
a(I0
g19
tp476
a(I0
g27
tp477
a(I0
g29
tp478
a(I0
g31
tp479
a(I4
g27
tp480
a(I0
g29
tp481
a(I0
g31
tp482
a(I0
g27
tp483
a(I0
g29
tp484
a(I0
g31
tp485
a(I5
g3
tp486
a(I0
g5
tp487
a(I4
g7
tp488
a(I1
g3
tp489
a(I0
g5
tp490
a(I0
g7
tp491
a(I0
g3
tp492
a(I0
g5
tp493
a(I0
g7
tp494
a(I0
g15
tp495
a(I7
g17
tp496
a(I9
g19
tp497
a(I0
g15
tp498
a(I5
g17
tp499
a(I0
g19
tp500
a(I0
g15
tp501
a(I0
g17
tp502
a(I0
g19
tp503
a(I0
g27
tp504
a(I1
g29
tp505
a(I0
g31
tp506
a(I3
g27
tp507
a(I2
g29
tp508
a(I0
g31
tp509
a(I0
g27
tp510
a(I0
g29
tp511
a(I0
g31
tp512
atp513
a(S'Super easy (0)'
p514
I6
(lp515
(I0
g3
tp516
a(I0
g5
tp517
a(I0
g7
tp518
a(I0
g3
tp519
a(I0
g5
tp520
a(I0
g7
tp521
a(I0
g3
tp522
a(I0
g5
tp523
a(I3
g7
tp524
a(I0
g15
tp525
a(I0
g17
tp526
a(I7
g19
tp527
a(I6
g15
tp528
a(I3
g17
tp529
a(I0
g19
tp530
a(I0
g15
tp531
a(I1
g17
tp532
a(I0
g19
tp533
a(I0
g27
tp534
a(I0
g29
tp535
a(I5
g31
tp536
a(I0
g27
tp537
a(I0
g29
tp538
a(I0
g31
tp539
a(I2
g27
tp540
a(I0
g29
tp541
a(I8
g31
tp542
a(I8
g3
tp543
a(I0
g5
tp544
a(I1
g7
tp545
a(I0
g3
tp546
a(I0
g5
tp547
a(I5
g7
tp548
a(I0
g3
tp549
a(I0
g5
tp550
a(I0
g7
tp551
a(I0
g15
tp552
a(I0
g17
tp553
a(I0
g19
tp554
a(I0
g15
tp555
a(I4
g17
tp556
a(I0
g19
tp557
a(I0
g15
tp558
a(I0
g17
tp559
a(I0
g19
tp560
a(I0
g27
tp561
a(I0
g29
tp562
a(I0
g31
tp563
a(I7
g27
tp564
a(I0
g29
tp565
a(I0
g31
tp566
a(I3
g27
tp567
a(I0
g29
tp568
a(I6
g31
tp569
a(I4
g3
tp570
a(I0
g5
tp571
a(I8
g7
tp572
a(I0
g3
tp573
a(I0
g5
tp574
a(I0
g7
tp575
a(I7
g3
tp576
a(I0
g5
tp577
a(I0
g7
tp578
a(I0
g15
tp579
a(I6
g17
tp580
a(I0
g19
tp581
a(I0
g15
tp582
a(I9
g17
tp583
a(I4
g19
tp584
a(I8
g15
tp585
a(I0
g17
tp586
a(I0
g19
tp587
a(I9
g27
tp588
a(I0
g29
tp589
a(I0
g31
tp590
a(I0
g27
tp591
a(I0
g29
tp592
a(I0
g31
tp593
a(I0
g27
tp594
a(I0
g29
tp595
a(I0
g31
tp596
atp597
a(S'Super easy (0)'
p598
I7
(lp599
(I0
g3
tp600
a(I7
g5
tp601
a(I0
g7
tp602
a(I1
g3
tp603
a(I0
g5
tp604
a(I5
g7
tp605
a(I0
g3
tp606
a(I0
g5
tp607
a(I0
g7
tp608
a(I0
g15
tp609
a(I6
g17
tp610
a(I0
g19
tp611
a(I0
g15
tp612
a(I8
g17
tp613
a(I0
g19
tp614
a(I0
g15
tp615
a(I0
g17
tp616
a(I0
g19
tp617
a(I0
g27
tp618
a(I0
g29
tp619
a(I0
g31
tp620
a(I0
g27
tp621
a(I0
g29
tp622
a(I3
g31
tp623
a(I0
g27
tp624
a(I0
g29
tp625
a(I7
g31
tp626
a(I0
g3
tp627
a(I0
g5
tp628
a(I7
g7
tp629
a(I5
g3
tp630
a(I3
g5
tp631
a(I0
g7
tp632
a(I0
g3
tp633
a(I0
g5
tp634
a(I0
g7
tp635
a(I0
g15
tp636
a(I0
g17
tp637
a(I5
g19
tp638
a(I7
g15
tp639
a(I0
g17
tp640
a(I6
g19
tp641
a(I2
g15
tp642
a(I0
g17
tp643
a(I0
g19
tp644
a(I0
g27
tp645
a(I0
g29
tp646
a(I0
g31
tp647
a(I0
g27
tp648
a(I2
g29
tp649
a(I4
g31
tp650
a(I1
g27
tp651
a(I0
g29
tp652
a(I0
g31
tp653
a(I3
g3
tp654
a(I0
g5
tp655
a(I0
g7
tp656
a(I6
g3
tp657
a(I0
g5
tp658
a(I0
g7
tp659
a(I0
g3
tp660
a(I0
g5
tp661
a(I0
g7
tp662
a(I0
g15
tp663
a(I0
g17
tp664
a(I0
g19
tp665
a(I0
g15
tp666
a(I7
g17
tp667
a(I0
g19
tp668
a(I0
g15
tp669
a(I9
g17
tp670
a(I0
g19
tp671
a(I0
g27
tp672
a(I0
g29
tp673
a(I0
g31
tp674
a(I3
g27
tp675
a(I0
g29
tp676
a(I9
g31
tp677
a(I0
g27
tp678
a(I4
g29
tp679
a(I0
g31
tp680
atp681
a(S'Super easy (0)'
p682
I8
(lp683
(I5
g3
tp684
a(I0
g5
tp685
a(I0
g7
tp686
a(I0
g3
tp687
a(I1
g5
tp688
a(I0
g7
tp689
a(I0
g3
tp690
a(I0
g5
tp691
a(I4
g7
tp692
a(I0
g15
tp693
a(I0
g17
tp694
a(I0
g19
tp695
a(I0
g15
tp696
a(I0
g17
tp697
a(I5
g19
tp698
a(I0
g15
tp699
a(I0
g17
tp700
a(I6
g19
tp701
a(I1
g27
tp702
a(I3
g29
tp703
a(I9
g31
tp704
a(I2
g27
tp705
a(I0
g29
tp706
a(I0
g31
tp707
a(I0
g27
tp708
a(I0
g29
tp709
a(I8
g31
tp710
a(I0
g3
tp711
a(I0
g5
tp712
a(I2
g7
tp713
a(I0
g3
tp714
a(I0
g5
tp715
a(I0
g7
tp716
a(I0
g3
tp717
a(I0
g5
tp718
a(I0
g7
tp719
a(I0
g15
tp720
a(I0
g17
tp721
a(I3
g19
tp722
a(I5
g15
tp723
a(I7
g17
tp724
a(I2
g19
tp725
a(I9
g15
tp726
a(I0
g17
tp727
a(I0
g19
tp728
a(I0
g27
tp729
a(I0
g29
tp730
a(I0
g31
tp731
a(I0
g27
tp732
a(I0
g29
tp733
a(I0
g31
tp734
a(I4
g27
tp735
a(I0
g29
tp736
a(I0
g31
tp737
a(I7
g3
tp738
a(I0
g5
tp739
a(I0
g7
tp740
a(I0
g3
tp741
a(I0
g5
tp742
a(I8
g7
tp743
a(I2
g3
tp744
a(I6
g5
tp745
a(I3
g7
tp746
a(I6
g15
tp747
a(I0
g17
tp748
a(I0
g19
tp749
a(I3
g15
tp750
a(I0
g17
tp751
a(I0
g19
tp752
a(I0
g15
tp753
a(I0
g17
tp754
a(I0
g19
tp755
a(I3
g27
tp756
a(I0
g29
tp757
a(I0
g31
tp758
a(I0
g27
tp759
a(I2
g29
tp760
a(I0
g31
tp761
a(I0
g27
tp762
a(I0
g29
tp763
a(I5
g31
tp764
atp765
a(S'Super easy (0)'
p766
I9
(lp767
(I0
g3
tp768
a(I0
g5
tp769
a(I0
g7
tp770
a(I0
g3
tp771
a(I0
g5
tp772
a(I5
g7
tp773
a(I0
g3
tp774
a(I0
g5
tp775
a(I0
g7
tp776
a(I1
g15
tp777
a(I0
g17
tp778
a(I0
g19
tp779
a(I8
g15
tp780
a(I0
g17
tp781
a(I0
g19
tp782
a(I0
g15
tp783
a(I5
g17
tp784
a(I0
g19
tp785
a(I5
g27
tp786
a(I0
g29
tp787
a(I0
g31
tp788
a(I0
g27
tp789
a(I3
g29
tp790
a(I0
g31
tp791
a(I6
g27
tp792
a(I2
g29
tp793
a(I0
g31
tp794
a(I0
g3
tp795
a(I6
g5
tp796
a(I0
g7
tp797
a(I0
g3
tp798
a(I0
g5
tp799
a(I0
g7
tp800
a(I7
g3
tp801
a(I0
g5
tp802
a(I2
g7
tp803
a(I0
g15
tp804
a(I0
g17
tp805
a(I0
g19
tp806
a(I2
g15
tp807
a(I0
g17
tp808
a(I7
g19
tp809
a(I0
g15
tp810
a(I0
g17
tp811
a(I0
g19
tp812
a(I3
g27
tp813
a(I0
g29
tp814
a(I2
g31
tp815
a(I0
g27
tp816
a(I0
g29
tp817
a(I0
g31
tp818
a(I0
g27
tp819
a(I1
g29
tp820
a(I0
g31
tp821
a(I0
g3
tp822
a(I2
g5
tp823
a(I8
g7
tp824
a(I0
g3
tp825
a(I1
g5
tp826
a(I0
g7
tp827
a(I0
g3
tp828
a(I0
g5
tp829
a(I6
g7
tp830
a(I0
g15
tp831
a(I9
g17
tp832
a(I0
g19
tp833
a(I0
g15
tp834
a(I0
g17
tp835
a(I8
g19
tp836
a(I0
g15
tp837
a(I0
g17
tp838
a(I3
g19
tp839
a(I0
g27
tp840
a(I0
g29
tp841
a(I0
g31
tp842
a(I4
g27
tp843
a(I0
g29
tp844
a(I0
g31
tp845
a(I0
g27
tp846
a(I0
g29
tp847
a(I0
g31
tp848
atp849
a(S'Very easy (0)'
p850
I0
(lp851
(I0
g3
tp852
a(I6
g5
tp853
a(I3
g7
tp854
a(I2
g3
tp855
a(I0
g5
tp856
a(I9
g7
tp857
a(I0
g3
tp858
a(I0
g5
tp859
a(I5
g7
tp860
a(I0
g15
tp861
a(I0
g17
tp862
a(I0
g19
tp863
a(I0
g15
tp864
a(I6
g17
tp865
a(I0
g19
tp866
a(I0
g15
tp867
a(I0
g17
tp868
a(I4
g19
tp869
a(I7
g27
tp870
a(I0
g29
tp871
a(I0
g31
tp872
a(I0
g27
tp873
a(I0
g29
tp874
a(I0
g31
tp875
a(I0
g27
tp876
a(I0
g29
tp877
a(I0
g31
tp878
a(I3
g3
tp879
a(I0
g5
tp880
a(I0
g7
tp881
a(I0
g3
tp882
a(I8
g5
tp883
a(I7
g7
tp884
a(I0
g3
tp885
a(I9
g5
tp886
a(I0
g7
tp887
a(I0
g15
tp888
a(I0
g17
tp889
a(I0
g19
tp890
a(I0
g15
tp891
a(I0
g17
tp892
a(I0
g19
tp893
a(I0
g15
tp894
a(I0
g17
tp895
a(I0
g19
tp896
a(I0
g27
tp897
a(I7
g29
tp898
a(I0
g31
tp899
a(I4
g27
tp900
a(I9
g29
tp901
a(I0
g31
tp902
a(I0
g27
tp903
a(I0
g29
tp904
a(I2
g31
tp905
a(I0
g3
tp906
a(I0
g5
tp907
a(I0
g7
tp908
a(I0
g3
tp909
a(I0
g5
tp910
a(I0
g7
tp911
a(I0
g3
tp912
a(I0
g5
tp913
a(I8
g7
tp914
a(I2
g15
tp915
a(I0
g17
tp916
a(I0
g19
tp917
a(I0
g15
tp918
a(I7
g17
tp919
a(I0
g19
tp920
a(I0
g15
tp921
a(I0
g17
tp922
a(I0
g19
tp923
a(I5
g27
tp924
a(I0
g29
tp925
a(I0
g31
tp926
a(I9
g27
tp927
a(I0
g29
tp928
a(I3
g31
tp929
a(I2
g27
tp930
a(I6
g29
tp931
a(I0
g31
tp932
atp933
a(S'Very easy (0)'
p934
I1
(lp935
(I8
g3
tp936
a(I0
g5
tp937
a(I0
g7
tp938
a(I0
g3
tp939
a(I0
g5
tp940
a(I0
g7
tp941
a(I2
g3
tp942
a(I0
g5
tp943
a(I0
g7
tp944
a(I0
g15
tp945
a(I4
g17
tp946
a(I0
g19
tp947
a(I0
g15
tp948
a(I0
g17
tp949
a(I0
g19
tp950
a(I0
g15
tp951
a(I0
g17
tp952
a(I7
g19
tp953
a(I0
g27
tp954
a(I9
g29
tp955
a(I2
g31
tp956
a(I0
g27
tp957
a(I0
g29
tp958
a(I7
g31
tp959
a(I0
g27
tp960
a(I4
g29
tp961
a(I0
g31
tp962
a(I0
g3
tp963
a(I8
g5
tp964
a(I0
g7
tp965
a(I0
g3
tp966
a(I0
g5
tp967
a(I3
g7
tp968
a(I0
g3
tp969
a(I0
g5
tp970
a(I0
g7
tp971
a(I0
g15
tp972
a(I0
g17
tp973
a(I0
g19
tp974
a(I9
g15
tp975
a(I0
g17
tp976
a(I8
g19
tp977
a(I0
g15
tp978
a(I0
g17
tp979
a(I0
g19
tp980
a(I0
g27
tp981
a(I0
g29
tp982
a(I0
g31
tp983
a(I6
g27
tp984
a(I0
g29
tp985
a(I0
g31
tp986
a(I0
g27
tp987
a(I8
g29
tp988
a(I0
g31
tp989
a(I0
g3
tp990
a(I7
g5
tp991
a(I0
g7
tp992
a(I5
g3
tp993
a(I0
g5
tp994
a(I0
g7
tp995
a(I4
g3
tp996
a(I9
g5
tp997
a(I0
g7
tp998
a(I3
g15
tp999
a(I0
g17
tp1000
a(I0
g19
tp1001
a(I0
g15
tp1002
a(I0
g17
tp1003
a(I0
g19
tp1004
a(I0
g15
tp1005
a(I2
g17
tp1006
a(I0
g19
tp1007
a(I0
g27
tp1008
a(I0
g29
tp1009
a(I9
g31
tp1010
a(I0
g27
tp1011
a(I0
g29
tp1012
a(I0
g31
tp1013
a(I0
g27
tp1014
a(I0
g29
tp1015
a(I5
g31
tp1016
atp1017
a(S'Very easy (0)'
p1018
I2
(lp1019
(I0
g3
tp1020
a(I0
g5
tp1021
a(I7
g7
tp1022
a(I3
g3
tp1023
a(I0
g5
tp1024
a(I0
g7
tp1025
a(I5
g3
tp1026
a(I0
g5
tp1027
a(I6
g7
tp1028
a(I0
g15
tp1029
a(I1
g17
tp1030
a(I0
g19
tp1031
a(I7
g15
tp1032
a(I9
g17
tp1033
a(I0
g19
tp1034
a(I4
g15
tp1035
a(I0
g17
tp1036
a(I0
g19
tp1037
a(I0
g27
tp1038
a(I0
g29
tp1039
a(I0
g31
tp1040
a(I0
g27
tp1041
a(I8
g29
tp1042
a(I0
g31
tp1043
a(I0
g27
tp1044
a(I0
g29
tp1045
a(I2
g31
tp1046
a(I0
g3
tp1047
a(I0
g5
tp1048
a(I0
g7
tp1049
a(I0
g3
tp1050
a(I0
g5
tp1051
a(I0
g7
tp1052
a(I8
g3
tp1053
a(I0
g5
tp1054
a(I0
g7
tp1055
a(I0
g15
tp1056
a(I0
g17
tp1057
a(I0
g19
tp1058
a(I0
g15
tp1059
a(I0
g17
tp1060
a(I0
g19
tp1061
a(I0
g15
tp1062
a(I0
g17
tp1063
a(I0
g19
tp1064
a(I0
g27
tp1065
a(I0
g29
tp1066
a(I5
g31
tp1067
a(I0
g27
tp1068
a(I0
g29
tp1069
a(I0
g31
tp1070
a(I0
g27
tp1071
a(I0
g29
tp1072
a(I0
g31
tp1073
a(I7
g3
tp1074
a(I0
g5
tp1075
a(I0
g7
tp1076
a(I0
g3
tp1077
a(I1
g5
tp1078
a(I0
g7
tp1079
a(I0
g3
tp1080
a(I0
g5
tp1081
a(I0
g7
tp1082
a(I0
g15
tp1083
a(I0
g17
tp1084
a(I9
g19
tp1085
a(I0
g15
tp1086
a(I6
g17
tp1087
a(I7
g19
tp1088
a(I0
g15
tp1089
a(I4
g17
tp1090
a(I0
g19
tp1091
a(I6
g27
tp1092
a(I0
g29
tp1093
a(I4
g31
tp1094
a(I0
g27
tp1095
a(I0
g29
tp1096
a(I8
g31
tp1097
a(I7
g27
tp1098
a(I0
g29
tp1099
a(I0
g31
tp1100
atp1101
a(S'Very easy (0)'
p1102
I3
(lp1103
(I0
g3
tp1104
a(I7
g5
tp1105
a(I0
g7
tp1106
a(I3
g3
tp1107
a(I0
g5
tp1108
a(I0
g7
tp1109
a(I0
g3
tp1110
a(I0
g5
tp1111
a(I8
g7
tp1112
a(I5
g15
tp1113
a(I0
g17
tp1114
a(I0
g19
tp1115
a(I0
g15
tp1116
a(I0
g17
tp1117
a(I0
g19
tp1118
a(I0
g15
tp1119
a(I6
g17
tp1120
a(I0
g19
tp1121
a(I0
g27
tp1122
a(I0
g29
tp1123
a(I0
g31
tp1124
a(I0
g27
tp1125
a(I0
g29
tp1126
a(I2
g31
tp1127
a(I0
g27
tp1128
a(I0
g29
tp1129
a(I9
g31
tp1130
a(I0
g3
tp1131
a(I0
g5
tp1132
a(I6
g7
tp1133
a(I0
g3
tp1134
a(I0
g5
tp1135
a(I0
g7
tp1136
a(I0
g3
tp1137
a(I4
g5
tp1138
a(I0
g7
tp1139
a(I3
g15
tp1140
a(I0
g17
tp1141
a(I0
g19
tp1142
a(I0
g15
tp1143
a(I8
g17
tp1144
a(I0
g19
tp1145
a(I0
g15
tp1146
a(I0
g17
tp1147
a(I7
g19
tp1148
a(I0
g27
tp1149
a(I2
g29
tp1150
a(I0
g31
tp1151
a(I0
g27
tp1152
a(I0
g29
tp1153
a(I0
g31
tp1154
a(I8
g27
tp1155
a(I0
g29
tp1156
a(I0
g31
tp1157
a(I9
g3
tp1158
a(I0
g5
tp1159
a(I0
g7
tp1160
a(I4
g3
tp1161
a(I0
g5
tp1162
a(I0
g7
tp1163
a(I0
g3
tp1164
a(I0
g5
tp1165
a(I0
g7
tp1166
a(I0
g15
tp1167
a(I1
g17
tp1168
a(I0
g19
tp1169
a(I0
g15
tp1170
a(I0
g17
tp1171
a(I0
g19
tp1172
a(I0
g15
tp1173
a(I0
g17
tp1174
a(I2
g19
tp1175
a(I6
g27
tp1176
a(I0
g29
tp1177
a(I0
g31
tp1178
a(I0
g27
tp1179
a(I0
g29
tp1180
a(I1
g31
tp1181
a(I0
g27
tp1182
a(I3
g29
tp1183
a(I0
g31
tp1184
atp1185
a(S'Very easy (0)'
p1186
I4
(lp1187
(I0
g3
tp1188
a(I0
g5
tp1189
a(I0
g7
tp1190
a(I0
g3
tp1191
a(I3
g5
tp1192
a(I1
g7
tp1193
a(I0
g3
tp1194
a(I0
g5
tp1195
a(I0
g7
tp1196
a(I0
g15
tp1197
a(I1
g17
tp1198
a(I0
g19
tp1199
a(I0
g15
tp1200
a(I0
g17
tp1201
a(I0
g19
tp1202
a(I0
g15
tp1203
a(I0
g17
tp1204
a(I3
g19
tp1205
a(I2
g27
tp1206
a(I0
g29
tp1207
a(I0
g31
tp1208
a(I0
g27
tp1209
a(I0
g29
tp1210
a(I0
g31
tp1211
a(I0
g27
tp1212
a(I0
g29
tp1213
a(I6
g31
tp1214
a(I0
g3
tp1215
a(I0
g5
tp1216
a(I0
g7
tp1217
a(I0
g3
tp1218
a(I0
g5
tp1219
a(I2
g7
tp1220
a(I6
g3
tp1221
a(I8
g5
tp1222
a(I0
g7
tp1223
a(I0
g15
tp1224
a(I3
g17
tp1225
a(I0
g19
tp1226
a(I9
g15
tp1227
a(I0
g17
tp1228
a(I5
g19
tp1229
a(I0
g15
tp1230
a(I7
g17
tp1231
a(I0
g19
tp1232
a(I0
g27
tp1233
a(I5
g29
tp1234
a(I8
g31
tp1235
a(I6
g27
tp1236
a(I0
g29
tp1237
a(I0
g31
tp1238
a(I0
g27
tp1239
a(I0
g29
tp1240
a(I0
g31
tp1241
a(I7
g3
tp1242
a(I0
g5
tp1243
a(I0
g7
tp1244
a(I0
g3
tp1245
a(I0
g5
tp1246
a(I0
g7
tp1247
a(I0
g3
tp1248
a(I0
g5
tp1249
a(I9
g7
tp1250
a(I3
g15
tp1251
a(I0
g17
tp1252
a(I0
g19
tp1253
a(I0
g15
tp1254
a(I0
g17
tp1255
a(I0
g19
tp1256
a(I0
g15
tp1257
a(I6
g17
tp1258
a(I0
g19
tp1259
a(I0
g27
tp1260
a(I0
g29
tp1261
a(I0
g31
tp1262
a(I7
g27
tp1263
a(I4
g29
tp1264
a(I0
g31
tp1265
a(I0
g27
tp1266
a(I0
g29
tp1267
a(I0
g31
tp1268
atp1269
a(S'Very easy (0)'
p1270
I5
(lp1271
(I7
g3
tp1272
a(I0
g5
tp1273
a(I0
g7
tp1274
a(I1
g3
tp1275
a(I0
g5
tp1276
a(I0
g7
tp1277
a(I0
g3
tp1278
a(I0
g5
tp1279
a(I0
g7
tp1280
a(I0
g15
tp1281
a(I2
g17
tp1282
a(I6
g19
tp1283
a(I5
g15
tp1284
a(I0
g17
tp1285
a(I0
g19
tp1286
a(I0
g15
tp1287
a(I3
g17
tp1288
a(I0
g19
tp1289
a(I9
g27
tp1290
a(I0
g29
tp1291
a(I0
g31
tp1292
a(I0
g27
tp1293
a(I0
g29
tp1294
a(I0
g31
tp1295
a(I0
g27
tp1296
a(I0
g29
tp1297
a(I0
g31
tp1298
a(I0
g3
tp1299
a(I0
g5
tp1300
a(I0
g7
tp1301
a(I0
g3
tp1302
a(I1
g5
tp1303
a(I4
g7
tp1304
a(I0
g3
tp1305
a(I0
g5
tp1306
a(I0
g7
tp1307
a(I0
g15
tp1308
a(I7
g17
tp1309
a(I0
g19
tp1310
a(I0
g15
tp1311
a(I0
g17
tp1312
a(I0
g19
tp1313
a(I0
g15
tp1314
a(I1
g17
tp1315
a(I0
g19
tp1316
a(I0
g27
tp1317
a(I0
g29
tp1318
a(I0
g31
tp1319
a(I8
g27
tp1320
a(I6
g29
tp1321
a(I0
g31
tp1322
a(I0
g27
tp1323
a(I0
g29
tp1324
a(I0
g31
tp1325
a(I0
g3
tp1326
a(I0
g5
tp1327
a(I0
g7
tp1328
a(I0
g3
tp1329
a(I0
g5
tp1330
a(I0
g7
tp1331
a(I0
g3
tp1332
a(I0
g5
tp1333
a(I7
g7
tp1334
a(I0
g15
tp1335
a(I4
g17
tp1336
a(I0
g19
tp1337
a(I0
g15
tp1338
a(I0
g17
tp1339
a(I1
g19
tp1340
a(I8
g15
tp1341
a(I6
g17
tp1342
a(I0
g19
tp1343
a(I0
g27
tp1344
a(I0
g29
tp1345
a(I0
g31
tp1346
a(I0
g27
tp1347
a(I0
g29
tp1348
a(I2
g31
tp1349
a(I0
g27
tp1350
a(I0
g29
tp1351
a(I5
g31
tp1352
atp1353
a(S'Very easy (0)'
p1354
I6
(lp1355
(I0
g3
tp1356
a(I4
g5
tp1357
a(I5
g7
tp1358
a(I2
g3
tp1359
a(I0
g5
tp1360
a(I3
g7
tp1361
a(I0
g3
tp1362
a(I0
g5
tp1363
a(I0
g7
tp1364
a(I8
g15
tp1365
a(I9
g17
tp1366
a(I0
g19
tp1367
a(I0
g15
tp1368
a(I0
g17
tp1369
a(I1
g19
tp1370
a(I0
g15
tp1371
a(I0
g17
tp1372
a(I0
g19
tp1373
a(I0
g27
tp1374
a(I0
g29
tp1375
a(I0
g31
tp1376
a(I0
g27
tp1377
a(I6
g29
tp1378
a(I0
g31
tp1379
a(I0
g27
tp1380
a(I0
g29
tp1381
a(I0
g31
tp1382
a(I0
g3
tp1383
a(I5
g5
tp1384
a(I0
g7
tp1385
a(I0
g3
tp1386
a(I0
g5
tp1387
a(I0
g7
tp1388
a(I0
g3
tp1389
a(I0
g5
tp1390
a(I0
g7
tp1391
a(I7
g15
tp1392
a(I1
g17
tp1393
a(I0
g19
tp1394
a(I0
g15
tp1395
a(I0
g17
tp1396
a(I0
g19
tp1397
a(I0
g15
tp1398
a(I5
g17
tp1399
a(I6
g19
tp1400
a(I0
g27
tp1401
a(I0
g29
tp1402
a(I0
g31
tp1403
a(I0
g27
tp1404
a(I0
g29
tp1405
a(I0
g31
tp1406
a(I0
g27
tp1407
a(I9
g29
tp1408
a(I0
g31
tp1409
a(I0
g3
tp1410
a(I0
g5
tp1411
a(I0
g7
tp1412
a(I0
g3
tp1413
a(I9
g5
tp1414
a(I0
g7
tp1415
a(I0
g3
tp1416
a(I0
g5
tp1417
a(I0
g7
tp1418
a(I0
g15
tp1419
a(I0
g17
tp1420
a(I0
g19
tp1421
a(I1
g15
tp1422
a(I0
g17
tp1423
a(I0
g19
tp1424
a(I0
g15
tp1425
a(I6
g17
tp1426
a(I2
g19
tp1427
a(I0
g27
tp1428
a(I0
g29
tp1429
a(I0
g31
tp1430
a(I8
g27
tp1431
a(I0
g29
tp1432
a(I6
g31
tp1433
a(I7
g27
tp1434
a(I4
g29
tp1435
a(I0
g31
tp1436
atp1437
a(S'Very easy (0)'
p1438
I7
(lp1439
(I0
g3
tp1440
a(I0
g5
tp1441
a(I0
g7
tp1442
a(I0
g3
tp1443
a(I0
g5
tp1444
a(I0
g7
tp1445
a(I7
g3
tp1446
a(I0
g5
tp1447
a(I0
g7
tp1448
a(I0
g15
tp1449
a(I2
g17
tp1450
a(I3
g19
tp1451
a(I0
g15
tp1452
a(I0
g17
tp1453
a(I6
g19
tp1454
a(I0
g15
tp1455
a(I0
g17
tp1456
a(I0
g19
tp1457
a(I7
g27
tp1458
a(I0
g29
tp1459
a(I0
g31
tp1460
a(I0
g27
tp1461
a(I0
g29
tp1462
a(I4
g31
tp1463
a(I0
g27
tp1464
a(I0
g29
tp1465
a(I5
g31
tp1466
a(I0
g3
tp1467
a(I0
g5
tp1468
a(I6
g7
tp1469
a(I0
g3
tp1470
a(I0
g5
tp1471
a(I8
g7
tp1472
a(I0
g3
tp1473
a(I0
g5
tp1474
a(I2
g7
tp1475
a(I0
g15
tp1476
a(I0
g17
tp1477
a(I0
g19
tp1478
a(I0
g15
tp1479
a(I6
g17
tp1480
a(I0
g19
tp1481
a(I0
g15
tp1482
a(I0
g17
tp1483
a(I0
g19
tp1484
a(I9
g27
tp1485
a(I0
g29
tp1486
a(I0
g31
tp1487
a(I4
g27
tp1488
a(I0
g29
tp1489
a(I0
g31
tp1490
a(I1
g27
tp1491
a(I0
g29
tp1492
a(I0
g31
tp1493
a(I5
g3
tp1494
a(I0
g5
tp1495
a(I0
g7
tp1496
a(I1
g3
tp1497
a(I0
g5
tp1498
a(I0
g7
tp1499
a(I0
g3
tp1500
a(I0
g5
tp1501
a(I4
g7
tp1502
a(I0
g15
tp1503
a(I0
g17
tp1504
a(I0
g19
tp1505
a(I6
g15
tp1506
a(I0
g17
tp1507
a(I0
g19
tp1508
a(I2
g15
tp1509
a(I7
g17
tp1510
a(I0
g19
tp1511
a(I0
g27
tp1512
a(I0
g29
tp1513
a(I8
g31
tp1514
a(I0
g27
tp1515
a(I0
g29
tp1516
a(I0
g31
tp1517
a(I0
g27
tp1518
a(I0
g29
tp1519
a(I0
g31
tp1520
atp1521
a(S'Very easy (0)'
p1522
I8
(lp1523
(I0
g3
tp1524
a(I9
g5
tp1525
a(I0
g7
tp1526
a(I0
g3
tp1527
a(I2
g5
tp1528
a(I0
g7
tp1529
a(I5
g3
tp1530
a(I0
g5
tp1531
a(I0
g7
tp1532
a(I2
g15
tp1533
a(I0
g17
tp1534
a(I0
g19
tp1535
a(I0
g15
tp1536
a(I0
g17
tp1537
a(I0
g19
tp1538
a(I7
g15
tp1539
a(I0
g17
tp1540
a(I0
g19
tp1541
a(I8
g27
tp1542
a(I7
g29
tp1543
a(I0
g31
tp1544
a(I0
g27
tp1545
a(I0
g29
tp1546
a(I0
g31
tp1547
a(I2
g27
tp1548
a(I0
g29
tp1549
a(I0
g31
tp1550
a(I3
g3
tp1551
a(I0
g5
tp1552
a(I0
g7
tp1553
a(I0
g3
tp1554
a(I0
g5
tp1555
a(I0
g7
tp1556
a(I0
g3
tp1557
a(I0
g5
tp1558
a(I0
g7
tp1559
a(I0
g15
tp1560
a(I0
g17
tp1561
a(I0
g19
tp1562
a(I0
g15
tp1563
a(I0
g17
tp1564
a(I0
g19
tp1565
a(I0
g15
tp1566
a(I0
g17
tp1567
a(I0
g19
tp1568
a(I0
g27
tp1569
a(I0
g29
tp1570
a(I0
g31
tp1571
a(I0
g27
tp1572
a(I0
g29
tp1573
a(I0
g31
tp1574
a(I0
g27
tp1575
a(I0
g29
tp1576
a(I5
g31
tp1577
a(I0
g3
tp1578
a(I0
g5
tp1579
a(I4
g7
tp1580
a(I0
g3
tp1581
a(I0
g5
tp1582
a(I0
g7
tp1583
a(I0
g3
tp1584
a(I1
g5
tp1585
a(I6
g7
tp1586
a(I0
g15
tp1587
a(I0
g17
tp1588
a(I1
g19
tp1589
a(I0
g15
tp1590
a(I0
g17
tp1591
a(I0
g19
tp1592
a(I0
g15
tp1593
a(I0
g17
tp1594
a(I2
g19
tp1595
a(I0
g27
tp1596
a(I0
g29
tp1597
a(I9
g31
tp1598
a(I0
g27
tp1599
a(I1
g29
tp1600
a(I0
g31
tp1601
a(I0
g27
tp1602
a(I4
g29
tp1603
a(I0
g31
tp1604
atp1605
a(S'Very easy (0)'
p1606
I9
(lp1607
(I0
g3
tp1608
a(I0
g5
tp1609
a(I0
g7
tp1610
a(I7
g3
tp1611
a(I0
g5
tp1612
a(I0
g7
tp1613
a(I0
g3
tp1614
a(I0
g5
tp1615
a(I0
g7
tp1616
a(I6
g15
tp1617
a(I4
g17
tp1618
a(I0
g19
tp1619
a(I0
g15
tp1620
a(I1
g17
tp1621
a(I0
g19
tp1622
a(I0
g15
tp1623
a(I0
g17
tp1624
a(I0
g19
tp1625
a(I0
g27
tp1626
a(I0
g29
tp1627
a(I0
g31
tp1628
a(I0
g27
tp1629
a(I0
g29
tp1630
a(I0
g31
tp1631
a(I6
g27
tp1632
a(I0
g29
tp1633
a(I2
g31
tp1634
a(I1
g3
tp1635
a(I0
g5
tp1636
a(I0
g7
tp1637
a(I0
g3
tp1638
a(I7
g5
tp1639
a(I0
g7
tp1640
a(I2
g3
tp1641
a(I0
g5
tp1642
a(I0
g7
tp1643
a(I0
g15
tp1644
a(I0
g17
tp1645
a(I0
g19
tp1646
a(I8
g15
tp1647
a(I0
g17
tp1648
a(I6
g19
tp1649
a(I0
g15
tp1650
a(I0
g17
tp1651
a(I0
g19
tp1652
a(I0
g27
tp1653
a(I0
g29
tp1654
a(I6
g31
tp1655
a(I0
g27
tp1656
a(I2
g29
tp1657
a(I0
g31
tp1658
a(I0
g27
tp1659
a(I0
g29
tp1660
a(I7
g31
tp1661
a(I9
g3
tp1662
a(I0
g5
tp1663
a(I3
g7
tp1664
a(I0
g3
tp1665
a(I0
g5
tp1666
a(I0
g7
tp1667
a(I0
g3
tp1668
a(I0
g5
tp1669
a(I0
g7
tp1670
a(I0
g15
tp1671
a(I0
g17
tp1672
a(I0
g19
tp1673
a(I0
g15
tp1674
a(I3
g17
tp1675
a(I0
g19
tp1676
a(I0
g15
tp1677
a(I7
g17
tp1678
a(I5
g19
tp1679
a(I0
g27
tp1680
a(I0
g29
tp1681
a(I0
g31
tp1682
a(I0
g27
tp1683
a(I0
g29
tp1684
a(I8
g31
tp1685
a(I0
g27
tp1686
a(I0
g29
tp1687
a(I0
g31
tp1688
atp1689
a(S'Easy (0)'
p1690
I0
(lp1691
(I6
g3
tp1692
a(I1
g5
tp1693
a(I0
g7
tp1694
a(I0
g3
tp1695
a(I0
g5
tp1696
a(I0
g7
tp1697
a(I7
g3
tp1698
a(I9
g5
tp1699
a(I0
g7
tp1700
a(I0
g15
tp1701
a(I0
g17
tp1702
a(I0
g19
tp1703
a(I0
g15
tp1704
a(I0
g17
tp1705
a(I1
g19
tp1706
a(I0
g15
tp1707
a(I3
g17
tp1708
a(I0
g19
tp1709
a(I0
g27
tp1710
a(I0
g29
tp1711
a(I0
g31
tp1712
a(I8
g27
tp1713
a(I0
g29
tp1714
a(I0
g31
tp1715
a(I0
g27
tp1716
a(I0
g29
tp1717
a(I0
g31
tp1718
a(I0
g3
tp1719
a(I5
g5
tp1720
a(I0
g7
tp1721
a(I0
g3
tp1722
a(I0
g5
tp1723
a(I3
g7
tp1724
a(I0
g3
tp1725
a(I0
g5
tp1726
a(I0
g7
tp1727
a(I3
g15
tp1728
a(I0
g17
tp1729
a(I0
g19
tp1730
a(I0
g15
tp1731
a(I0
g17
tp1732
a(I0
g19
tp1733
a(I0
g15
tp1734
a(I0
g17
tp1735
a(I6
g19
tp1736
a(I0
g27
tp1737
a(I0
g29
tp1738
a(I0
g31
tp1739
a(I1
g27
tp1740
a(I0
g29
tp1741
a(I0
g31
tp1742
a(I0
g27
tp1743
a(I4
g29
tp1744
a(I0
g31
tp1745
a(I0
g3
tp1746
a(I0
g5
tp1747
a(I0
g7
tp1748
a(I0
g3
tp1749
a(I0
g5
tp1750
a(I5
g7
tp1751
a(I0
g3
tp1752
a(I0
g5
tp1753
a(I0
g7
tp1754
a(I0
g15
tp1755
a(I8
g17
tp1756
a(I0
g19
tp1757
a(I4
g15
tp1758
a(I0
g17
tp1759
a(I0
g19
tp1760
a(I0
g15
tp1761
a(I0
g17
tp1762
a(I0
g19
tp1763
a(I0
g27
tp1764
a(I7
g29
tp1765
a(I2
g31
tp1766
a(I0
g27
tp1767
a(I0
g29
tp1768
a(I0
g31
tp1769
a(I0
g27
tp1770
a(I1
g29
tp1771
a(I4
g31
tp1772
atp1773
a(S'Easy (0)'
p1774
I1
(lp1775
(I0
g3
tp1776
a(I0
g5
tp1777
a(I0
g7
tp1778
a(I0
g3
tp1779
a(I0
g5
tp1780
a(I8
g7
tp1781
a(I3
g3
tp1782
a(I2
g5
tp1783
a(I0
g7
tp1784
a(I0
g15
tp1785
a(I0
g17
tp1786
a(I0
g19
tp1787
a(I4
g15
tp1788
a(I7
g17
tp1789
a(I0
g19
tp1790
a(I1
g15
tp1791
a(I0
g17
tp1792
a(I0
g19
tp1793
a(I0
g27
tp1794
a(I0
g29
tp1795
a(I8
g31
tp1796
a(I0
g27
tp1797
a(I0
g29
tp1798
a(I0
g31
tp1799
a(I0
g27
tp1800
a(I0
g29
tp1801
a(I4
g31
tp1802
a(I0
g3
tp1803
a(I0
g5
tp1804
a(I4
g7
tp1805
a(I0
g3
tp1806
a(I8
g5
tp1807
a(I0
g7
tp1808
a(I0
g3
tp1809
a(I0
g5
tp1810
a(I0
g7
tp1811
a(I9
g15
tp1812
a(I0
g17
tp1813
a(I0
g19
tp1814
a(I0
g15
tp1815
a(I0
g17
tp1816
a(I0
g19
tp1817
a(I0
g15
tp1818
a(I0
g17
tp1819
a(I5
g19
tp1820
a(I0
g27
tp1821
a(I0
g29
tp1822
a(I0
g31
tp1823
a(I0
g27
tp1824
a(I6
g29
tp1825
a(I0
g31
tp1826
a(I2
g27
tp1827
a(I0
g29
tp1828
a(I0
g31
tp1829
a(I6
g3
tp1830
a(I0
g5
tp1831
a(I0
g7
tp1832
a(I0
g3
tp1833
a(I0
g5
tp1834
a(I0
g7
tp1835
a(I9
g3
tp1836
a(I0
g5
tp1837
a(I0
g7
tp1838
a(I0
g15
tp1839
a(I0
g17
tp1840
a(I2
g19
tp1841
a(I0
g15
tp1842
a(I3
g17
tp1843
a(I4
g19
tp1844
a(I0
g15
tp1845
a(I0
g17
tp1846
a(I0
g19
tp1847
a(I0
g27
tp1848
a(I8
g29
tp1849
a(I5
g31
tp1850
a(I9
g27
tp1851
a(I0
g29
tp1852
a(I0
g31
tp1853
a(I0
g27
tp1854
a(I0
g29
tp1855
a(I0
g31
tp1856
atp1857
a(S'Easy (0)'
p1858
I2
(lp1859
(I9
g3
tp1860
a(I7
g5
tp1861
a(I0
g7
tp1862
a(I0
g3
tp1863
a(I0
g5
tp1864
a(I0
g7
tp1865
a(I0
g3
tp1866
a(I0
g5
tp1867
a(I0
g7
tp1868
a(I0
g15
tp1869
a(I0
g17
tp1870
a(I0
g19
tp1871
a(I2
g15
tp1872
a(I7
g17
tp1873
a(I9
g19
tp1874
a(I6
g15
tp1875
a(I0
g17
tp1876
a(I0
g19
tp1877
a(I3
g27
tp1878
a(I0
g29
tp1879
a(I0
g31
tp1880
a(I0
g27
tp1881
a(I0
g29
tp1882
a(I8
g31
tp1883
a(I0
g27
tp1884
a(I0
g29
tp1885
a(I0
g31
tp1886
a(I0
g3
tp1887
a(I2
g5
tp1888
a(I0
g7
tp1889
a(I0
g3
tp1890
a(I0
g5
tp1891
a(I5
g7
tp1892
a(I8
g3
tp1893
a(I0
g5
tp1894
a(I0
g7
tp1895
a(I0
g15
tp1896
a(I0
g17
tp1897
a(I0
g19
tp1898
a(I0
g15
tp1899
a(I0
g17
tp1900
a(I0
g19
tp1901
a(I0
g15
tp1902
a(I0
g17
tp1903
a(I0
g19
tp1904
a(I0
g27
tp1905
a(I0
g29
tp1906
a(I1
g31
tp1907
a(I8
g27
tp1908
a(I0
g29
tp1909
a(I0
g31
tp1910
a(I0
g27
tp1911
a(I3
g29
tp1912
a(I0
g31
tp1913
a(I0
g3
tp1914
a(I0
g5
tp1915
a(I0
g7
tp1916
a(I3
g3
tp1917
a(I0
g5
tp1918
a(I0
g7
tp1919
a(I0
g3
tp1920
a(I0
g5
tp1921
a(I8
g7
tp1922
a(I0
g15
tp1923
a(I0
g17
tp1924
a(I5
g19
tp1925
a(I7
g15
tp1926
a(I6
g17
tp1927
a(I1
g19
tp1928
a(I0
g15
tp1929
a(I0
g17
tp1930
a(I0
g19
tp1931
a(I0
g27
tp1932
a(I0
g29
tp1933
a(I0
g31
tp1934
a(I0
g27
tp1935
a(I0
g29
tp1936
a(I0
g31
tp1937
a(I0
g27
tp1938
a(I1
g29
tp1939
a(I6
g31
tp1940
atp1941
a(S'Easy (0)'
p1942
I3
(lp1943
(I6
g3
tp1944
a(I0
g5
tp1945
a(I2
g7
tp1946
a(I0
g3
tp1947
a(I7
g5
tp1948
a(I0
g7
tp1949
a(I0
g3
tp1950
a(I3
g5
tp1951
a(I1
g7
tp1952
a(I1
g15
tp1953
a(I4
g17
tp1954
a(I0
g19
tp1955
a(I0
g15
tp1956
a(I9
g17
tp1957
a(I0
g19
tp1958
a(I0
g15
tp1959
a(I0
g17
tp1960
a(I2
g19
tp1961
a(I0
g27
tp1962
a(I0
g29
tp1963
a(I0
g31
tp1964
a(I0
g27
tp1965
a(I0
g29
tp1966
a(I0
g31
tp1967
a(I0
g27
tp1968
a(I0
g29
tp1969
a(I0
g31
tp1970
a(I0
g3
tp1971
a(I0
g5
tp1972
a(I0
g7
tp1973
a(I0
g3
tp1974
a(I0
g5
tp1975
a(I0
g7
tp1976
a(I9
g3
tp1977
a(I6
g5
tp1978
a(I0
g7
tp1979
a(I0
g15
tp1980
a(I0
g17
tp1981
a(I0
g19
tp1982
a(I6
g15
tp1983
a(I0
g17
tp1984
a(I9
g19
tp1985
a(I0
g15
tp1986
a(I0
g17
tp1987
a(I0
g19
tp1988
a(I0
g27
tp1989
a(I6
g29
tp1990
a(I8
g31
tp1991
a(I0
g27
tp1992
a(I0
g29
tp1993
a(I0
g31
tp1994
a(I0
g27
tp1995
a(I0
g29
tp1996
a(I0
g31
tp1997
a(I0
g3
tp1998
a(I0
g5
tp1999
a(I0
g7
tp2000
a(I0
g3
tp2001
a(I0
g5
tp2002
a(I0
g7
tp2003
a(I0
g3
tp2004
a(I0
g5
tp2005
a(I0
g7
tp2006
a(I4
g15
tp2007
a(I0
g17
tp2008
a(I0
g19
tp2009
a(I0
g15
tp2010
a(I6
g17
tp2011
a(I0
g19
tp2012
a(I0
g15
tp2013
a(I2
g17
tp2014
a(I5
g19
tp2015
a(I8
g27
tp2016
a(I7
g29
tp2017
a(I0
g31
tp2018
a(I0
g27
tp2019
a(I1
g29
tp2020
a(I0
g31
tp2021
a(I3
g27
tp2022
a(I0
g29
tp2023
a(I4
g31
tp2024
atp2025
a(S'Easy (0)'
p2026
I4
(lp2027
(I0
g3
tp2028
a(I0
g5
tp2029
a(I0
g7
tp2030
a(I0
g3
tp2031
a(I0
g5
tp2032
a(I7
g7
tp2033
a(I0
g3
tp2034
a(I0
g5
tp2035
a(I0
g7
tp2036
a(I0
g15
tp2037
a(I0
g17
tp2038
a(I3
g19
tp2039
a(I0
g15
tp2040
a(I0
g17
tp2041
a(I9
g19
tp2042
a(I0
g15
tp2043
a(I0
g17
tp2044
a(I0
g19
tp2045
a(I4
g27
tp2046
a(I0
g29
tp2047
a(I0
g31
tp2048
a(I0
g27
tp2049
a(I5
g29
tp2050
a(I0
g31
tp2051
a(I0
g27
tp2052
a(I0
g29
tp2053
a(I2
g31
tp2054
a(I0
g3
tp2055
a(I3
g5
tp2056
a(I6
g7
tp2057
a(I0
g3
tp2058
a(I1
g5
tp2059
a(I0
g7
tp2060
a(I0
g3
tp2061
a(I0
g5
tp2062
a(I0
g7
tp2063
a(I0
g15
tp2064
a(I0
g17
tp2065
a(I7
g19
tp2066
a(I9
g15
tp2067
a(I0
g17
tp2068
a(I4
g19
tp2069
a(I3
g15
tp2070
a(I0
g17
tp2071
a(I0
g19
tp2072
a(I0
g27
tp2073
a(I0
g29
tp2074
a(I0
g31
tp2075
a(I0
g27
tp2076
a(I3
g29
tp2077
a(I0
g31
tp2078
a(I9
g27
tp2079
a(I7
g29
tp2080
a(I0
g31
tp2081
a(I3
g3
tp2082
a(I0
g5
tp2083
a(I0
g7
tp2084
a(I0
g3
tp2085
a(I7
g5
tp2086
a(I0
g7
tp2087
a(I0
g3
tp2088
a(I0
g5
tp2089
a(I9
g7
tp2090
a(I0
g15
tp2091
a(I0
g17
tp2092
a(I0
g19
tp2093
a(I4
g15
tp2094
a(I0
g17
tp2095
a(I0
g19
tp2096
a(I1
g15
tp2097
a(I0
g17
tp2098
a(I0
g19
tp2099
a(I0
g27
tp2100
a(I0
g29
tp2101
a(I0
g31
tp2102
a(I2
g27
tp2103
a(I0
g29
tp2104
a(I0
g31
tp2105
a(I0
g27
tp2106
a(I0
g29
tp2107
a(I0
g31
tp2108
atp2109
a(S'Easy (0)'
p2110
I5
(lp2111
(I9
g3
tp2112
a(I0
g5
tp2113
a(I6
g7
tp2114
a(I0
g3
tp2115
a(I0
g5
tp2116
a(I8
g7
tp2117
a(I0
g3
tp2118
a(I0
g5
tp2119
a(I0
g7
tp2120
a(I2
g15
tp2121
a(I0
g17
tp2122
a(I0
g19
tp2123
a(I0
g15
tp2124
a(I0
g17
tp2125
a(I4
g19
tp2126
a(I0
g15
tp2127
a(I6
g17
tp2128
a(I0
g19
tp2129
a(I0
g27
tp2130
a(I3
g29
tp2131
a(I0
g31
tp2132
a(I0
g27
tp2133
a(I7
g29
tp2134
a(I0
g31
tp2135
a(I0
g27
tp2136
a(I0
g29
tp2137
a(I0
g31
tp2138
a(I0
g3
tp2139
a(I0
g5
tp2140
a(I0
g7
tp2141
a(I0
g3
tp2142
a(I0
g5
tp2143
a(I0
g7
tp2144
a(I0
g3
tp2145
a(I5
g5
tp2146
a(I0
g7
tp2147
a(I0
g15
tp2148
a(I0
g17
tp2149
a(I0
g19
tp2150
a(I1
g15
tp2151
a(I0
g17
tp2152
a(I6
g19
tp2153
a(I0
g15
tp2154
a(I0
g17
tp2155
a(I0
g19
tp2156
a(I0
g27
tp2157
a(I9
g29
tp2158
a(I0
g31
tp2159
a(I0
g27
tp2160
a(I0
g29
tp2161
a(I0
g31
tp2162
a(I0
g27
tp2163
a(I0
g29
tp2164
a(I0
g31
tp2165
a(I0
g3
tp2166
a(I0
g5
tp2167
a(I0
g7
tp2168
a(I0
g3
tp2169
a(I6
g5
tp2170
a(I0
g7
tp2171
a(I0
g3
tp2172
a(I7
g5
tp2173
a(I0
g7
tp2174
a(I0
g15
tp2175
a(I5
g17
tp2176
a(I0
g19
tp2177
a(I4
g15
tp2178
a(I0
g17
tp2179
a(I0
g19
tp2180
a(I0
g15
tp2181
a(I0
g17
tp2182
a(I1
g19
tp2183
a(I0
g27
tp2184
a(I0
g29
tp2185
a(I0
g31
tp2186
a(I9
g27
tp2187
a(I0
g29
tp2188
a(I0
g31
tp2189
a(I4
g27
tp2190
a(I0
g29
tp2191
a(I5
g31
tp2192
atp2193
a(S'Easy (0)'
p2194
I6
(lp2195
(I0
g3
tp2196
a(I8
g5
tp2197
a(I0
g7
tp2198
a(I0
g3
tp2199
a(I0
g5
tp2200
a(I0
g7
tp2201
a(I0
g3
tp2202
a(I9
g5
tp2203
a(I0
g7
tp2204
a(I0
g15
tp2205
a(I0
g17
tp2206
a(I0
g19
tp2207
a(I7
g15
tp2208
a(I0
g17
tp2209
a(I0
g19
tp2210
a(I1
g15
tp2211
a(I0
g17
tp2212
a(I0
g19
tp2213
a(I0
g27
tp2214
a(I0
g29
tp2215
a(I0
g31
tp2216
a(I0
g27
tp2217
a(I1
g29
tp2218
a(I6
g31
tp2219
a(I0
g27
tp2220
a(I0
g29
tp2221
a(I0
g31
tp2222
a(I0
g3
tp2223
a(I0
g5
tp2224
a(I2
g7
tp2225
a(I0
g3
tp2226
a(I0
g5
tp2227
a(I0
g7
tp2228
a(I6
g3
tp2229
a(I1
g5
tp2230
a(I0
g7
tp2231
a(I0
g15
tp2232
a(I0
g17
tp2233
a(I8
g19
tp2234
a(I0
g15
tp2235
a(I0
g17
tp2236
a(I0
g19
tp2237
a(I3
g15
tp2238
a(I0
g17
tp2239
a(I0
g19
tp2240
a(I0
g27
tp2241
a(I6
g29
tp2242
a(I4
g31
tp2243
a(I0
g27
tp2244
a(I0
g29
tp2245
a(I0
g31
tp2246
a(I9
g27
tp2247
a(I0
g29
tp2248
a(I0
g31
tp2249
a(I0
g3
tp2250
a(I0
g5
tp2251
a(I0
g7
tp2252
a(I1
g3
tp2253
a(I4
g5
tp2254
a(I0
g7
tp2255
a(I0
g3
tp2256
a(I0
g5
tp2257
a(I0
g7
tp2258
a(I0
g15
tp2259
a(I0
g17
tp2260
a(I3
g19
tp2261
a(I0
g15
tp2262
a(I0
g17
tp2263
a(I5
g19
tp2264
a(I0
g15
tp2265
a(I0
g17
tp2266
a(I0
g19
tp2267
a(I0
g27
tp2268
a(I5
g29
tp2269
a(I0
g31
tp2270
a(I0
g27
tp2271
a(I0
g29
tp2272
a(I0
g31
tp2273
a(I0
g27
tp2274
a(I4
g29
tp2275
a(I0
g31
tp2276
atp2277
a(S'Easy (0)'
p2278
I7
(lp2279
(I0
g3
tp2280
a(I0
g5
tp2281
a(I0
g7
tp2282
a(I0
g3
tp2283
a(I0
g5
tp2284
a(I0
g7
tp2285
a(I0
g3
tp2286
a(I0
g5
tp2287
a(I3
g7
tp2288
a(I0
g15
tp2289
a(I0
g17
tp2290
a(I0
g19
tp2291
a(I2
g15
tp2292
a(I0
g17
tp2293
a(I6
g19
tp2294
a(I9
g15
tp2295
a(I0
g17
tp2296
a(I0
g19
tp2297
a(I0
g27
tp2298
a(I0
g29
tp2299
a(I0
g31
tp2300
a(I0
g27
tp2301
a(I3
g29
tp2302
a(I0
g31
tp2303
a(I8
g27
tp2304
a(I2
g29
tp2305
a(I0
g31
tp2306
a(I0
g3
tp2307
a(I0
g5
tp2308
a(I0
g7
tp2309
a(I0
g3
tp2310
a(I7
g5
tp2311
a(I0
g7
tp2312
a(I0
g3
tp2313
a(I0
g5
tp2314
a(I0
g7
tp2315
a(I8
g15
tp2316
a(I4
g17
tp2317
a(I0
g19
tp2318
a(I6
g15
tp2319
a(I0
g17
tp2320
a(I5
g19
tp2321
a(I0
g15
tp2322
a(I3
g17
tp2323
a(I2
g19
tp2324
a(I0
g27
tp2325
a(I0
g29
tp2326
a(I0
g31
tp2327
a(I0
g27
tp2328
a(I8
g29
tp2329
a(I0
g31
tp2330
a(I0
g27
tp2331
a(I0
g29
tp2332
a(I0
g31
tp2333
a(I0
g3
tp2334
a(I2
g5
tp2335
a(I7
g7
tp2336
a(I0
g3
tp2337
a(I6
g5
tp2338
a(I0
g7
tp2339
a(I0
g3
tp2340
a(I0
g5
tp2341
a(I0
g7
tp2342
a(I0
g15
tp2343
a(I0
g17
tp2344
a(I3
g19
tp2345
a(I5
g15
tp2346
a(I0
g17
tp2347
a(I8
g19
tp2348
a(I0
g15
tp2349
a(I0
g17
tp2350
a(I0
g19
tp2351
a(I1
g27
tp2352
a(I0
g29
tp2353
a(I0
g31
tp2354
a(I0
g27
tp2355
a(I0
g29
tp2356
a(I0
g31
tp2357
a(I0
g27
tp2358
a(I0
g29
tp2359
a(I0
g31
tp2360
atp2361
a(S'Easy (0)'
p2362
I8
(lp2363
(I2
g3
tp2364
a(I0
g5
tp2365
a(I0
g7
tp2366
a(I0
g3
tp2367
a(I0
g5
tp2368
a(I0
g7
tp2369
a(I0
g3
tp2370
a(I0
g5
tp2371
a(I0
g7
tp2372
a(I1
g15
tp2373
a(I0
g17
tp2374
a(I0
g19
tp2375
a(I0
g15
tp2376
a(I0
g17
tp2377
a(I8
g19
tp2378
a(I0
g15
tp2379
a(I0
g17
tp2380
a(I0
g19
tp2381
a(I0
g27
tp2382
a(I8
g29
tp2383
a(I0
g31
tp2384
a(I7
g27
tp2385
a(I0
g29
tp2386
a(I6
g31
tp2387
a(I1
g27
tp2388
a(I0
g29
tp2389
a(I0
g31
tp2390
a(I0
g3
tp2391
a(I0
g5
tp2392
a(I0
g7
tp2393
a(I8
g3
tp2394
a(I7
g5
tp2395
a(I0
g7
tp2396
a(I0
g3
tp2397
a(I0
g5
tp2398
a(I4
g7
tp2399
a(I0
g15
tp2400
a(I4
g17
tp2401
a(I0
g19
tp2402
a(I9
g15
tp2403
a(I0
g17
tp2404
a(I3
g19
tp2405
a(I0
g15
tp2406
a(I8
g17
tp2407
a(I0
g19
tp2408
a(I8
g27
tp2409
a(I0
g29
tp2410
a(I0
g31
tp2411
a(I0
g27
tp2412
a(I4
g29
tp2413
a(I2
g31
tp2414
a(I0
g27
tp2415
a(I0
g29
tp2416
a(I0
g31
tp2417
a(I0
g3
tp2418
a(I0
g5
tp2419
a(I6
g7
tp2420
a(I1
g3
tp2421
a(I0
g5
tp2422
a(I7
g7
tp2423
a(I0
g3
tp2424
a(I5
g5
tp2425
a(I0
g7
tp2426
a(I0
g15
tp2427
a(I0
g17
tp2428
a(I0
g19
tp2429
a(I2
g15
tp2430
a(I0
g17
tp2431
a(I0
g19
tp2432
a(I0
g15
tp2433
a(I0
g17
tp2434
a(I6
g19
tp2435
a(I0
g27
tp2436
a(I0
g29
tp2437
a(I0
g31
tp2438
a(I0
g27
tp2439
a(I0
g29
tp2440
a(I0
g31
tp2441
a(I0
g27
tp2442
a(I0
g29
tp2443
a(I7
g31
tp2444
atp2445
a(S'Easy (0)'
p2446
I9
(lp2447
(I0
g3
tp2448
a(I2
g5
tp2449
a(I0
g7
tp2450
a(I0
g3
tp2451
a(I9
g5
tp2452
a(I0
g7
tp2453
a(I7
g3
tp2454
a(I6
g5
tp2455
a(I0
g7
tp2456
a(I6
g15
tp2457
a(I0
g17
tp2458
a(I0
g19
tp2459
a(I0
g15
tp2460
a(I0
g17
tp2461
a(I0
g19
tp2462
a(I5
g15
tp2463
a(I0
g17
tp2464
a(I0
g19
tp2465
a(I0
g27
tp2466
a(I0
g29
tp2467
a(I0
g31
tp2468
a(I0
g27
tp2469
a(I0
g29
tp2470
a(I0
g31
tp2471
a(I0
g27
tp2472
a(I0
g29
tp2473
a(I4
g31
tp2474
a(I0
g3
tp2475
a(I0
g5
tp2476
a(I0
g7
tp2477
a(I0
g3
tp2478
a(I0
g5
tp2479
a(I9
g7
tp2480
a(I4
g3
tp2481
a(I0
g5
tp2482
a(I0
g7
tp2483
a(I1
g15
tp2484
a(I0
g17
tp2485
a(I0
g19
tp2486
a(I3
g15
tp2487
a(I0
g17
tp2488
a(I7
g19
tp2489
a(I0
g15
tp2490
a(I0
g17
tp2491
a(I6
g19
tp2492
a(I0
g27
tp2493
a(I0
g29
tp2494
a(I7
g31
tp2495
a(I4
g27
tp2496
a(I0
g29
tp2497
a(I0
g31
tp2498
a(I0
g27
tp2499
a(I0
g29
tp2500
a(I0
g31
tp2501
a(I2
g3
tp2502
a(I0
g5
tp2503
a(I0
g7
tp2504
a(I0
g3
tp2505
a(I0
g5
tp2506
a(I0
g7
tp2507
a(I0
g3
tp2508
a(I0
g5
tp2509
a(I0
g7
tp2510
a(I0
g15
tp2511
a(I0
g17
tp2512
a(I5
g19
tp2513
a(I0
g15
tp2514
a(I0
g17
tp2515
a(I0
g19
tp2516
a(I0
g15
tp2517
a(I0
g17
tp2518
a(I2
g19
tp2519
a(I0
g27
tp2520
a(I1
g29
tp2521
a(I3
g31
tp2522
a(I0
g27
tp2523
a(I8
g29
tp2524
a(I0
g31
tp2525
a(I0
g27
tp2526
a(I4
g29
tp2527
a(I0
g31
tp2528
atp2529
a(S'Medium (0)'
p2530
I0
(lp2531
(I0
g3
tp2532
a(I7
g5
tp2533
a(I0
g7
tp2534
a(I0
g3
tp2535
a(I8
g5
tp2536
a(I3
g7
tp2537
a(I0
g3
tp2538
a(I0
g5
tp2539
a(I6
g7
tp2540
a(I0
g15
tp2541
a(I0
g17
tp2542
a(I0
g19
tp2543
a(I0
g15
tp2544
a(I0
g17
tp2545
a(I0
g19
tp2546
a(I0
g15
tp2547
a(I0
g17
tp2548
a(I5
g19
tp2549
a(I0
g27
tp2550
a(I0
g29
tp2551
a(I0
g31
tp2552
a(I0
g27
tp2553
a(I0
g29
tp2554
a(I1
g31
tp2555
a(I0
g27
tp2556
a(I8
g29
tp2557
a(I0
g31
tp2558
a(I0
g3
tp2559
a(I0
g5
tp2560
a(I0
g7
tp2561
a(I0
g3
tp2562
a(I0
g5
tp2563
a(I0
g7
tp2564
a(I0
g3
tp2565
a(I4
g5
tp2566
a(I7
g7
tp2567
a(I0
g15
tp2568
a(I0
g17
tp2569
a(I0
g19
tp2570
a(I9
g15
tp2571
a(I0
g17
tp2572
a(I4
g19
tp2573
a(I0
g15
tp2574
a(I0
g17
tp2575
a(I0
g19
tp2576
a(I1
g27
tp2577
a(I4
g29
tp2578
a(I0
g31
tp2579
a(I0
g27
tp2580
a(I0
g29
tp2581
a(I0
g31
tp2582
a(I0
g27
tp2583
a(I0
g29
tp2584
a(I0
g31
tp2585
a(I0
g3
tp2586
a(I9
g5
tp2587
a(I0
g7
tp2588
a(I4
g3
tp2589
a(I0
g5
tp2590
a(I0
g7
tp2591
a(I0
g3
tp2592
a(I0
g5
tp2593
a(I0
g7
tp2594
a(I4
g15
tp2595
a(I0
g17
tp2596
a(I0
g19
tp2597
a(I0
g15
tp2598
a(I0
g17
tp2599
a(I0
g19
tp2600
a(I0
g15
tp2601
a(I0
g17
tp2602
a(I0
g19
tp2603
a(I3
g27
tp2604
a(I0
g29
tp2605
a(I0
g31
tp2606
a(I2
g27
tp2607
a(I6
g29
tp2608
a(I0
g31
tp2609
a(I0
g27
tp2610
a(I9
g29
tp2611
a(I0
g31
tp2612
atp2613
a(S'Medium (0)'
p2614
I1
(lp2615
(I0
g3
tp2616
a(I8
g5
tp2617
a(I6
g7
tp2618
a(I9
g3
tp2619
a(I1
g5
tp2620
a(I0
g7
tp2621
a(I0
g3
tp2622
a(I0
g5
tp2623
a(I0
g7
tp2624
a(I0
g15
tp2625
a(I0
g17
tp2626
a(I2
g19
tp2627
a(I0
g15
tp2628
a(I0
g17
tp2629
a(I0
g19
tp2630
a(I0
g15
tp2631
a(I0
g17
tp2632
a(I0
g19
tp2633
a(I0
g27
tp2634
a(I0
g29
tp2635
a(I0
g31
tp2636
a(I0
g27
tp2637
a(I0
g29
tp2638
a(I0
g31
tp2639
a(I0
g27
tp2640
a(I0
g29
tp2641
a(I0
g31
tp2642
a(I0
g3
tp2643
a(I6
g5
tp2644
a(I0
g7
tp2645
a(I0
g3
tp2646
a(I4
g5
tp2647
a(I0
g7
tp2648
a(I7
g3
tp2649
a(I3
g5
tp2650
a(I0
g7
tp2651
a(I2
g15
tp2652
a(I0
g17
tp2653
a(I0
g19
tp2654
a(I0
g15
tp2655
a(I3
g17
tp2656
a(I0
g19
tp2657
a(I0
g15
tp2658
a(I0
g17
tp2659
a(I1
g19
tp2660
a(I0
g27
tp2661
a(I9
g29
tp2662
a(I1
g31
tp2663
a(I0
g27
tp2664
a(I7
g29
tp2665
a(I0
g31
tp2666
a(I0
g27
tp2667
a(I2
g29
tp2668
a(I0
g31
tp2669
a(I0
g3
tp2670
a(I0
g5
tp2671
a(I0
g7
tp2672
a(I0
g3
tp2673
a(I0
g5
tp2674
a(I0
g7
tp2675
a(I0
g3
tp2676
a(I0
g5
tp2677
a(I0
g7
tp2678
a(I0
g15
tp2679
a(I0
g17
tp2680
a(I0
g19
tp2681
a(I0
g15
tp2682
a(I0
g17
tp2683
a(I0
g19
tp2684
a(I9
g15
tp2685
a(I0
g17
tp2686
a(I0
g19
tp2687
a(I0
g27
tp2688
a(I0
g29
tp2689
a(I0
g31
tp2690
a(I0
g27
tp2691
a(I8
g29
tp2692
a(I3
g31
tp2693
a(I5
g27
tp2694
a(I6
g29
tp2695
a(I0
g31
tp2696
atp2697
a(S'Medium (0)'
p2698
I2
(lp2699
(I8
g3
tp2700
a(I0
g5
tp2701
a(I3
g7
tp2702
a(I0
g3
tp2703
a(I0
g5
tp2704
a(I2
g7
tp2705
a(I0
g3
tp2706
a(I0
g5
tp2707
a(I1
g7
tp2708
a(I0
g15
tp2709
a(I0
g17
tp2710
a(I0
g19
tp2711
a(I0
g15
tp2712
a(I4
g17
tp2713
a(I0
g19
tp2714
a(I7
g15
tp2715
a(I0
g17
tp2716
a(I0
g19
tp2717
a(I0
g27
tp2718
a(I0
g29
tp2719
a(I0
g31
tp2720
a(I0
g27
tp2721
a(I6
g29
tp2722
a(I0
g31
tp2723
a(I0
g27
tp2724
a(I0
g29
tp2725
a(I0
g31
tp2726
a(I0
g3
tp2727
a(I0
g5
tp2728
a(I6
g7
tp2729
a(I0
g3
tp2730
a(I0
g5
tp2731
a(I0
g7
tp2732
a(I4
g3
tp2733
a(I0
g5
tp2734
a(I0
g7
tp2735
a(I0
g15
tp2736
a(I1
g17
tp2737
a(I0
g19
tp2738
a(I4
g15
tp2739
a(I0
g17
tp2740
a(I7
g19
tp2741
a(I0
g15
tp2742
a(I9
g17
tp2743
a(I0
g19
tp2744
a(I0
g27
tp2745
a(I0
g29
tp2746
a(I9
g31
tp2747
a(I0
g27
tp2748
a(I0
g29
tp2749
a(I0
g31
tp2750
a(I1
g27
tp2751
a(I0
g29
tp2752
a(I0
g31
tp2753
a(I0
g3
tp2754
a(I0
g5
tp2755
a(I0
g7
tp2756
a(I0
g3
tp2757
a(I3
g5
tp2758
a(I0
g7
tp2759
a(I0
g3
tp2760
a(I0
g5
tp2761
a(I0
g7
tp2762
a(I0
g15
tp2763
a(I0
g17
tp2764
a(I2
g19
tp2765
a(I0
g15
tp2766
a(I5
g17
tp2767
a(I0
g19
tp2768
a(I0
g15
tp2769
a(I0
g17
tp2770
a(I0
g19
tp2771
a(I7
g27
tp2772
a(I0
g29
tp2773
a(I0
g31
tp2774
a(I2
g27
tp2775
a(I0
g29
tp2776
a(I0
g31
tp2777
a(I3
g27
tp2778
a(I0
g29
tp2779
a(I5
g31
tp2780
atp2781
a(S'Medium (0)'
p2782
I3
(lp2783
(I0
g3
tp2784
a(I7
g5
tp2785
a(I4
g7
tp2786
a(I9
g3
tp2787
a(I0
g5
tp2788
a(I0
g7
tp2789
a(I2
g3
tp2790
a(I0
g5
tp2791
a(I0
g7
tp2792
a(I5
g15
tp2793
a(I0
g17
tp2794
a(I9
g19
tp2795
a(I0
g15
tp2796
a(I0
g17
tp2797
a(I7
g19
tp2798
a(I0
g15
tp2799
a(I0
g17
tp2800
a(I0
g19
tp2801
a(I0
g27
tp2802
a(I0
g29
tp2803
a(I0
g31
tp2804
a(I0
g27
tp2805
a(I4
g29
tp2806
a(I0
g31
tp2807
a(I0
g27
tp2808
a(I0
g29
tp2809
a(I0
g31
tp2810
a(I6
g3
tp2811
a(I0
g5
tp2812
a(I0
g7
tp2813
a(I0
g3
tp2814
a(I0
g5
tp2815
a(I0
g7
tp2816
a(I0
g3
tp2817
a(I8
g5
tp2818
a(I0
g7
tp2819
a(I0
g15
tp2820
a(I0
g17
tp2821
a(I1
g19
tp2822
a(I0
g15
tp2823
a(I0
g17
tp2824
a(I0
g19
tp2825
a(I3
g15
tp2826
a(I0
g17
tp2827
a(I0
g19
tp2828
a(I0
g27
tp2829
a(I9
g29
tp2830
a(I0
g31
tp2831
a(I0
g27
tp2832
a(I0
g29
tp2833
a(I0
g31
tp2834
a(I0
g27
tp2835
a(I0
g29
tp2836
a(I5
g31
tp2837
a(I0
g3
tp2838
a(I0
g5
tp2839
a(I0
g7
tp2840
a(I0
g3
tp2841
a(I1
g5
tp2842
a(I0
g7
tp2843
a(I0
g3
tp2844
a(I0
g5
tp2845
a(I0
g7
tp2846
a(I0
g15
tp2847
a(I0
g17
tp2848
a(I0
g19
tp2849
a(I7
g15
tp2850
a(I0
g17
tp2851
a(I0
g19
tp2852
a(I6
g15
tp2853
a(I0
g17
tp2854
a(I8
g19
tp2855
a(I0
g27
tp2856
a(I0
g29
tp2857
a(I8
g31
tp2858
a(I0
g27
tp2859
a(I0
g29
tp2860
a(I4
g31
tp2861
a(I9
g27
tp2862
a(I7
g29
tp2863
a(I0
g31
tp2864
atp2865
a(S'Medium (0)'
p2866
I4
(lp2867
(I6
g3
tp2868
a(I0
g5
tp2869
a(I0
g7
tp2870
a(I9
g3
tp2871
a(I0
g5
tp2872
a(I1
g7
tp2873
a(I0
g3
tp2874
a(I0
g5
tp2875
a(I0
g7
tp2876
a(I1
g15
tp2877
a(I0
g17
tp2878
a(I4
g19
tp2879
a(I0
g15
tp2880
a(I3
g17
tp2881
a(I0
g19
tp2882
a(I0
g15
tp2883
a(I0
g17
tp2884
a(I0
g19
tp2885
a(I0
g27
tp2886
a(I0
g29
tp2887
a(I0
g31
tp2888
a(I0
g27
tp2889
a(I0
g29
tp2890
a(I0
g31
tp2891
a(I0
g27
tp2892
a(I0
g29
tp2893
a(I0
g31
tp2894
a(I0
g3
tp2895
a(I8
g5
tp2896
a(I9
g7
tp2897
a(I0
g3
tp2898
a(I0
g5
tp2899
a(I0
g7
tp2900
a(I5
g3
tp2901
a(I0
g5
tp2902
a(I0
g7
tp2903
a(I0
g15
tp2904
a(I7
g17
tp2905
a(I0
g19
tp2906
a(I0
g15
tp2907
a(I0
g17
tp2908
a(I0
g19
tp2909
a(I0
g15
tp2910
a(I4
g17
tp2911
a(I0
g19
tp2912
a(I0
g27
tp2913
a(I0
g29
tp2914
a(I6
g31
tp2915
a(I0
g27
tp2916
a(I0
g29
tp2917
a(I0
g31
tp2918
a(I3
g27
tp2919
a(I2
g29
tp2920
a(I0
g31
tp2921
a(I0
g3
tp2922
a(I0
g5
tp2923
a(I0
g7
tp2924
a(I0
g3
tp2925
a(I0
g5
tp2926
a(I0
g7
tp2927
a(I0
g3
tp2928
a(I0
g5
tp2929
a(I0
g7
tp2930
a(I0
g15
tp2931
a(I0
g17
tp2932
a(I0
g19
tp2933
a(I0
g15
tp2934
a(I9
g17
tp2935
a(I0
g19
tp2936
a(I2
g15
tp2937
a(I0
g17
tp2938
a(I8
g19
tp2939
a(I0
g27
tp2940
a(I0
g29
tp2941
a(I0
g31
tp2942
a(I2
g27
tp2943
a(I0
g29
tp2944
a(I7
g31
tp2945
a(I0
g27
tp2946
a(I0
g29
tp2947
a(I3
g31
tp2948
atp2949
a(S'Medium (0)'
p2950
I5
(lp2951
(I0
g3
tp2952
a(I5
g5
tp2953
a(I0
g7
tp2954
a(I8
g3
tp2955
a(I2
g5
tp2956
a(I0
g7
tp2957
a(I0
g3
tp2958
a(I0
g5
tp2959
a(I0
g7
tp2960
a(I4
g15
tp2961
a(I0
g17
tp2962
a(I0
g19
tp2963
a(I0
g15
tp2964
a(I0
g17
tp2965
a(I0
g19
tp2966
a(I0
g15
tp2967
a(I0
g17
tp2968
a(I8
g19
tp2969
a(I0
g27
tp2970
a(I0
g29
tp2971
a(I0
g31
tp2972
a(I0
g27
tp2973
a(I5
g29
tp2974
a(I0
g31
tp2975
a(I0
g27
tp2976
a(I7
g29
tp2977
a(I0
g31
tp2978
a(I0
g3
tp2979
a(I0
g5
tp2980
a(I5
g7
tp2981
a(I0
g3
tp2982
a(I0
g5
tp2983
a(I0
g7
tp2984
a(I0
g3
tp2985
a(I4
g5
tp2986
a(I6
g7
tp2987
a(I0
g15
tp2988
a(I0
g17
tp2989
a(I6
g19
tp2990
a(I0
g15
tp2991
a(I7
g17
tp2992
a(I0
g19
tp2993
a(I8
g15
tp2994
a(I0
g17
tp2995
a(I0
g19
tp2996
a(I7
g27
tp2997
a(I4
g29
tp2998
a(I0
g31
tp2999
a(I0
g27
tp3000
a(I0
g29
tp3001
a(I0
g31
tp3002
a(I1
g27
tp3003
a(I0
g29
tp3004
a(I0
g31
tp3005
a(I0
g3
tp3006
a(I7
g5
tp3007
a(I0
g7
tp3008
a(I0
g3
tp3009
a(I9
g5
tp3010
a(I0
g7
tp3011
a(I0
g3
tp3012
a(I0
g5
tp3013
a(I0
g7
tp3014
a(I6
g15
tp3015
a(I0
g17
tp3016
a(I0
g19
tp3017
a(I0
g15
tp3018
a(I0
g17
tp3019
a(I0
g19
tp3020
a(I0
g15
tp3021
a(I0
g17
tp3022
a(I7
g19
tp3023
a(I0
g27
tp3024
a(I0
g29
tp3025
a(I0
g31
tp3026
a(I0
g27
tp3027
a(I6
g29
tp3028
a(I7
g31
tp3029
a(I0
g27
tp3030
a(I3
g29
tp3031
a(I0
g31
tp3032
atp3033
a(S'Medium (0)'
p3034
I6
(lp3035
(I3
g3
tp3036
a(I4
g5
tp3037
a(I0
g7
tp3038
a(I0
g3
tp3039
a(I0
g5
tp3040
a(I9
g7
tp3041
a(I1
g3
tp3042
a(I0
g5
tp3043
a(I0
g7
tp3044
a(I0
g15
tp3045
a(I0
g17
tp3046
a(I0
g19
tp3047
a(I0
g15
tp3048
a(I0
g17
tp3049
a(I0
g19
tp3050
a(I0
g15
tp3051
a(I4
g17
tp3052
a(I3
g19
tp3053
a(I0
g27
tp3054
a(I0
g29
tp3055
a(I0
g31
tp3056
a(I0
g27
tp3057
a(I0
g29
tp3058
a(I6
g31
tp3059
a(I0
g27
tp3060
a(I2
g29
tp3061
a(I0
g31
tp3062
a(I0
g3
tp3063
a(I0
g5
tp3064
a(I0
g7
tp3065
a(I0
g3
tp3066
a(I0
g5
tp3067
a(I0
g7
tp3068
a(I0
g3
tp3069
a(I0
g5
tp3070
a(I8
g7
tp3071
a(I0
g15
tp3072
a(I0
g17
tp3073
a(I6
g19
tp3074
a(I1
g15
tp3075
a(I8
g17
tp3076
a(I5
g19
tp3077
a(I3
g15
tp3078
a(I0
g17
tp3079
a(I0
g19
tp3080
a(I7
g27
tp3081
a(I0
g29
tp3082
a(I0
g31
tp3083
a(I0
g27
tp3084
a(I0
g29
tp3085
a(I0
g31
tp3086
a(I0
g27
tp3087
a(I0
g29
tp3088
a(I0
g31
tp3089
a(I0
g3
tp3090
a(I1
g5
tp3091
a(I0
g7
tp3092
a(I4
g3
tp3093
a(I0
g5
tp3094
a(I0
g7
tp3095
a(I0
g3
tp3096
a(I0
g5
tp3097
a(I0
g7
tp3098
a(I6
g15
tp3099
a(I5
g17
tp3100
a(I0
g19
tp3101
a(I0
g15
tp3102
a(I0
g17
tp3103
a(I0
g19
tp3104
a(I0
g15
tp3105
a(I0
g17
tp3106
a(I0
g19
tp3107
a(I0
g27
tp3108
a(I0
g29
tp3109
a(I9
g31
tp3110
a(I6
g27
tp3111
a(I0
g29
tp3112
a(I0
g31
tp3113
a(I0
g27
tp3114
a(I3
g29
tp3115
a(I1
g31
tp3116
atp3117
a(S'Medium (0)'
p3118
I7
(lp3119
(I0
g3
tp3120
a(I0
g5
tp3121
a(I0
g7
tp3122
a(I0
g3
tp3123
a(I2
g5
tp3124
a(I0
g7
tp3125
a(I0
g3
tp3126
a(I5
g5
tp3127
a(I0
g7
tp3128
a(I6
g15
tp3129
a(I0
g17
tp3130
a(I0
g19
tp3131
a(I9
g15
tp3132
a(I0
g17
tp3133
a(I0
g19
tp3134
a(I0
g15
tp3135
a(I0
g17
tp3136
a(I7
g19
tp3137
a(I0
g27
tp3138
a(I0
g29
tp3139
a(I4
g31
tp3140
a(I0
g27
tp3141
a(I0
g29
tp3142
a(I0
g31
tp3143
a(I0
g27
tp3144
a(I0
g29
tp3145
a(I0
g31
tp3146
a(I2
g3
tp3147
a(I0
g5
tp3148
a(I9
g7
tp3149
a(I6
g3
tp3150
a(I0
g5
tp3151
a(I0
g7
tp3152
a(I3
g3
tp3153
a(I7
g5
tp3154
a(I0
g7
tp3155
a(I0
g15
tp3156
a(I0
g17
tp3157
a(I0
g19
tp3158
a(I0
g15
tp3159
a(I0
g17
tp3160
a(I0
g19
tp3161
a(I0
g15
tp3162
a(I0
g17
tp3163
a(I0
g19
tp3164
a(I0
g27
tp3165
a(I6
g29
tp3166
a(I5
g31
tp3167
a(I0
g27
tp3168
a(I0
g29
tp3169
a(I3
g31
tp3170
a(I4
g27
tp3171
a(I0
g29
tp3172
a(I2
g31
tp3173
a(I0
g3
tp3174
a(I0
g5
tp3175
a(I0
g7
tp3176
a(I0
g3
tp3177
a(I0
g5
tp3178
a(I0
g7
tp3179
a(I5
g3
tp3180
a(I0
g5
tp3181
a(I0
g7
tp3182
a(I4
g15
tp3183
a(I0
g17
tp3184
a(I0
g19
tp3185
a(I0
g15
tp3186
a(I0
g17
tp3187
a(I2
g19
tp3188
a(I0
g15
tp3189
a(I0
g17
tp3190
a(I9
g19
tp3191
a(I0
g27
tp3192
a(I1
g29
tp3193
a(I0
g31
tp3194
a(I0
g27
tp3195
a(I4
g29
tp3196
a(I0
g31
tp3197
a(I0
g27
tp3198
a(I0
g29
tp3199
a(I0
g31
tp3200
atp3201
a(S'Medium (0)'
p3202
I8
(lp3203
(I0
g3
tp3204
a(I0
g5
tp3205
a(I0
g7
tp3206
a(I0
g3
tp3207
a(I0
g5
tp3208
a(I1
g7
tp3209
a(I7
g3
tp3210
a(I0
g5
tp3211
a(I2
g7
tp3212
a(I0
g15
tp3213
a(I0
g17
tp3214
a(I0
g19
tp3215
a(I0
g15
tp3216
a(I0
g17
tp3217
a(I0
g19
tp3218
a(I0
g15
tp3219
a(I0
g17
tp3220
a(I0
g19
tp3221
a(I0
g27
tp3222
a(I0
g29
tp3223
a(I0
g31
tp3224
a(I5
g27
tp3225
a(I0
g29
tp3226
a(I6
g31
tp3227
a(I0
g27
tp3228
a(I0
g29
tp3229
a(I0
g31
tp3230
a(I1
g3
tp3231
a(I2
g5
tp3232
a(I0
g7
tp3233
a(I0
g3
tp3234
a(I3
g5
tp3235
a(I0
g7
tp3236
a(I5
g3
tp3237
a(I0
g5
tp3238
a(I0
g7
tp3239
a(I0
g15
tp3240
a(I0
g17
tp3241
a(I7
g19
tp3242
a(I0
g15
tp3243
a(I0
g17
tp3244
a(I0
g19
tp3245
a(I2
g15
tp3246
a(I0
g17
tp3247
a(I0
g19
tp3248
a(I0
g27
tp3249
a(I0
g29
tp3250
a(I5
g31
tp3251
a(I0
g27
tp3252
a(I8
g29
tp3253
a(I0
g31
tp3254
a(I0
g27
tp3255
a(I4
g29
tp3256
a(I9
g31
tp3257
a(I0
g3
tp3258
a(I0
g5
tp3259
a(I0
g7
tp3260
a(I4
g3
tp3261
a(I0
g5
tp3262
a(I5
g7
tp3263
a(I0
g3
tp3264
a(I0
g5
tp3265
a(I0
g7
tp3266
a(I0
g15
tp3267
a(I0
g17
tp3268
a(I0
g19
tp3269
a(I0
g15
tp3270
a(I0
g17
tp3271
a(I0
g19
tp3272
a(I0
g15
tp3273
a(I0
g17
tp3274
a(I0
g19
tp3275
a(I9
g27
tp3276
a(I0
g29
tp3277
a(I4
g31
tp3278
a(I8
g27
tp3279
a(I0
g29
tp3280
a(I0
g31
tp3281
a(I0
g27
tp3282
a(I0
g29
tp3283
a(I0
g31
tp3284
atp3285
a(S'Medium (0)'
p3286
I9
(lp3287
(I8
g3
tp3288
a(I1
g5
tp3289
a(I0
g7
tp3290
a(I0
g3
tp3291
a(I0
g5
tp3292
a(I0
g7
tp3293
a(I3
g3
tp3294
a(I0
g5
tp3295
a(I0
g7
tp3296
a(I0
g15
tp3297
a(I0
g17
tp3298
a(I0
g19
tp3299
a(I0
g15
tp3300
a(I0
g17
tp3301
a(I0
g19
tp3302
a(I6
g15
tp3303
a(I0
g17
tp3304
a(I5
g19
tp3305
a(I0
g27
tp3306
a(I0
g29
tp3307
a(I6
g31
tp3308
a(I0
g27
tp3309
a(I3
g29
tp3310
a(I4
g31
tp3311
a(I0
g27
tp3312
a(I0
g29
tp3313
a(I8
g31
tp3314
a(I0
g3
tp3315
a(I0
g5
tp3316
a(I0
g7
tp3317
a(I0
g3
tp3318
a(I2
g5
tp3319
a(I0
g7
tp3320
a(I0
g3
tp3321
a(I0
g5
tp3322
a(I0
g7
tp3323
a(I0
g15
tp3324
a(I0
g17
tp3325
a(I0
g19
tp3326
a(I9
g15
tp3327
a(I0
g17
tp3328
a(I6
g19
tp3329
a(I0
g15
tp3330
a(I0
g17
tp3331
a(I0
g19
tp3332
a(I0
g27
tp3333
a(I0
g29
tp3334
a(I0
g31
tp3335
a(I0
g27
tp3336
a(I4
g29
tp3337
a(I0
g31
tp3338
a(I0
g27
tp3339
a(I0
g29
tp3340
a(I0
g31
tp3341
a(I1
g3
tp3342
a(I0
g5
tp3343
a(I0
g7
tp3344
a(I2
g3
tp3345
a(I6
g5
tp3346
a(I0
g7
tp3347
a(I4
g3
tp3348
a(I0
g5
tp3349
a(I0
g7
tp3350
a(I7
g15
tp3351
a(I0
g17
tp3352
a(I4
g19
tp3353
a(I0
g15
tp3354
a(I0
g17
tp3355
a(I0
g19
tp3356
a(I0
g15
tp3357
a(I0
g17
tp3358
a(I0
g19
tp3359
a(I0
g27
tp3360
a(I0
g29
tp3361
a(I3
g31
tp3362
a(I0
g27
tp3363
a(I0
g29
tp3364
a(I0
g31
tp3365
a(I0
g27
tp3366
a(I2
g29
tp3367
a(I7
g31
tp3368
atp3369
a(S'Hard (0)'
p3370
I0
(lp3371
(I0
g3
tp3372
a(I9
g5
tp3373
a(I0
g7
tp3374
a(I0
g3
tp3375
a(I0
g5
tp3376
a(I0
g7
tp3377
a(I0
g3
tp3378
a(I8
g5
tp3379
a(I3
g7
tp3380
a(I0
g15
tp3381
a(I0
g17
tp3382
a(I4
g19
tp3383
a(I8
g15
tp3384
a(I3
g17
tp3385
a(I0
g19
tp3386
a(I9
g15
tp3387
a(I0
g17
tp3388
a(I0
g19
tp3389
a(I0
g27
tp3390
a(I0
g29
tp3391
a(I0
g31
tp3392
a(I0
g27
tp3393
a(I0
g29
tp3394
a(I0
g31
tp3395
a(I0
g27
tp3396
a(I0
g29
tp3397
a(I0
g31
tp3398
a(I0
g3
tp3399
a(I0
g5
tp3400
a(I0
g7
tp3401
a(I1
g3
tp3402
a(I6
g5
tp3403
a(I0
g7
tp3404
a(I0
g3
tp3405
a(I2
g5
tp3406
a(I7
g7
tp3407
a(I0
g15
tp3408
a(I0
g17
tp3409
a(I0
g19
tp3410
a(I0
g15
tp3411
a(I0
g17
tp3412
a(I0
g19
tp3413
a(I0
g15
tp3414
a(I0
g17
tp3415
a(I0
g19
tp3416
a(I8
g27
tp3417
a(I4
g29
tp3418
a(I0
g31
tp3419
a(I0
g27
tp3420
a(I9
g29
tp3421
a(I7
g31
tp3422
a(I0
g27
tp3423
a(I0
g29
tp3424
a(I0
g31
tp3425
a(I0
g3
tp3426
a(I0
g5
tp3427
a(I0
g7
tp3428
a(I0
g3
tp3429
a(I0
g5
tp3430
a(I0
g7
tp3431
a(I0
g3
tp3432
a(I0
g5
tp3433
a(I0
g7
tp3434
a(I0
g15
tp3435
a(I0
g17
tp3436
a(I7
g19
tp3437
a(I0
g15
tp3438
a(I8
g17
tp3439
a(I9
g19
tp3440
a(I6
g15
tp3441
a(I0
g17
tp3442
a(I0
g19
tp3443
a(I4
g27
tp3444
a(I8
g29
tp3445
a(I0
g31
tp3446
a(I0
g27
tp3447
a(I0
g29
tp3448
a(I0
g31
tp3449
a(I0
g27
tp3450
a(I5
g29
tp3451
a(I0
g31
tp3452
atp3453
a(S'Hard (0)'
p3454
I1
(lp3455
(I0
g3
tp3456
a(I3
g5
tp3457
a(I2
g7
tp3458
a(I8
g3
tp3459
a(I0
g5
tp3460
a(I0
g7
tp3461
a(I0
g3
tp3462
a(I0
g5
tp3463
a(I0
g7
tp3464
a(I0
g15
tp3465
a(I0
g17
tp3466
a(I8
g19
tp3467
a(I0
g15
tp3468
a(I0
g17
tp3469
a(I0
g19
tp3470
a(I0
g15
tp3471
a(I0
g17
tp3472
a(I9
g19
tp3473
a(I0
g27
tp3474
a(I0
g29
tp3475
a(I4
g31
tp3476
a(I0
g27
tp3477
a(I1
g29
tp3478
a(I0
g31
tp3479
a(I0
g27
tp3480
a(I3
g29
tp3481
a(I0
g31
tp3482
a(I0
g3
tp3483
a(I5
g5
tp3484
a(I0
g7
tp3485
a(I0
g3
tp3486
a(I0
g5
tp3487
a(I0
g7
tp3488
a(I0
g3
tp3489
a(I0
g5
tp3490
a(I8
g7
tp3491
a(I0
g15
tp3492
a(I0
g17
tp3493
a(I0
g19
tp3494
a(I3
g15
tp3495
a(I0
g17
tp3496
a(I5
g19
tp3497
a(I0
g15
tp3498
a(I0
g17
tp3499
a(I0
g19
tp3500
a(I2
g27
tp3501
a(I0
g29
tp3502
a(I0
g31
tp3503
a(I0
g27
tp3504
a(I0
g29
tp3505
a(I0
g31
tp3506
a(I0
g27
tp3507
a(I5
g29
tp3508
a(I0
g31
tp3509
a(I0
g3
tp3510
a(I1
g5
tp3511
a(I0
g7
tp3512
a(I0
g3
tp3513
a(I8
g5
tp3514
a(I0
g7
tp3515
a(I6
g3
tp3516
a(I0
g5
tp3517
a(I0
g7
tp3518
a(I7
g15
tp3519
a(I0
g17
tp3520
a(I0
g19
tp3521
a(I0
g15
tp3522
a(I0
g17
tp3523
a(I0
g19
tp3524
a(I1
g15
tp3525
a(I0
g17
tp3526
a(I0
g19
tp3527
a(I0
g27
tp3528
a(I0
g29
tp3529
a(I0
g31
tp3530
a(I0
g27
tp3531
a(I0
g29
tp3532
a(I7
g31
tp3533
a(I3
g27
tp3534
a(I8
g29
tp3535
a(I0
g31
tp3536
atp3537
a(S'Hard (0)'
p3538
I2
(lp3539
(I6
g3
tp3540
a(I0
g5
tp3541
a(I0
g7
tp3542
a(I0
g3
tp3543
a(I0
g5
tp3544
a(I4
g7
tp3545
a(I8
g3
tp3546
a(I0
g5
tp3547
a(I5
g7
tp3548
a(I0
g15
tp3549
a(I0
g17
tp3550
a(I0
g19
tp3551
a(I0
g15
tp3552
a(I1
g17
tp3553
a(I0
g19
tp3554
a(I0
g15
tp3555
a(I0
g17
tp3556
a(I2
g19
tp3557
a(I0
g27
tp3558
a(I0
g29
tp3559
a(I0
g31
tp3560
a(I0
g27
tp3561
a(I0
g29
tp3562
a(I5
g31
tp3563
a(I0
g27
tp3564
a(I0
g29
tp3565
a(I0
g31
tp3566
a(I0
g3
tp3567
a(I0
g5
tp3568
a(I0
g7
tp3569
a(I0
g3
tp3570
a(I6
g5
tp3571
a(I0
g7
tp3572
a(I0
g3
tp3573
a(I2
g5
tp3574
a(I0
g7
tp3575
a(I2
g15
tp3576
a(I0
g17
tp3577
a(I5
g19
tp3578
a(I0
g15
tp3579
a(I0
g17
tp3580
a(I0
g19
tp3581
a(I4
g15
tp3582
a(I0
g17
tp3583
a(I1
g19
tp3584
a(I0
g27
tp3585
a(I7
g29
tp3586
a(I0
g31
tp3587
a(I0
g27
tp3588
a(I2
g29
tp3589
a(I0
g31
tp3590
a(I0
g27
tp3591
a(I0
g29
tp3592
a(I0
g31
tp3593
a(I0
g3
tp3594
a(I0
g5
tp3595
a(I0
g7
tp3596
a(I3
g3
tp3597
a(I0
g5
tp3598
a(I0
g7
tp3599
a(I0
g3
tp3600
a(I0
g5
tp3601
a(I0
g7
tp3602
a(I3
g15
tp3603
a(I0
g17
tp3604
a(I0
g19
tp3605
a(I0
g15
tp3606
a(I9
g17
tp3607
a(I0
g19
tp3608
a(I0
g15
tp3609
a(I0
g17
tp3610
a(I0
g19
tp3611
a(I4
g27
tp3612
a(I0
g29
tp3613
a(I6
g31
tp3614
a(I1
g27
tp3615
a(I0
g29
tp3616
a(I0
g31
tp3617
a(I0
g27
tp3618
a(I0
g29
tp3619
a(I7
g31
tp3620
atp3621
a(S'Hard (0)'
p3622
I3
(lp3623
(I0
g3
tp3624
a(I9
g5
tp3625
a(I0
g7
tp3626
a(I2
g3
tp3627
a(I6
g5
tp3628
a(I0
g7
tp3629
a(I3
g3
tp3630
a(I8
g5
tp3631
a(I0
g7
tp3632
a(I0
g15
tp3633
a(I0
g17
tp3634
a(I0
g19
tp3635
a(I0
g15
tp3636
a(I0
g17
tp3637
a(I0
g19
tp3638
a(I0
g15
tp3639
a(I7
g17
tp3640
a(I0
g19
tp3641
a(I0
g27
tp3642
a(I0
g29
tp3643
a(I0
g31
tp3644
a(I0
g27
tp3645
a(I0
g29
tp3646
a(I0
g31
tp3647
a(I0
g27
tp3648
a(I2
g29
tp3649
a(I0
g31
tp3650
a(I0
g3
tp3651
a(I0
g5
tp3652
a(I0
g7
tp3653
a(I0
g3
tp3654
a(I0
g5
tp3655
a(I0
g7
tp3656
a(I0
g3
tp3657
a(I0
g5
tp3658
a(I0
g7
tp3659
a(I9
g15
tp3660
a(I0
g17
tp3661
a(I0
g19
tp3662
a(I8
g15
tp3663
a(I0
g17
tp3664
a(I1
g19
tp3665
a(I0
g15
tp3666
a(I0
g17
tp3667
a(I3
g19
tp3668
a(I0
g27
tp3669
a(I0
g29
tp3670
a(I0
g31
tp3671
a(I0
g27
tp3672
a(I0
g29
tp3673
a(I0
g31
tp3674
a(I0
g27
tp3675
a(I0
g29
tp3676
a(I0
g31
tp3677
a(I0
g3
tp3678
a(I5
g5
tp3679
a(I0
g7
tp3680
a(I0
g3
tp3681
a(I0
g5
tp3682
a(I0
g7
tp3683
a(I0
g3
tp3684
a(I0
g5
tp3685
a(I0
g7
tp3686
a(I0
g15
tp3687
a(I6
g17
tp3688
a(I0
g19
tp3689
a(I0
g15
tp3690
a(I0
g17
tp3691
a(I0
g19
tp3692
a(I0
g15
tp3693
a(I0
g17
tp3694
a(I0
g19
tp3695
a(I0
g27
tp3696
a(I8
g29
tp3697
a(I7
g31
tp3698
a(I0
g27
tp3699
a(I1
g29
tp3700
a(I5
g31
tp3701
a(I0
g27
tp3702
a(I4
g29
tp3703
a(I0
g31
tp3704
atp3705
a(S'Hard (0)'
p3706
I4
(lp3707
(I0
g3
tp3708
a(I0
g5
tp3709
a(I0
g7
tp3710
a(I0
g3
tp3711
a(I0
g5
tp3712
a(I8
g7
tp3713
a(I0
g3
tp3714
a(I3
g5
tp3715
a(I0
g7
tp3716
a(I0
g15
tp3717
a(I3
g17
tp3718
a(I7
g19
tp3719
a(I6
g15
tp3720
a(I0
g17
tp3721
a(I0
g19
tp3722
a(I0
g15
tp3723
a(I0
g17
tp3724
a(I0
g19
tp3725
a(I0
g27
tp3726
a(I0
g29
tp3727
a(I0
g31
tp3728
a(I0
g27
tp3729
a(I0
g29
tp3730
a(I0
g31
tp3731
a(I6
g27
tp3732
a(I8
g29
tp3733
a(I0
g31
tp3734
a(I0
g3
tp3735
a(I0
g5
tp3736
a(I0
g7
tp3737
a(I9
g3
tp3738
a(I0
g5
tp3739
a(I0
g7
tp3740
a(I0
g3
tp3741
a(I0
g5
tp3742
a(I4
g7
tp3743
a(I0
g15
tp3744
a(I6
g17
tp3745
a(I0
g19
tp3746
a(I0
g15
tp3747
a(I0
g17
tp3748
a(I0
g19
tp3749
a(I0
g15
tp3750
a(I7
g17
tp3751
a(I0
g19
tp3752
a(I3
g27
tp3753
a(I0
g29
tp3754
a(I0
g31
tp3755
a(I0
g27
tp3756
a(I0
g29
tp3757
a(I5
g31
tp3758
a(I0
g27
tp3759
a(I0
g29
tp3760
a(I0
g31
tp3761
a(I0
g3
tp3762
a(I4
g5
tp3763
a(I1
g7
tp3764
a(I0
g3
tp3765
a(I0
g5
tp3766
a(I0
g7
tp3767
a(I0
g3
tp3768
a(I0
g5
tp3769
a(I0
g7
tp3770
a(I0
g15
tp3771
a(I0
g17
tp3772
a(I0
g19
tp3773
a(I0
g15
tp3774
a(I0
g17
tp3775
a(I4
g19
tp3776
a(I7
g15
tp3777
a(I5
g17
tp3778
a(I0
g19
tp3779
a(I0
g27
tp3780
a(I2
g29
tp3781
a(I0
g31
tp3782
a(I1
g27
tp3783
a(I0
g29
tp3784
a(I0
g31
tp3785
a(I0
g27
tp3786
a(I0
g29
tp3787
a(I0
g31
tp3788
atp3789
a(S'Hard (0)'
p3790
I5
(lp3791
(I0
g3
tp3792
a(I9
g5
tp3793
a(I0
g7
tp3794
a(I0
g3
tp3795
a(I0
g5
tp3796
a(I0
g7
tp3797
a(I0
g3
tp3798
a(I0
g5
tp3799
a(I6
g7
tp3800
a(I5
g15
tp3801
a(I4
g17
tp3802
a(I0
g19
tp3803
a(I0
g15
tp3804
a(I0
g17
tp3805
a(I7
g19
tp3806
a(I0
g15
tp3807
a(I0
g17
tp3808
a(I0
g19
tp3809
a(I0
g27
tp3810
a(I0
g29
tp3811
a(I0
g31
tp3812
a(I0
g27
tp3813
a(I0
g29
tp3814
a(I3
g31
tp3815
a(I4
g27
tp3816
a(I0
g29
tp3817
a(I0
g31
tp3818
a(I6
g3
tp3819
a(I7
g5
tp3820
a(I0
g7
tp3821
a(I0
g3
tp3822
a(I3
g5
tp3823
a(I0
g7
tp3824
a(I0
g3
tp3825
a(I0
g5
tp3826
a(I0
g7
tp3827
a(I0
g15
tp3828
a(I0
g17
tp3829
a(I4
g19
tp3830
a(I0
g15
tp3831
a(I0
g17
tp3832
a(I0
g19
tp3833
a(I6
g15
tp3834
a(I0
g17
tp3835
a(I0
g19
tp3836
a(I0
g27
tp3837
a(I0
g29
tp3838
a(I0
g31
tp3839
a(I0
g27
tp3840
a(I5
g29
tp3841
a(I0
g31
tp3842
a(I0
g27
tp3843
a(I3
g29
tp3844
a(I4
g31
tp3845
a(I0
g3
tp3846
a(I0
g5
tp3847
a(I8
g7
tp3848
a(I2
g3
tp3849
a(I0
g5
tp3850
a(I0
g7
tp3851
a(I0
g3
tp3852
a(I0
g5
tp3853
a(I0
g7
tp3854
a(I0
g15
tp3855
a(I0
g17
tp3856
a(I0
g19
tp3857
a(I7
g15
tp3858
a(I0
g17
tp3859
a(I0
g19
tp3860
a(I0
g15
tp3861
a(I2
g17
tp3862
a(I1
g19
tp3863
a(I9
g27
tp3864
a(I0
g29
tp3865
a(I0
g31
tp3866
a(I0
g27
tp3867
a(I0
g29
tp3868
a(I0
g31
tp3869
a(I0
g27
tp3870
a(I6
g29
tp3871
a(I0
g31
tp3872
atp3873
a(S'Hard (0)'
p3874
I6
(lp3875
(I8
g3
tp3876
a(I0
g5
tp3877
a(I0
g7
tp3878
a(I0
g3
tp3879
a(I1
g5
tp3880
a(I0
g7
tp3881
a(I0
g3
tp3882
a(I0
g5
tp3883
a(I0
g7
tp3884
a(I0
g15
tp3885
a(I1
g17
tp3886
a(I0
g19
tp3887
a(I0
g15
tp3888
a(I0
g17
tp3889
a(I0
g19
tp3890
a(I0
g15
tp3891
a(I0
g17
tp3892
a(I0
g19
tp3893
a(I0
g27
tp3894
a(I3
g29
tp3895
a(I4
g31
tp3896
a(I6
g27
tp3897
a(I0
g29
tp3898
a(I0
g31
tp3899
a(I0
g27
tp3900
a(I5
g29
tp3901
a(I0
g31
tp3902
a(I0
g3
tp3903
a(I0
g5
tp3904
a(I0
g7
tp3905
a(I0
g3
tp3906
a(I0
g5
tp3907
a(I0
g7
tp3908
a(I9
g3
tp3909
a(I0
g5
tp3910
a(I3
g7
tp3911
a(I0
g15
tp3912
a(I7
g17
tp3913
a(I1
g19
tp3914
a(I0
g15
tp3915
a(I0
g17
tp3916
a(I0
g19
tp3917
a(I6
g15
tp3918
a(I8
g17
tp3919
a(I0
g19
tp3920
a(I5
g27
tp3921
a(I0
g29
tp3922
a(I9
g31
tp3923
a(I0
g27
tp3924
a(I0
g29
tp3925
a(I0
g31
tp3926
a(I0
g27
tp3927
a(I0
g29
tp3928
a(I0
g31
tp3929
a(I0
g3
tp3930
a(I5
g5
tp3931
a(I0
g7
tp3932
a(I0
g3
tp3933
a(I0
g5
tp3934
a(I7
g7
tp3935
a(I3
g3
tp3936
a(I4
g5
tp3937
a(I0
g7
tp3938
a(I0
g15
tp3939
a(I0
g17
tp3940
a(I0
g19
tp3941
a(I0
g15
tp3942
a(I0
g17
tp3943
a(I0
g19
tp3944
a(I0
g15
tp3945
a(I6
g17
tp3946
a(I0
g19
tp3947
a(I0
g27
tp3948
a(I0
g29
tp3949
a(I0
g31
tp3950
a(I0
g27
tp3951
a(I6
g29
tp3952
a(I0
g31
tp3953
a(I0
g27
tp3954
a(I0
g29
tp3955
a(I1
g31
tp3956
atp3957
a(S'Hard (0)'
p3958
I7
(lp3959
(I0
g3
tp3960
a(I2
g5
tp3961
a(I6
g7
tp3962
a(I0
g3
tp3963
a(I8
g5
tp3964
a(I0
g7
tp3965
a(I9
g3
tp3966
a(I0
g5
tp3967
a(I0
g7
tp3968
a(I8
g15
tp3969
a(I0
g17
tp3970
a(I3
g19
tp3971
a(I0
g15
tp3972
a(I0
g17
tp3973
a(I0
g19
tp3974
a(I0
g15
tp3975
a(I0
g17
tp3976
a(I1
g19
tp3977
a(I0
g27
tp3978
a(I7
g29
tp3979
a(I0
g31
tp3980
a(I0
g27
tp3981
a(I0
g29
tp3982
a(I0
g31
tp3983
a(I0
g27
tp3984
a(I0
g29
tp3985
a(I0
g31
tp3986
a(I0
g3
tp3987
a(I1
g5
tp3988
a(I0
g7
tp3989
a(I0
g3
tp3990
a(I9
g5
tp3991
a(I7
g7
tp3992
a(I0
g3
tp3993
a(I0
g5
tp3994
a(I0
g7
tp3995
a(I0
g15
tp3996
a(I0
g17
tp3997
a(I0
g19
tp3998
a(I0
g15
tp3999
a(I0
g17
tp4000
a(I0
g19
tp4001
a(I0
g15
tp4002
a(I0
g17
tp4003
a(I0
g19
tp4004
a(I0
g27
tp4005
a(I0
g29
tp4006
a(I0
g31
tp4007
a(I5
g27
tp4008
a(I3
g29
tp4009
a(I0
g31
tp4010
a(I0
g27
tp4011
a(I8
g29
tp4012
a(I0
g31
tp4013
a(I0
g3
tp4014
a(I0
g5
tp4015
a(I0
g7
tp4016
a(I0
g3
tp4017
a(I0
g5
tp4018
a(I0
g7
tp4019
a(I0
g3
tp4020
a(I5
g5
tp4021
a(I0
g7
tp4022
a(I1
g15
tp4023
a(I0
g17
tp4024
a(I0
g19
tp4025
a(I0
g15
tp4026
a(I0
g17
tp4027
a(I0
g19
tp4028
a(I4
g15
tp4029
a(I0
g17
tp4030
a(I9
g19
tp4031
a(I0
g27
tp4032
a(I0
g29
tp4033
a(I5
g31
tp4034
a(I0
g27
tp4035
a(I4
g29
tp4036
a(I0
g31
tp4037
a(I8
g27
tp4038
a(I1
g29
tp4039
a(I0
g31
tp4040
atp4041
a(S'Hard (0)'
p4042
I8
(lp4043
(I3
g3
tp4044
a(I0
g5
tp4045
a(I0
g7
tp4046
a(I0
g3
tp4047
a(I0
g5
tp4048
a(I0
g7
tp4049
a(I2
g3
tp4050
a(I7
g5
tp4051
a(I0
g7
tp4052
a(I7
g15
tp4053
a(I0
g17
tp4054
a(I0
g19
tp4055
a(I0
g15
tp4056
a(I4
g17
tp4057
a(I2
g19
tp4058
a(I0
g15
tp4059
a(I0
g17
tp4060
a(I8
g19
tp4061
a(I0
g27
tp4062
a(I0
g29
tp4063
a(I0
g31
tp4064
a(I0
g27
tp4065
a(I8
g29
tp4066
a(I0
g31
tp4067
a(I0
g27
tp4068
a(I0
g29
tp4069
a(I0
g31
tp4070
a(I0
g3
tp4071
a(I0
g5
tp4072
a(I0
g7
tp4073
a(I0
g3
tp4074
a(I0
g5
tp4075
a(I3
g7
tp4076
a(I0
g3
tp4077
a(I0
g5
tp4078
a(I0
g7
tp4079
a(I0
g15
tp4080
a(I0
g17
tp4081
a(I0
g19
tp4082
a(I4
g15
tp4083
a(I0
g17
tp4084
a(I5
g19
tp4085
a(I0
g15
tp4086
a(I0
g17
tp4087
a(I0
g19
tp4088
a(I0
g27
tp4089
a(I0
g29
tp4090
a(I0
g31
tp4091
a(I8
g27
tp4092
a(I0
g29
tp4093
a(I0
g31
tp4094
a(I0
g27
tp4095
a(I0
g29
tp4096
a(I0
g31
tp4097
a(I0
g3
tp4098
a(I0
g5
tp4099
a(I0
g7
tp4100
a(I0
g3
tp4101
a(I9
g5
tp4102
a(I0
g7
tp4103
a(I0
g3
tp4104
a(I0
g5
tp4105
a(I0
g7
tp4106
a(I8
g15
tp4107
a(I0
g17
tp4108
a(I0
g19
tp4109
a(I2
g15
tp4110
a(I5
g17
tp4111
a(I0
g19
tp4112
a(I0
g15
tp4113
a(I0
g17
tp4114
a(I7
g19
tp4115
a(I0
g27
tp4116
a(I2
g29
tp4117
a(I9
g31
tp4118
a(I0
g27
tp4119
a(I0
g29
tp4120
a(I0
g31
tp4121
a(I0
g27
tp4122
a(I0
g29
tp4123
a(I1
g31
tp4124
atp4125
a(S'Hard (0)'
p4126
I9
(lp4127
(I0
g3
tp4128
a(I0
g5
tp4129
a(I9
g7
tp4130
a(I3
g3
tp4131
a(I5
g5
tp4132
a(I0
g7
tp4133
a(I0
g3
tp4134
a(I0
g5
tp4135
a(I0
g7
tp4136
a(I6
g15
tp4137
a(I8
g17
tp4138
a(I0
g19
tp4139
a(I0
g15
tp4140
a(I0
g17
tp4141
a(I0
g19
tp4142
a(I0
g15
tp4143
a(I0
g17
tp4144
a(I0
g19
tp4145
a(I0
g27
tp4146
a(I0
g29
tp4147
a(I0
g31
tp4148
a(I6
g27
tp4149
a(I0
g29
tp4150
a(I4
g31
tp4151
a(I2
g27
tp4152
a(I0
g29
tp4153
a(I0
g31
tp4154
a(I0
g3
tp4155
a(I0
g5
tp4156
a(I0
g7
tp4157
a(I0
g3
tp4158
a(I0
g5
tp4159
a(I0
g7
tp4160
a(I0
g3
tp4161
a(I1
g5
tp4162
a(I6
g7
tp4163
a(I0
g15
tp4164
a(I0
g17
tp4165
a(I0
g19
tp4166
a(I4
g15
tp4167
a(I0
g17
tp4168
a(I9
g19
tp4169
a(I0
g15
tp4170
a(I0
g17
tp4171
a(I0
g19
tp4172
a(I9
g27
tp4173
a(I3
g29
tp4174
a(I0
g31
tp4175
a(I0
g27
tp4176
a(I0
g29
tp4177
a(I0
g31
tp4178
a(I0
g27
tp4179
a(I0
g29
tp4180
a(I0
g31
tp4181
a(I0
g3
tp4182
a(I0
g5
tp4183
a(I4
g7
tp4184
a(I8
g3
tp4185
a(I0
g5
tp4186
a(I7
g7
tp4187
a(I0
g3
tp4188
a(I0
g5
tp4189
a(I0
g7
tp4190
a(I0
g15
tp4191
a(I0
g17
tp4192
a(I0
g19
tp4193
a(I0
g15
tp4194
a(I0
g17
tp4195
a(I0
g19
tp4196
a(I0
g15
tp4197
a(I3
g17
tp4198
a(I8
g19
tp4199
a(I0
g27
tp4200
a(I0
g29
tp4201
a(I0
g31
tp4202
a(I0
g27
tp4203
a(I9
g29
tp4204
a(I5
g31
tp4205
a(I4
g27
tp4206
a(I0
g29
tp4207
a(I0
g31
tp4208
atp4209
a(S'Harder (0)'
p4210
I0
(lp4211
(I5
g3
tp4212
a(I0
g5
tp4213
a(I1
g7
tp4214
a(I0
g3
tp4215
a(I4
g5
tp4216
a(I0
g7
tp4217
a(I0
g3
tp4218
a(I2
g5
tp4219
a(I0
g7
tp4220
a(I0
g15
tp4221
a(I0
g17
tp4222
a(I0
g19
tp4223
a(I3
g15
tp4224
a(I0
g17
tp4225
a(I0
g19
tp4226
a(I0
g15
tp4227
a(I0
g17
tp4228
a(I8
g19
tp4229
a(I0
g27
tp4230
a(I0
g29
tp4231
a(I0
g31
tp4232
a(I0
g27
tp4233
a(I0
g29
tp4234
a(I0
g31
tp4235
a(I4
g27
tp4236
a(I0
g29
tp4237
a(I0
g31
tp4238
a(I0
g3
tp4239
a(I0
g5
tp4240
a(I4
g7
tp4241
a(I8
g3
tp4242
a(I0
g5
tp4243
a(I0
g7
tp4244
a(I0
g3
tp4245
a(I0
g5
tp4246
a(I6
g7
tp4247
a(I0
g15
tp4248
a(I0
g17
tp4249
a(I0
g19
tp4250
a(I0
g15
tp4251
a(I2
g17
tp4252
a(I0
g19
tp4253
a(I0
g15
tp4254
a(I0
g17
tp4255
a(I0
g19
tp4256
a(I7
g27
tp4257
a(I0
g29
tp4258
a(I0
g31
tp4259
a(I0
g27
tp4260
a(I0
g29
tp4261
a(I5
g31
tp4262
a(I8
g27
tp4263
a(I0
g29
tp4264
a(I0
g31
tp4265
a(I0
g3
tp4266
a(I0
g5
tp4267
a(I2
g7
tp4268
a(I0
g3
tp4269
a(I0
g5
tp4270
a(I0
g7
tp4271
a(I0
g3
tp4272
a(I0
g5
tp4273
a(I0
g7
tp4274
a(I4
g15
tp4275
a(I0
g17
tp4276
a(I0
g19
tp4277
a(I0
g15
tp4278
a(I0
g17
tp4279
a(I9
g19
tp4280
a(I0
g15
tp4281
a(I0
g17
tp4282
a(I0
g19
tp4283
a(I0
g27
tp4284
a(I8
g29
tp4285
a(I0
g31
tp4286
a(I0
g27
tp4287
a(I5
g29
tp4288
a(I0
g31
tp4289
a(I9
g27
tp4290
a(I0
g29
tp4291
a(I7
g31
tp4292
atp4293
a(S'Harder (0)'
p4294
I1
(lp4295
(I6
g3
tp4296
a(I0
g5
tp4297
a(I0
g7
tp4298
a(I0
g3
tp4299
a(I0
g5
tp4300
a(I0
g7
tp4301
a(I0
g3
tp4302
a(I0
g5
tp4303
a(I0
g7
tp4304
a(I0
g15
tp4305
a(I0
g17
tp4306
a(I0
g19
tp4307
a(I0
g15
tp4308
a(I0
g17
tp4309
a(I7
g19
tp4310
a(I5
g15
tp4311
a(I0
g17
tp4312
a(I0
g19
tp4313
a(I0
g27
tp4314
a(I0
g29
tp4315
a(I5
g31
tp4316
a(I9
g27
tp4317
a(I0
g29
tp4318
a(I0
g31
tp4319
a(I0
g27
tp4320
a(I8
g29
tp4321
a(I0
g31
tp4322
a(I0
g3
tp4323
a(I0
g5
tp4324
a(I4
g7
tp4325
a(I0
g3
tp4326
a(I6
g5
tp4327
a(I0
g7
tp4328
a(I0
g3
tp4329
a(I0
g5
tp4330
a(I8
g7
tp4331
a(I8
g15
tp4332
a(I3
g17
tp4333
a(I0
g19
tp4334
a(I0
g15
tp4335
a(I0
g17
tp4336
a(I0
g19
tp4337
a(I0
g15
tp4338
a(I5
g17
tp4339
a(I2
g19
tp4340
a(I7
g27
tp4341
a(I0
g29
tp4342
a(I0
g31
tp4343
a(I0
g27
tp4344
a(I5
g29
tp4345
a(I0
g31
tp4346
a(I3
g27
tp4347
a(I0
g29
tp4348
a(I0
g31
tp4349
a(I0
g3
tp4350
a(I8
g5
tp4351
a(I0
g7
tp4352
a(I0
g3
tp4353
a(I0
g5
tp4354
a(I2
g7
tp4355
a(I1
g3
tp4356
a(I0
g5
tp4357
a(I0
g7
tp4358
a(I0
g15
tp4359
a(I0
g17
tp4360
a(I3
g19
tp4361
a(I7
g15
tp4362
a(I0
g17
tp4363
a(I0
g19
tp4364
a(I0
g15
tp4365
a(I0
g17
tp4366
a(I0
g19
tp4367
a(I0
g27
tp4368
a(I0
g29
tp4369
a(I0
g31
tp4370
a(I0
g27
tp4371
a(I0
g29
tp4372
a(I0
g31
tp4373
a(I0
g27
tp4374
a(I0
g29
tp4375
a(I9
g31
tp4376
atp4377
a(S'Harder (0)'
p4378
I2
(lp4379
(I0
g3
tp4380
a(I2
g5
tp4381
a(I0
g7
tp4382
a(I0
g3
tp4383
a(I0
g5
tp4384
a(I0
g7
tp4385
a(I0
g3
tp4386
a(I0
g5
tp4387
a(I0
g7
tp4388
a(I0
g15
tp4389
a(I0
g17
tp4390
a(I0
g19
tp4391
a(I0
g15
tp4392
a(I8
g17
tp4393
a(I0
g19
tp4394
a(I3
g15
tp4395
a(I2
g17
tp4396
a(I0
g19
tp4397
a(I5
g27
tp4398
a(I0
g29
tp4399
a(I0
g31
tp4400
a(I0
g27
tp4401
a(I0
g29
tp4402
a(I4
g31
tp4403
a(I0
g27
tp4404
a(I0
g29
tp4405
a(I9
g31
tp4406
a(I0
g3
tp4407
a(I8
g5
tp4408
a(I0
g7
tp4409
a(I3
g3
tp4410
a(I7
g5
tp4411
a(I0
g7
tp4412
a(I0
g3
tp4413
a(I0
g5
tp4414
a(I0
g7
tp4415
a(I2
g15
tp4416
a(I0
g17
tp4417
a(I6
g19
tp4418
a(I0
g15
tp4419
a(I0
g17
tp4420
a(I0
g19
tp4421
a(I9
g15
tp4422
a(I0
g17
tp4423
a(I7
g19
tp4424
a(I0
g27
tp4425
a(I0
g29
tp4426
a(I0
g31
tp4427
a(I0
g27
tp4428
a(I5
g29
tp4429
a(I6
g31
tp4430
a(I0
g27
tp4431
a(I4
g29
tp4432
a(I0
g31
tp4433
a(I7
g3
tp4434
a(I0
g5
tp4435
a(I0
g7
tp4436
a(I8
g3
tp4437
a(I0
g5
tp4438
a(I0
g7
tp4439
a(I0
g3
tp4440
a(I0
g5
tp4441
a(I3
g7
tp4442
a(I0
g15
tp4443
a(I1
g17
tp4444
a(I2
g19
tp4445
a(I0
g15
tp4446
a(I9
g17
tp4447
a(I0
g19
tp4448
a(I0
g15
tp4449
a(I0
g17
tp4450
a(I0
g19
tp4451
a(I0
g27
tp4452
a(I0
g29
tp4453
a(I0
g31
tp4454
a(I0
g27
tp4455
a(I0
g29
tp4456
a(I0
g31
tp4457
a(I0
g27
tp4458
a(I8
g29
tp4459
a(I0
g31
tp4460
atp4461
a(S'Harder (0)'
p4462
I3
(lp4463
(I0
g3
tp4464
a(I0
g5
tp4465
a(I0
g7
tp4466
a(I0
g3
tp4467
a(I4
g5
tp4468
a(I0
g7
tp4469
a(I0
g3
tp4470
a(I8
g5
tp4471
a(I1
g7
tp4472
a(I4
g15
tp4473
a(I0
g17
tp4474
a(I6
g19
tp4475
a(I0
g15
tp4476
a(I0
g17
tp4477
a(I0
g19
tp4478
a(I0
g15
tp4479
a(I0
g17
tp4480
a(I0
g19
tp4481
a(I0
g27
tp4482
a(I0
g29
tp4483
a(I0
g31
tp4484
a(I3
g27
tp4485
a(I9
g29
tp4486
a(I0
g31
tp4487
a(I0
g27
tp4488
a(I0
g29
tp4489
a(I0
g31
tp4490
a(I0
g3
tp4491
a(I0
g5
tp4492
a(I0
g7
tp4493
a(I0
g3
tp4494
a(I0
g5
tp4495
a(I0
g7
tp4496
a(I3
g3
tp4497
a(I0
g5
tp4498
a(I0
g7
tp4499
a(I0
g15
tp4500
a(I1
g17
tp4501
a(I8
g19
tp4502
a(I0
g15
tp4503
a(I0
g17
tp4504
a(I0
g19
tp4505
a(I2
g15
tp4506
a(I9
g17
tp4507
a(I0
g19
tp4508
a(I0
g27
tp4509
a(I0
g29
tp4510
a(I4
g31
tp4511
a(I0
g27
tp4512
a(I0
g29
tp4513
a(I0
g31
tp4514
a(I0
g27
tp4515
a(I0
g29
tp4516
a(I0
g31
tp4517
a(I0
g3
tp4518
a(I0
g5
tp4519
a(I0
g7
tp4520
a(I0
g3
tp4521
a(I7
g5
tp4522
a(I8
g7
tp4523
a(I0
g3
tp4524
a(I0
g5
tp4525
a(I0
g7
tp4526
a(I0
g15
tp4527
a(I0
g17
tp4528
a(I0
g19
tp4529
a(I0
g15
tp4530
a(I0
g17
tp4531
a(I0
g19
tp4532
a(I8
g15
tp4533
a(I0
g17
tp4534
a(I3
g19
tp4535
a(I7
g27
tp4536
a(I8
g29
tp4537
a(I0
g31
tp4538
a(I0
g27
tp4539
a(I5
g29
tp4540
a(I0
g31
tp4541
a(I0
g27
tp4542
a(I0
g29
tp4543
a(I0
g31
tp4544
atp4545
a(S'Harder (0)'
p4546
I4
(lp4547
(I0
g3
tp4548
a(I0
g5
tp4549
a(I1
g7
tp4550
a(I0
g3
tp4551
a(I0
g5
tp4552
a(I6
g7
tp4553
a(I0
g3
tp4554
a(I0
g5
tp4555
a(I0
g7
tp4556
a(I0
g15
tp4557
a(I0
g17
tp4558
a(I0
g19
tp4559
a(I2
g15
tp4560
a(I7
g17
tp4561
a(I0
g19
tp4562
a(I0
g15
tp4563
a(I3
g17
tp4564
a(I6
g19
tp4565
a(I0
g27
tp4566
a(I6
g29
tp4567
a(I0
g31
tp4568
a(I0
g27
tp4569
a(I0
g29
tp4570
a(I5
g31
tp4571
a(I0
g27
tp4572
a(I0
g29
tp4573
a(I0
g31
tp4574
a(I8
g3
tp4575
a(I3
g5
tp4576
a(I0
g7
tp4577
a(I0
g3
tp4578
a(I0
g5
tp4579
a(I0
g7
tp4580
a(I0
g3
tp4581
a(I0
g5
tp4582
a(I0
g7
tp4583
a(I0
g15
tp4584
a(I0
g17
tp4585
a(I5
g19
tp4586
a(I0
g15
tp4587
a(I0
g17
tp4588
a(I0
g19
tp4589
a(I3
g15
tp4590
a(I0
g17
tp4591
a(I0
g19
tp4592
a(I0
g27
tp4593
a(I0
g29
tp4594
a(I0
g31
tp4595
a(I0
g27
tp4596
a(I0
g29
tp4597
a(I0
g31
tp4598
a(I0
g27
tp4599
a(I8
g29
tp4600
a(I4
g31
tp4601
a(I0
g3
tp4602
a(I0
g5
tp4603
a(I0
g7
tp4604
a(I5
g3
tp4605
a(I0
g5
tp4606
a(I0
g7
tp4607
a(I0
g3
tp4608
a(I2
g5
tp4609
a(I0
g7
tp4610
a(I5
g15
tp4611
a(I8
g17
tp4612
a(I0
g19
tp4613
a(I0
g15
tp4614
a(I6
g17
tp4615
a(I2
g19
tp4616
a(I0
g15
tp4617
a(I0
g17
tp4618
a(I0
g19
tp4619
a(I0
g27
tp4620
a(I0
g29
tp4621
a(I0
g31
tp4622
a(I3
g27
tp4623
a(I0
g29
tp4624
a(I0
g31
tp4625
a(I9
g27
tp4626
a(I0
g29
tp4627
a(I0
g31
tp4628
atp4629
a(S'Harder (0)'
p4630
I5
(lp4631
(I0
g3
tp4632
a(I0
g5
tp4633
a(I0
g7
tp4634
a(I4
g3
tp4635
a(I3
g5
tp4636
a(I0
g7
tp4637
a(I8
g3
tp4638
a(I0
g5
tp4639
a(I0
g7
tp4640
a(I0
g15
tp4641
a(I0
g17
tp4642
a(I7
g19
tp4643
a(I0
g15
tp4644
a(I0
g17
tp4645
a(I9
g19
tp4646
a(I0
g15
tp4647
a(I0
g17
tp4648
a(I0
g19
tp4649
a(I0
g27
tp4650
a(I8
g29
tp4651
a(I0
g31
tp4652
a(I7
g27
tp4653
a(I0
g29
tp4654
a(I0
g31
tp4655
a(I3
g27
tp4656
a(I0
g29
tp4657
a(I0
g31
tp4658
a(I1
g3
tp4659
a(I4
g5
tp4660
a(I0
g7
tp4661
a(I0
g3
tp4662
a(I0
g5
tp4663
a(I0
g7
tp4664
a(I0
g3
tp4665
a(I0
g5
tp4666
a(I0
g7
tp4667
a(I0
g15
tp4668
a(I9
g17
tp4669
a(I0
g19
tp4670
a(I0
g15
tp4671
a(I6
g17
tp4672
a(I0
g19
tp4673
a(I0
g15
tp4674
a(I4
g17
tp4675
a(I0
g19
tp4676
a(I0
g27
tp4677
a(I0
g29
tp4678
a(I0
g31
tp4679
a(I0
g27
tp4680
a(I0
g29
tp4681
a(I0
g31
tp4682
a(I0
g27
tp4683
a(I6
g29
tp4684
a(I3
g31
tp4685
a(I0
g3
tp4686
a(I0
g5
tp4687
a(I1
g7
tp4688
a(I0
g3
tp4689
a(I0
g5
tp4690
a(I8
g7
tp4691
a(I0
g3
tp4692
a(I2
g5
tp4693
a(I0
g7
tp4694
a(I0
g15
tp4695
a(I0
g17
tp4696
a(I0
g19
tp4697
a(I9
g15
tp4698
a(I0
g17
tp4699
a(I0
g19
tp4700
a(I5
g15
tp4701
a(I0
g17
tp4702
a(I0
g19
tp4703
a(I0
g27
tp4704
a(I0
g29
tp4705
a(I8
g31
tp4706
a(I0
g27
tp4707
a(I4
g29
tp4708
a(I7
g31
tp4709
a(I0
g27
tp4710
a(I0
g29
tp4711
a(I0
g31
tp4712
atp4713
a(S'Harder (0)'
p4714
I6
(lp4715
(I0
g3
tp4716
a(I7
g5
tp4717
a(I0
g7
tp4718
a(I0
g3
tp4719
a(I0
g5
tp4720
a(I1
g7
tp4721
a(I0
g3
tp4722
a(I8
g5
tp4723
a(I0
g7
tp4724
a(I0
g15
tp4725
a(I0
g17
tp4726
a(I0
g19
tp4727
a(I0
g15
tp4728
a(I0
g17
tp4729
a(I0
g19
tp4730
a(I0
g15
tp4731
a(I0
g17
tp4732
a(I0
g19
tp4733
a(I0
g27
tp4734
a(I3
g29
tp4735
a(I2
g31
tp4736
a(I7
g27
tp4737
a(I0
g29
tp4738
a(I0
g31
tp4739
a(I9
g27
tp4740
a(I0
g29
tp4741
a(I0
g31
tp4742
a(I7
g3
tp4743
a(I0
g5
tp4744
a(I3
g7
tp4745
a(I2
g3
tp4746
a(I0
g5
tp4747
a(I0
g7
tp4748
a(I0
g3
tp4749
a(I0
g5
tp4750
a(I0
g7
tp4751
a(I0
g15
tp4752
a(I8
g17
tp4753
a(I0
g19
tp4754
a(I9
g15
tp4755
a(I0
g17
tp4756
a(I4
g19
tp4757
a(I0
g15
tp4758
a(I3
g17
tp4759
a(I0
g19
tp4760
a(I0
g27
tp4761
a(I0
g29
tp4762
a(I0
g31
tp4763
a(I0
g27
tp4764
a(I0
g29
tp4765
a(I5
g31
tp4766
a(I4
g27
tp4767
a(I0
g29
tp4768
a(I1
g31
tp4769
a(I0
g3
tp4770
a(I0
g5
tp4771
a(I4
g7
tp4772
a(I0
g3
tp4773
a(I0
g5
tp4774
a(I7
g7
tp4775
a(I1
g3
tp4776
a(I5
g5
tp4777
a(I0
g7
tp4778
a(I0
g15
tp4779
a(I0
g17
tp4780
a(I0
g19
tp4781
a(I0
g15
tp4782
a(I0
g17
tp4783
a(I0
g19
tp4784
a(I0
g15
tp4785
a(I0
g17
tp4786
a(I0
g19
tp4787
a(I0
g27
tp4788
a(I2
g29
tp4789
a(I0
g31
tp4790
a(I1
g27
tp4791
a(I0
g29
tp4792
a(I0
g31
tp4793
a(I0
g27
tp4794
a(I4
g29
tp4795
a(I0
g31
tp4796
atp4797
a(S'Harder (0)'
p4798
I7
(lp4799
(I0
g3
tp4800
a(I0
g5
tp4801
a(I0
g7
tp4802
a(I0
g3
tp4803
a(I0
g5
tp4804
a(I0
g7
tp4805
a(I0
g3
tp4806
a(I0
g5
tp4807
a(I0
g7
tp4808
a(I6
g15
tp4809
a(I0
g17
tp4810
a(I0
g19
tp4811
a(I1
g15
tp4812
a(I5
g17
tp4813
a(I4
g19
tp4814
a(I9
g15
tp4815
a(I0
g17
tp4816
a(I0
g19
tp4817
a(I9
g27
tp4818
a(I0
g29
tp4819
a(I2
g31
tp4820
a(I3
g27
tp4821
a(I0
g29
tp4822
a(I0
g31
tp4823
a(I0
g27
tp4824
a(I0
g29
tp4825
a(I1
g31
tp4826
a(I1
g3
tp4827
a(I0
g5
tp4828
a(I0
g7
tp4829
a(I0
g3
tp4830
a(I0
g5
tp4831
a(I0
g7
tp4832
a(I0
g3
tp4833
a(I9
g5
tp4834
a(I0
g7
tp4835
a(I0
g15
tp4836
a(I0
g17
tp4837
a(I3
g19
tp4838
a(I0
g15
tp4839
a(I0
g17
tp4840
a(I0
g19
tp4841
a(I5
g15
tp4842
a(I0
g17
tp4843
a(I0
g19
tp4844
a(I0
g27
tp4845
a(I2
g29
tp4846
a(I0
g31
tp4847
a(I0
g27
tp4848
a(I0
g29
tp4849
a(I0
g31
tp4850
a(I0
g27
tp4851
a(I0
g29
tp4852
a(I3
g31
tp4853
a(I3
g3
tp4854
a(I0
g5
tp4855
a(I0
g7
tp4856
a(I0
g3
tp4857
a(I0
g5
tp4858
a(I7
g7
tp4859
a(I2
g3
tp4860
a(I0
g5
tp4861
a(I9
g7
tp4862
a(I0
g15
tp4863
a(I0
g17
tp4864
a(I8
g19
tp4865
a(I4
g15
tp4866
a(I6
g17
tp4867
a(I9
g19
tp4868
a(I0
g15
tp4869
a(I0
g17
tp4870
a(I5
g19
tp4871
a(I0
g27
tp4872
a(I0
g29
tp4873
a(I0
g31
tp4874
a(I0
g27
tp4875
a(I0
g29
tp4876
a(I0
g31
tp4877
a(I0
g27
tp4878
a(I0
g29
tp4879
a(I0
g31
tp4880
atp4881
a(S'Harder (0)'
p4882
I8
(lp4883
(I0
g3
tp4884
a(I3
g5
tp4885
a(I0
g7
tp4886
a(I0
g3
tp4887
a(I2
g5
tp4888
a(I0
g7
tp4889
a(I0
g3
tp4890
a(I6
g5
tp4891
a(I0
g7
tp4892
a(I0
g15
tp4893
a(I0
g17
tp4894
a(I0
g19
tp4895
a(I5
g15
tp4896
a(I0
g17
tp4897
a(I0
g19
tp4898
a(I0
g15
tp4899
a(I0
g17
tp4900
a(I0
g19
tp4901
a(I9
g27
tp4902
a(I0
g29
tp4903
a(I6
g31
tp4904
a(I0
g27
tp4905
a(I0
g29
tp4906
a(I0
g31
tp4907
a(I2
g27
tp4908
a(I0
g29
tp4909
a(I0
g31
tp4910
a(I0
g3
tp4911
a(I0
g5
tp4912
a(I0
g7
tp4913
a(I8
g3
tp4914
a(I0
g5
tp4915
a(I0
g7
tp4916
a(I0
g3
tp4917
a(I0
g5
tp4918
a(I0
g7
tp4919
a(I7
g15
tp4920
a(I6
g17
tp4921
a(I0
g19
tp4922
a(I0
g15
tp4923
a(I0
g17
tp4924
a(I0
g19
tp4925
a(I0
g15
tp4926
a(I8
g17
tp4927
a(I2
g19
tp4928
a(I0
g27
tp4929
a(I0
g29
tp4930
a(I0
g31
tp4931
a(I0
g27
tp4932
a(I0
g29
tp4933
a(I4
g31
tp4934
a(I0
g27
tp4935
a(I0
g29
tp4936
a(I0
g31
tp4937
a(I0
g3
tp4938
a(I0
g5
tp4939
a(I4
g7
tp4940
a(I0
g3
tp4941
a(I0
g5
tp4942
a(I0
g7
tp4943
a(I6
g3
tp4944
a(I0
g5
tp4945
a(I1
g7
tp4946
a(I0
g15
tp4947
a(I0
g17
tp4948
a(I0
g19
tp4949
a(I0
g15
tp4950
a(I0
g17
tp4951
a(I7
g19
tp4952
a(I0
g15
tp4953
a(I0
g17
tp4954
a(I0
g19
tp4955
a(I0
g27
tp4956
a(I1
g29
tp4957
a(I0
g31
tp4958
a(I0
g27
tp4959
a(I3
g29
tp4960
a(I0
g31
tp4961
a(I0
g27
tp4962
a(I2
g29
tp4963
a(I0
g31
tp4964
atp4965
a(S'Harder (0)'
p4966
I9
(lp4967
(I2
g3
tp4968
a(I0
g5
tp4969
a(I4
g7
tp4970
a(I0
g3
tp4971
a(I0
g5
tp4972
a(I0
g7
tp4973
a(I0
g3
tp4974
a(I0
g5
tp4975
a(I0
g7
tp4976
a(I0
g15
tp4977
a(I0
g17
tp4978
a(I0
g19
tp4979
a(I0
g15
tp4980
a(I0
g17
tp4981
a(I9
g19
tp4982
a(I0
g15
tp4983
a(I0
g17
tp4984
a(I0
g19
tp4985
a(I0
g27
tp4986
a(I0
g29
tp4987
a(I6
g31
tp4988
a(I0
g27
tp4989
a(I7
g29
tp4990
a(I0
g31
tp4991
a(I0
g27
tp4992
a(I0
g29
tp4993
a(I2
g31
tp4994
a(I3
g3
tp4995
a(I0
g5
tp4996
a(I0
g7
tp4997
a(I0
g3
tp4998
a(I0
g5
tp4999
a(I0
g7
tp5000
a(I0
g3
tp5001
a(I0
g5
tp5002
a(I0
g7
tp5003
a(I0
g15
tp5004
a(I2
g17
tp5005
a(I7
g19
tp5006
a(I8
g15
tp5007
a(I0
g17
tp5008
a(I1
g19
tp5009
a(I6
g15
tp5010
a(I4
g17
tp5011
a(I0
g19
tp5012
a(I0
g27
tp5013
a(I0
g29
tp5014
a(I0
g31
tp5015
a(I0
g27
tp5016
a(I0
g29
tp5017
a(I0
g31
tp5018
a(I0
g27
tp5019
a(I0
g29
tp5020
a(I7
g31
tp5021
a(I7
g3
tp5022
a(I0
g5
tp5023
a(I0
g7
tp5024
a(I0
g3
tp5025
a(I1
g5
tp5026
a(I0
g7
tp5027
a(I9
g3
tp5028
a(I0
g5
tp5029
a(I0
g7
tp5030
a(I0
g15
tp5031
a(I0
g17
tp5032
a(I0
g19
tp5033
a(I3
g15
tp5034
a(I0
g17
tp5035
a(I0
g19
tp5036
a(I0
g15
tp5037
a(I0
g17
tp5038
a(I0
g19
tp5039
a(I0
g27
tp5040
a(I0
g29
tp5041
a(I0
g31
tp5042
a(I0
g27
tp5043
a(I0
g29
tp5044
a(I0
g31
tp5045
a(I2
g27
tp5046
a(I0
g29
tp5047
a(I8
g31
tp5048
atp5049
a.