(lp0
(S'Very easy (0)'
p1
I510
(lp2
(I0
S'red'
p3
tp4
a(I0
S'blue'
p5
tp6
a(I2
S'green'
p7
tp8
a(I7
g3
tp9
a(I8
g5
tp10
a(I1
g7
tp11
a(I9
g3
tp12
a(I0
g5
tp13
a(I0
g7
tp14
a(I0
S'yellow'
p15
tp16
a(I0
S'pink'
p17
tp18
a(I0
S'lblue'
p19
tp20
a(I0
g15
tp21
a(I5
g17
tp22
a(I0
g19
tp23
a(I7
g15
tp24
a(I0
g17
tp25
a(I0
g19
tp26
a(I0
S'black'
p27
tp28
a(I0
S'brown'
p29
tp30
a(I0
S'grey'
p31
tp32
a(I0
g27
tp33
a(I0
g29
tp34
a(I0
g31
tp35
a(I0
g27
tp36
a(I5
g29
tp37
a(I0
g31
tp38
a(I0
g3
tp39
a(I0
g5
tp40
a(I0
g7
tp41
a(I0
g3
tp42
a(I0
g5
tp43
a(I7
g7
tp44
a(I0
g3
tp45
a(I0
g5
tp46
a(I0
g7
tp47
a(I0
g15
tp48
a(I1
g17
tp49
a(I7
g19
tp50
a(I9
g15
tp51
a(I0
g17
tp52
a(I5
g19
tp53
a(I4
g15
tp54
a(I8
g17
tp55
a(I0
g19
tp56
a(I0
g27
tp57
a(I0
g29
tp58
a(I0
g31
tp59
a(I8
g27
tp60
a(I0
g29
tp61
a(I0
g31
tp62
a(I0
g27
tp63
a(I0
g29
tp64
a(I0
g31
tp65
a(I0
g3
tp66
a(I2
g5
tp67
a(I0
g7
tp68
a(I0
g3
tp69
a(I0
g5
tp70
a(I0
g7
tp71
a(I0
g3
tp72
a(I0
g5
tp73
a(I0
g7
tp74
a(I0
g15
tp75
a(I0
g17
tp76
a(I1
g19
tp77
a(I0
g15
tp78
a(I4
g17
tp79
a(I0
g19
tp80
a(I0
g15
tp81
a(I0
g17
tp82
a(I0
g19
tp83
a(I0
g27
tp84
a(I0
g29
tp85
a(I8
g31
tp86
a(I2
g27
tp87
a(I3
g29
tp88
a(I9
g31
tp89
a(I1
g27
tp90
a(I0
g29
tp91
a(I0
g31
tp92
atp93
a.