(lp0
(S'Super easy (0)'
p1
I0
(lp2
(I0
S'red'
p3
tp4
a(I0
S'blue'
p5
tp6
a(I2
S'green'
p7
tp8
a(I5
g3
tp9
a(I0
g5
tp10
a(I0
g7
tp11
a(I0
g3
tp12
a(I0
g5
tp13
a(I6
g7
tp14
a(I0
S'yellow'
p15
tp16
a(I0
S'pink'
p17
tp18
a(I0
S'lblue'
p19
tp20
a(I0
g15
tp21
a(I3
g17
tp22
a(I6
g19
tp23
a(I0
g15
tp24
a(I1
g17
tp25
a(I0
g19
tp26
a(I6
S'black'
p27
tp28
a(I0
S'brown'
p29
tp30
a(I0
S'grey'
p31
tp32
a(I2
g27
tp33
a(I0
g29
tp34
a(I0
g31
tp35
a(I0
g27
tp36
a(I4
g29
tp37
a(I0
g31
tp38
a(I0
g3
tp39
a(I0
g5
tp40
a(I0
g7
tp41
a(I0
g3
tp42
a(I0
g5
tp43
a(I0
g7
tp44
a(I0
g3
tp45
a(I2
g5
tp46
a(I5
g7
tp47
a(I0
g15
tp48
a(I0
g17
tp49
a(I0
g19
tp50
a(I1
g15
tp51
a(I0
g17
tp52
a(I4
g19
tp53
a(I0
g15
tp54
a(I0
g17
tp55
a(I0
g19
tp56
a(I9
g27
tp57
a(I6
g29
tp58
a(I0
g31
tp59
a(I0
g27
tp60
a(I0
g29
tp61
a(I0
g31
tp62
a(I0
g27
tp63
a(I0
g29
tp64
a(I0
g31
tp65
a(I0
g3
tp66
a(I3
g5
tp67
a(I0
g7
tp68
a(I0
g3
tp69
a(I0
g5
tp70
a(I1
g7
tp71
a(I0
g3
tp72
a(I0
g5
tp73
a(I8
g7
tp74
a(I0
g15
tp75
a(I4
g17
tp76
a(I0
g19
tp77
a(I6
g15
tp78
a(I8
g17
tp79
a(I0
g19
tp80
a(I0
g15
tp81
a(I0
g17
tp82
a(I0
g19
tp83
a(I7
g27
tp84
a(I0
g29
tp85
a(I0
g31
tp86
a(I0
g27
tp87
a(I0
g29
tp88
a(I2
g31
tp89
a(I1
g27
tp90
a(I0
g29
tp91
a(I0
g31
tp92
atp93
a(S'Very easy (0)'
p94
I0
(lp95
(I7
g3
tp96
a(I0
g5
tp97
a(I0
g7
tp98
a(I0
g3
tp99
a(I0
g5
tp100
a(I6
g7
tp101
a(I0
g3
tp102
a(I0
g5
tp103
a(I2
g7
tp104
a(I0
g15
tp105
a(I1
g17
tp106
a(I0
g19
tp107
a(I0
g15
tp108
a(I4
g17
tp109
a(I0
g19
tp110
a(I8
g15
tp111
a(I0
g17
tp112
a(I0
g19
tp113
a(I0
g27
tp114
a(I0
g29
tp115
a(I4
g31
tp116
a(I0
g27
tp117
a(I1
g29
tp118
a(I0
g31
tp119
a(I6
g27
tp120
a(I0
g29
tp121
a(I0
g31
tp122
a(I0
g3
tp123
a(I0
g5
tp124
a(I0
g7
tp125
a(I0
g3
tp126
a(I0
g5
tp127
a(I3
g7
tp128
a(I5
g3
tp129
a(I0
g5
tp130
a(I0
g7
tp131
a(I0
g15
tp132
a(I0
g17
tp133
a(I0
g19
tp134
a(I0
g15
tp135
a(I0
g17
tp136
a(I0
g19
tp137
a(I0
g15
tp138
a(I0
g17
tp139
a(I0
g19
tp140
a(I0
g27
tp141
a(I0
g29
tp142
a(I1
g31
tp143
a(I2
g27
tp144
a(I0
g29
tp145
a(I0
g31
tp146
a(I0
g27
tp147
a(I0
g29
tp148
a(I0
g31
tp149
a(I0
g3
tp150
a(I0
g5
tp151
a(I8
g7
tp152
a(I0
g3
tp153
a(I7
g5
tp154
a(I0
g7
tp155
a(I3
g3
tp156
a(I0
g5
tp157
a(I0
g7
tp158
a(I0
g15
tp159
a(I0
g17
tp160
a(I6
g19
tp161
a(I0
g15
tp162
a(I3
g17
tp163
a(I0
g19
tp164
a(I0
g15
tp165
a(I8
g17
tp166
a(I0
g19
tp167
a(I1
g27
tp168
a(I0
g29
tp169
a(I0
g31
tp170
a(I4
g27
tp171
a(I0
g29
tp172
a(I0
g31
tp173
a(I0
g27
tp174
a(I0
g29
tp175
a(I9
g31
tp176
atp177
a(S'Easy (0)'
p178
I0
(lp179
(I4
g3
tp180
a(I0
g5
tp181
a(I0
g7
tp182
a(I3
g3
tp183
a(I0
g5
tp184
a(I0
g7
tp185
a(I0
g3
tp186
a(I1
g5
tp187
a(I0
g7
tp188
a(I0
g15
tp189
a(I0
g17
tp190
a(I0
g19
tp191
a(I0
g15
tp192
a(I1
g17
tp193
a(I0
g19
tp194
a(I0
g15
tp195
a(I3
g17
tp196
a(I0
g19
tp197
a(I0
g27
tp198
a(I0
g29
tp199
a(I0
g31
tp200
a(I0
g27
tp201
a(I7
g29
tp202
a(I4
g31
tp203
a(I8
g27
tp204
a(I0
g29
tp205
a(I0
g31
tp206
a(I0
g3
tp207
a(I0
g5
tp208
a(I4
g7
tp209
a(I0
g3
tp210
a(I0
g5
tp211
a(I0
g7
tp212
a(I0
g3
tp213
a(I9
g5
tp214
a(I0
g7
tp215
a(I7
g15
tp216
a(I0
g17
tp217
a(I5
g19
tp218
a(I0
g15
tp219
a(I0
g17
tp220
a(I0
g19
tp221
a(I1
g15
tp222
a(I0
g17
tp223
a(I3
g19
tp224
a(I0
g27
tp225
a(I1
g29
tp226
a(I0
g31
tp227
a(I0
g27
tp228
a(I0
g29
tp229
a(I0
g31
tp230
a(I2
g27
tp231
a(I0
g29
tp232
a(I0
g31
tp233
a(I0
g3
tp234
a(I0
g5
tp235
a(I3
g7
tp236
a(I1
g3
tp237
a(I2
g5
tp238
a(I0
g7
tp239
a(I0
g3
tp240
a(I0
g5
tp241
a(I0
g7
tp242
a(I0
g15
tp243
a(I9
g17
tp244
a(I0
g19
tp245
a(I0
g15
tp246
a(I4
g17
tp247
a(I0
g19
tp248
a(I0
g15
tp249
a(I0
g17
tp250
a(I0
g19
tp251
a(I0
g27
tp252
a(I8
g29
tp253
a(I0
g31
tp254
a(I0
g27
tp255
a(I0
g29
tp256
a(I3
g31
tp257
a(I0
g27
tp258
a(I0
g29
tp259
a(I2
g31
tp260
atp261
a(S'Medium (0)'
p262
I0
(lp263
(I1
g3
tp264
a(I0
g5
tp265
a(I2
g7
tp266
a(I0
g3
tp267
a(I0
g5
tp268
a(I0
g7
tp269
a(I0
g3
tp270
a(I0
g5
tp271
a(I0
g7
tp272
a(I0
g15
tp273
a(I3
g17
tp274
a(I0
g19
tp275
a(I9
g15
tp276
a(I0
g17
tp277
a(I5
g19
tp278
a(I0
g15
tp279
a(I0
g17
tp280
a(I0
g19
tp281
a(I0
g27
tp282
a(I0
g29
tp283
a(I0
g31
tp284
a(I0
g27
tp285
a(I3
g29
tp286
a(I0
g31
tp287
a(I0
g27
tp288
a(I6
g29
tp289
a(I0
g31
tp290
a(I0
g3
tp291
a(I0
g5
tp292
a(I0
g7
tp293
a(I0
g3
tp294
a(I0
g5
tp295
a(I4
g7
tp296
a(I6
g3
tp297
a(I0
g5
tp298
a(I0
g7
tp299
a(I2
g15
tp300
a(I0
g17
tp301
a(I0
g19
tp302
a(I0
g15
tp303
a(I0
g17
tp304
a(I0
g19
tp305
a(I0
g15
tp306
a(I0
g17
tp307
a(I1
g19
tp308
a(I0
g27
tp309
a(I0
g29
tp310
a(I9
g31
tp311
a(I7
g27
tp312
a(I0
g29
tp313
a(I0
g31
tp314
a(I0
g27
tp315
a(I0
g29
tp316
a(I0
g31
tp317
a(I0
g3
tp318
a(I8
g5
tp319
a(I0
g7
tp320
a(I0
g3
tp321
a(I4
g5
tp322
a(I0
g7
tp323
a(I0
g3
tp324
a(I0
g5
tp325
a(I0
g7
tp326
a(I0
g15
tp327
a(I0
g17
tp328
a(I0
g19
tp329
a(I5
g15
tp330
a(I0
g17
tp331
a(I8
g19
tp332
a(I0
g15
tp333
a(I2
g17
tp334
a(I0
g19
tp335
a(I0
g27
tp336
a(I0
g29
tp337
a(I0
g31
tp338
a(I0
g27
tp339
a(I0
g29
tp340
a(I0
g31
tp341
a(I4
g27
tp342
a(I0
g29
tp343
a(I5
g31
tp344
atp345
a(S'Hard (0)'
p346
I0
(lp347
(I0
g3
tp348
a(I0
g5
tp349
a(I0
g7
tp350
a(I7
g3
tp351
a(I0
g5
tp352
a(I0
g7
tp353
a(I0
g3
tp354
a(I0
g5
tp355
a(I2
g7
tp356
a(I4
g15
tp357
a(I0
g17
tp358
a(I0
g19
tp359
a(I3
g15
tp360
a(I0
g17
tp361
a(I0
g19
tp362
a(I0
g15
tp363
a(I0
g17
tp364
a(I8
g19
tp365
a(I0
g27
tp366
a(I0
g29
tp367
a(I0
g31
tp368
a(I0
g27
tp369
a(I0
g29
tp370
a(I0
g31
tp371
a(I4
g27
tp372
a(I0
g29
tp373
a(I0
g31
tp374
a(I0
g3
tp375
a(I0
g5
tp376
a(I0
g7
tp377
a(I0
g3
tp378
a(I8
g5
tp379
a(I4
g7
tp380
a(I0
g3
tp381
a(I1
g5
tp382
a(I3
g7
tp383
a(I0
g15
tp384
a(I0
g17
tp385
a(I2
g19
tp386
a(I0
g15
tp387
a(I0
g17
tp388
a(I0
g19
tp389
a(I5
g15
tp390
a(I0
g17
tp391
a(I0
g19
tp392
a(I5
g27
tp393
a(I4
g29
tp394
a(I0
g31
tp395
a(I9
g27
tp396
a(I1
g29
tp397
a(I0
g31
tp398
a(I0
g27
tp399
a(I0
g29
tp400
a(I0
g31
tp401
a(I0
g3
tp402
a(I0
g5
tp403
a(I9
g7
tp404
a(I0
g3
tp405
a(I0
g5
tp406
a(I0
g7
tp407
a(I0
g3
tp408
a(I0
g5
tp409
a(I0
g7
tp410
a(I7
g15
tp411
a(I0
g17
tp412
a(I0
g19
tp413
a(I0
g15
tp414
a(I0
g17
tp415
a(I6
g19
tp416
a(I0
g15
tp417
a(I0
g17
tp418
a(I4
g19
tp419
a(I6
g27
tp420
a(I0
g29
tp421
a(I0
g31
tp422
a(I0
g27
tp423
a(I0
g29
tp424
a(I8
g31
tp425
a(I0
g27
tp426
a(I0
g29
tp427
a(I0
g31
tp428
atp429
a(S'Harder (0)'
p430
I0
(lp431
(I4
g3
tp432
a(I0
g5
tp433
a(I0
g7
tp434
a(I7
g3
tp435
a(I0
g5
tp436
a(I0
g7
tp437
a(I0
g3
tp438
a(I1
g5
tp439
a(I0
g7
tp440
a(I0
g15
tp441
a(I1
g17
tp442
a(I0
g19
tp443
a(I6
g15
tp444
a(I0
g17
tp445
a(I0
g19
tp446
a(I0
g15
tp447
a(I0
g17
tp448
a(I0
g19
tp449
a(I0
g27
tp450
a(I9
g29
tp451
a(I6
g31
tp452
a(I0
g27
tp453
a(I1
g29
tp454
a(I0
g31
tp455
a(I0
g27
tp456
a(I0
g29
tp457
a(I0
g31
tp458
a(I0
g3
tp459
a(I5
g5
tp460
a(I0
g7
tp461
a(I0
g3
tp462
a(I0
g5
tp463
a(I7
g7
tp464
a(I0
g3
tp465
a(I0
g5
tp466
a(I0
g7
tp467
a(I0
g15
tp468
a(I0
g17
tp469
a(I4
g19
tp470
a(I0
g15
tp471
a(I0
g17
tp472
a(I0
g19
tp473
a(I1
g15
tp474
a(I0
g17
tp475
a(I0
g19
tp476
a(I0
g27
tp477
a(I0
g29
tp478
a(I0
g31
tp479
a(I4
g27
tp480
a(I0
g29
tp481
a(I0
g31
tp482
a(I0
g27
tp483
a(I7
g29
tp484
a(I0
g31
tp485
a(I0
g3
tp486
a(I0
g5
tp487
a(I0
g7
tp488
a(I0
g3
tp489
a(I7
g5
tp490
a(I0
g7
tp491
a(I9
g3
tp492
a(I4
g5
tp493
a(I0
g7
tp494
a(I0
g15
tp495
a(I0
g17
tp496
a(I0
g19
tp497
a(I0
g15
tp498
a(I0
g17
tp499
a(I5
g19
tp500
a(I0
g15
tp501
a(I2
g17
tp502
a(I0
g19
tp503
a(I0
g27
tp504
a(I6
g29
tp505
a(I0
g31
tp506
a(I0
g27
tp507
a(I0
g29
tp508
a(I8
g31
tp509
a(I0
g27
tp510
a(I0
g29
tp511
a(I3
g31
tp512
atp513
a.