(lp0
(S'Very easy (0)'
p1
I767
(lp2
(I2
I1
tp3
a(I3
I2
tp4
a(I11
I2
tp5
a(I4
I5
tp6
a(I6
I5
tp7
a(I16
I7
tp8
a(I7
I8
tp9
a(I17
I8
tp10
a(I8
I9
tp11
a(I18
I9
tp12
a(I1
I10
tp13
a(I11
I10
tp14
a(I19
I10
tp15
a(I3
I12
tp16
a(I11
I12
tp17
a(I21
I12
tp18
a(I4
I13
tp19
a(I5
I14
tp20
a(I13
I14
tp21
a(I15
I14
tp22
a(I23
I14
tp23
a(I6
I15
tp24
a(I17
I16
tp25
a(I17
I18
tp26
a(I27
I18
tp27
a(I20
I19
tp28
a(I11
I20
tp29
a(I21
I20
tp30
a(I13
I22
tp31
a(I23
I22
tp32
a(I15
I24
tp33
a(I23
I24
tp34
a(I16
I25
tp35
a(I26
I25
tp36
a(I17
I26
tp37
a(I26
I27
tp38
a(I28
I29
tp39
a(I30
I29
tp40
a(I40
I31
tp41
a(I31
I32
tp42
a(I32
I33
tp43
a(I35
I34
tp44
a(I43
I34
tp45
a(I36
I35
tp46
a(I44
I35
tp47
a(I45
I36
tp48
a(I28
I37
tp49
a(I46
I37
tp50
a(I29
I38
tp51
a(I37
I38
tp52
a(I39
I38
tp53
a(I47
I38
tp54
a(I30
I39
tp55
a(I48
I39
tp56
a(I32
I41
tp57
a(I40
I41
tp58
a(I33
I42
tp59
a(I41
I42
tp60
a(I51
I42
tp61
a(I44
I43
tp62
a(I52
I43
tp63
a(I45
I44
tp64
a(I53
I44
tp65
a(I54
I45
tp66
a(I46
I47
tp67
a(I48
I47
tp68
a(I40
I49
tp69
a(I50
I49
tp70
a(I41
I50
tp71
a(I51
I50
tp72
a(I53
I52
tp73
a(I54
I53
tp74
a(I56
I55
tp75
a(I64
I55
tp76
a(I56
I57
tp77
a(I66
I57
tp78
a(I59
I58
tp79
a(I59
I60
tp80
a(I69
I60
tp81
a(I61
I62
tp82
a(I63
I62
tp83
a(I65
I64
tp84
a(I73
I64
tp85
a(I56
I65
tp86
a(I66
I65
tp87
a(I58
I67
tp88
a(I76
I67
tp89
a(I59
I68
tp90
a(I67
I68
tp91
a(I69
I68
tp92
a(I77
I68
tp93
a(I61
I70
tp94
a(I79
I70
tp95
a(I62
I71
tp96
a(I70
I71
tp97
a(I63
I72
tp98
a(I71
I72
tp99
a(I81
I72
tp100
a(I65
I74
tp101
a(I73
I74
tp102
a(I66
I75
tp103
a(I74
I75
tp104
a(I77
I76
tp105
a(I69
I78
tp106
a(I77
I78
tp107
a(I71
I80
tp108
a(I79
I80
tp109
a(I81
I80
tp110
atp111
a(S'Very easy (0)'
p112
I299
(lp113
(I2
I1
tp114
a(I10
I1
tp115
a(I3
I2
tp116
a(I11
I2
tp117
a(I5
I4
tp118
a(I13
I4
tp119
a(I6
I5
tp120
a(I7
I8
tp121
a(I8
I9
tp122
a(I18
I9
tp123
a(I10
I11
tp124
a(I3
I12
tp125
a(I11
I12
tp126
a(I21
I12
tp127
a(I14
I13
tp128
a(I22
I13
tp129
a(I5
I14
tp130
a(I15
I14
tp131
a(I6
I15
tp132
a(I24
I15
tp133
a(I7
I16
tp134
a(I8
I17
tp135
a(I16
I17
tp136
a(I18
I17
tp137
a(I26
I17
tp138
a(I10
I19
tp139
a(I20
I19
tp140
a(I11
I20
tp141
a(I20
I21
tp142
a(I14
I23
tp143
a(I22
I23
tp144
a(I24
I23
tp145
a(I16
I25
tp146
a(I25
I26
tp147
a(I18
I27
tp148
a(I26
I27
tp149
a(I37
I28
tp150
a(I28
I29
tp151
a(I30
I29
tp152
a(I38
I29
tp153
a(I32
I31
tp154
a(I40
I31
tp155
a(I33
I32
tp156
a(I41
I32
tp157
a(I35
I34
tp158
a(I36
I35
tp159
a(I38
I37
tp160
a(I47
I38
tp161
a(I30
I39
tp162
a(I38
I39
tp163
a(I40
I41
tp164
a(I50
I41
tp165
a(I33
I42
tp166
a(I41
I42
tp167
a(I51
I42
tp168
a(I34
I43
tp169
a(I44
I43
tp170
a(I52
I43
tp171
a(I35
I44
tp172
a(I53
I44
tp173
a(I36
I45
tp174
a(I44
I45
tp175
a(I54
I45
tp176
a(I37
I46
tp177
a(I47
I46
tp178
a(I39
I48
tp179
a(I47
I48
tp180
a(I40
I49
tp181
a(I50
I49
tp182
a(I50
I51
tp183
a(I53
I52
tp184
a(I54
I53
tp185
a(I55
I56
tp186
a(I57
I56
tp187
a(I65
I56
tp188
a(I58
I59
tp189
a(I59
I60
tp190
a(I61
I62
tp191
a(I71
I62
tp192
a(I62
I63
tp193
a(I72
I63
tp194
a(I55
I64
tp195
a(I64
I65
tp196
a(I57
I66
tp197
a(I65
I66
tp198
a(I75
I66
tp199
a(I58
I67
tp200
a(I59
I68
tp201
a(I67
I68
tp202
a(I77
I68
tp203
a(I60
I69
tp204
a(I68
I69
tp205
a(I78
I69
tp206
a(I61
I70
tp207
a(I71
I70
tp208
a(I71
I72
tp209
a(I64
I73
tp210
a(I65
I74
tp211
a(I73
I74
tp212
a(I75
I74
tp213
a(I67
I76
tp214
a(I77
I76
tp215
a(I77
I78
tp216
a(I70
I79
tp217
a(I80
I79
tp218
a(I71
I80
tp219
a(I72
I81
tp220
a(I80
I81
tp221
atp222
a(S'Very hard (0)'
p223
I288
(lp224
(I1
I2
tp225
a(I11
I2
tp226
a(I2
I3
tp227
a(I12
I3
tp228
a(I4
I5
tp229
a(I14
I5
tp230
a(I5
I6
tp231
a(I15
I6
tp232
a(I7
I8
tp233
a(I9
I8
tp234
a(I17
I8
tp235
a(I18
I9
tp236
a(I1
I10
tp237
a(I11
I10
tp238
a(I19
I10
tp239
a(I11
I12
tp240
a(I21
I12
tp241
a(I4
I13
tp242
a(I14
I13
tp243
a(I14
I15
tp244
a(I7
I16
tp245
a(I17
I16
tp246
a(I25
I16
tp247
a(I18
I17
tp248
a(I26
I17
tp249
a(I11
I20
tp250
a(I19
I20
tp251
a(I21
I20
tp252
a(I13
I22
tp253
a(I23
I22
tp254
a(I14
I23
tp255
a(I24
I23
tp256
a(I15
I24
tp257
a(I25
I26
tp258
a(I18
I27
tp259
a(I26
I27
tp260
a(I37
I28
tp261
a(I28
I29
tp262
a(I30
I29
tp263
a(I38
I29
tp264
a(I40
I31
tp265
a(I31
I32
tp266
a(I33
I32
tp267
a(I41
I32
tp268
a(I42
I33
tp269
a(I34
I35
tp270
a(I36
I35
tp271
a(I37
I38
tp272
a(I30
I39
tp273
a(I38
I39
tp274
a(I41
I40
tp275
a(I49
I40
tp276
a(I41
I42
tp277
a(I34
I43
tp278
a(I35
I44
tp279
a(I43
I44
tp280
a(I53
I44
tp281
a(I36
I45
tp282
a(I44
I45
tp283
a(I54
I45
tp284
a(I37
I46
tp285
a(I47
I46
tp286
a(I38
I47
tp287
a(I39
I48
tp288
a(I47
I48
tp289
a(I41
I50
tp290
a(I49
I50
tp291
a(I42
I51
tp292
a(I50
I51
tp293
a(I43
I52
tp294
a(I53
I52
tp295
a(I53
I54
tp296
a(I56
I55
tp297
a(I64
I55
tp298
a(I57
I56
tp299
a(I65
I56
tp300
a(I59
I58
tp301
a(I67
I58
tp302
a(I60
I59
tp303
a(I69
I60
tp304
a(I62
I61
tp305
a(I70
I61
tp306
a(I62
I63
tp307
a(I72
I63
tp308
a(I65
I64
tp309
a(I73
I64
tp310
a(I66
I65
tp311
a(I74
I65
tp312
a(I57
I66
tp313
a(I75
I66
tp314
a(I59
I68
tp315
a(I67
I68
tp316
a(I69
I68
tp317
a(I77
I68
tp318
a(I79
I70
tp319
a(I62
I71
tp320
a(I70
I71
tp321
a(I72
I71
tp322
a(I80
I71
tp323
a(I74
I73
tp324
a(I74
I75
tp325
a(I67
I76
tp326
a(I77
I76
tp327
a(I78
I77
tp328
a(I69
I78
tp329
a(I79
I80
tp330
a(I72
I81
tp331
a(I80
I81
tp332
atp333
a(S'Harder (0)'
p334
I58
(lp335
(I2
I1
tp336
a(I10
I1
tp337
a(I2
I3
tp338
a(I4
I5
tp339
a(I14
I5
tp340
a(I5
I6
tp341
a(I15
I6
tp342
a(I8
I7
tp343
a(I9
I8
tp344
a(I18
I9
tp345
a(I11
I10
tp346
a(I2
I11
tp347
a(I3
I12
tp348
a(I11
I12
tp349
a(I21
I12
tp350
a(I4
I13
tp351
a(I13
I14
tp352
a(I23
I14
tp353
a(I14
I15
tp354
a(I24
I15
tp355
a(I7
I16
tp356
a(I8
I17
tp357
a(I16
I17
tp358
a(I18
I17
tp359
a(I10
I19
tp360
a(I11
I20
tp361
a(I19
I20
tp362
a(I21
I20
tp363
a(I13
I22
tp364
a(I23
I22
tp365
a(I24
I23
tp366
a(I16
I25
tp367
a(I17
I26
tp368
a(I25
I26
tp369
a(I27
I26
tp370
a(I18
I27
tp371
a(I29
I28
tp372
a(I37
I28
tp373
a(I30
I29
tp374
a(I38
I29
tp375
a(I32
I31
tp376
a(I41
I32
tp377
a(I32
I33
tp378
a(I42
I33
tp379
a(I34
I35
tp380
a(I36
I35
tp381
a(I44
I35
tp382
a(I45
I36
tp383
a(I38
I37
tp384
a(I46
I37
tp385
a(I39
I38
tp386
a(I47
I38
tp387
a(I30
I39
tp388
a(I31
I40
tp389
a(I41
I40
tp390
a(I49
I40
tp391
a(I41
I42
tp392
a(I34
I43
tp393
a(I44
I43
tp394
a(I52
I43
tp395
a(I53
I44
tp396
a(I44
I45
tp397
a(I54
I45
tp398
a(I46
I47
tp399
a(I39
I48
tp400
a(I47
I48
tp401
a(I41
I50
tp402
a(I49
I50
tp403
a(I51
I50
tp404
a(I42
I51
tp405
a(I53
I52
tp406
a(I53
I54
tp407
a(I64
I55
tp408
a(I55
I56
tp409
a(I57
I56
tp410
a(I65
I56
tp411
a(I58
I59
tp412
a(I60
I59
tp413
a(I68
I59
tp414
a(I62
I61
tp415
a(I70
I61
tp416
a(I62
I63
tp417
a(I64
I65
tp418
a(I66
I65
tp419
a(I74
I65
tp420
a(I57
I66
tp421
a(I58
I67
tp422
a(I68
I67
tp423
a(I60
I69
tp424
a(I68
I69
tp425
a(I78
I69
tp426
a(I79
I70
tp427
a(I62
I71
tp428
a(I70
I71
tp429
a(I80
I71
tp430
a(I63
I72
tp431
a(I71
I72
tp432
a(I81
I72
tp433
a(I64
I73
tp434
a(I73
I74
tp435
a(I66
I75
tp436
a(I74
I75
tp437
a(I67
I76
tp438
a(I77
I76
tp439
a(I68
I77
tp440
a(I78
I77
tp441
a(I79
I80
tp442
a(I80
I81
tp443
atp444
a(S'Easy (0)'
p445
I445
(lp446
(I10
I1
tp447
a(I1
I2
tp448
a(I3
I2
tp449
a(I11
I2
tp450
a(I5
I4
tp451
a(I13
I4
tp452
a(I14
I5
tp453
a(I5
I6
tp454
a(I8
I7
tp455
a(I8
I9
tp456
a(I11
I10
tp457
a(I19
I10
tp458
a(I20
I11
tp459
a(I3
I12
tp460
a(I11
I12
tp461
a(I21
I12
tp462
a(I14
I13
tp463
a(I6
I15
tp464
a(I14
I15
tp465
a(I24
I15
tp466
a(I7
I16
tp467
a(I8
I17
tp468
a(I16
I17
tp469
a(I26
I17
tp470
a(I9
I18
tp471
a(I17
I18
tp472
a(I27
I18
tp473
a(I19
I20
tp474
a(I21
I20
tp475
a(I13
I22
tp476
a(I23
I22
tp477
a(I14
I23
tp478
a(I23
I24
tp479
a(I16
I25
tp480
a(I26
I25
tp481
a(I26
I27
tp482
a(I37
I28
tp483
a(I28
I29
tp484
a(I30
I29
tp485
a(I31
I32
tp486
a(I33
I32
tp487
a(I41
I32
tp488
a(I35
I34
tp489
a(I43
I34
tp490
a(I35
I36
tp491
a(I45
I36
tp492
a(I29
I38
tp493
a(I37
I38
tp494
a(I47
I38
tp495
a(I30
I39
tp496
a(I38
I39
tp497
a(I48
I39
tp498
a(I31
I40
tp499
a(I41
I40
tp500
a(I33
I42
tp501
a(I41
I42
tp502
a(I52
I43
tp503
a(I35
I44
tp504
a(I43
I44
tp505
a(I45
I44
tp506
a(I54
I45
tp507
a(I37
I46
tp508
a(I46
I47
tp509
a(I48
I47
tp510
a(I40
I49
tp511
a(I50
I49
tp512
a(I41
I50
tp513
a(I42
I51
tp514
a(I50
I51
tp515
a(I44
I53
tp516
a(I52
I53
tp517
a(I54
I53
tp518
a(I56
I55
tp519
a(I64
I55
tp520
a(I56
I57
tp521
a(I67
I58
tp522
a(I58
I59
tp523
a(I60
I59
tp524
a(I68
I59
tp525
a(I69
I60
tp526
a(I62
I61
tp527
a(I70
I61
tp528
a(I63
I62
tp529
a(I56
I65
tp530
a(I64
I65
tp531
a(I74
I65
tp532
a(I57
I66
tp533
a(I65
I66
tp534
a(I75
I66
tp535
a(I67
I68
tp536
a(I69
I68
tp537
a(I78
I69
tp538
a(I62
I71
tp539
a(I70
I71
tp540
a(I72
I71
tp541
a(I80
I71
tp542
a(I63
I72
tp543
a(I81
I72
tp544
a(I64
I73
tp545
a(I74
I73
tp546
a(I74
I75
tp547
a(I67
I76
tp548
a(I77
I76
tp549
a(I68
I77
tp550
a(I78
I77
tp551
a(I70
I79
tp552
a(I79
I80
tp553
a(I81
I80
tp554
atp555
a(S'Easy (0)'
p556
I951
(lp557
(I10
I1
tp558
a(I1
I2
tp559
a(I3
I2
tp560
a(I5
I4
tp561
a(I5
I6
tp562
a(I15
I6
tp563
a(I7
I8
tp564
a(I17
I8
tp565
a(I8
I9
tp566
a(I18
I9
tp567
a(I19
I10
tp568
a(I2
I11
tp569
a(I10
I11
tp570
a(I20
I11
tp571
a(I3
I12
tp572
a(I11
I12
tp573
a(I21
I12
tp574
a(I4
I13
tp575
a(I14
I13
tp576
a(I5
I14
tp577
a(I14
I15
tp578
a(I24
I15
tp579
a(I7
I16
tp580
a(I17
I16
tp581
a(I17
I18
tp582
a(I27
I18
tp583
a(I19
I20
tp584
a(I21
I20
tp585
a(I13
I22
tp586
a(I23
I22
tp587
a(I14
I23
tp588
a(I23
I24
tp589
a(I16
I25
tp590
a(I17
I26
tp591
a(I25
I26
tp592
a(I27
I26
tp593
a(I29
I28
tp594
a(I37
I28
tp595
a(I30
I29
tp596
a(I32
I31
tp597
a(I40
I31
tp598
a(I41
I32
tp599
a(I32
I33
tp600
a(I42
I33
tp601
a(I34
I35
tp602
a(I36
I35
tp603
a(I38
I37
tp604
a(I29
I38
tp605
a(I30
I39
tp606
a(I38
I39
tp607
a(I48
I39
tp608
a(I40
I41
tp609
a(I42
I41
tp610
a(I34
I43
tp611
a(I52
I43
tp612
a(I35
I44
tp613
a(I43
I44
tp614
a(I45
I44
tp615
a(I53
I44
tp616
a(I36
I45
tp617
a(I54
I45
tp618
a(I37
I46
tp619
a(I38
I47
tp620
a(I46
I47
tp621
a(I48
I47
tp622
a(I40
I49
tp623
a(I41
I50
tp624
a(I49
I50
tp625
a(I51
I50
tp626
a(I42
I51
tp627
a(I52
I53
tp628
a(I53
I54
tp629
a(I56
I55
tp630
a(I64
I55
tp631
a(I56
I57
tp632
a(I58
I59
tp633
a(I60
I59
tp634
a(I68
I59
tp635
a(I69
I60
tp636
a(I61
I62
tp637
a(I63
I62
tp638
a(I71
I62
tp639
a(I56
I65
tp640
a(I64
I65
tp641
a(I57
I66
tp642
a(I65
I66
tp643
a(I58
I67
tp644
a(I68
I67
tp645
a(I76
I67
tp646
a(I69
I68
tp647
a(I61
I70
tp648
a(I71
I70
tp649
a(I79
I70
tp650
a(I63
I72
tp651
a(I71
I72
tp652
a(I81
I72
tp653
a(I64
I73
tp654
a(I74
I73
tp655
a(I65
I74
tp656
a(I66
I75
tp657
a(I74
I75
tp658
a(I68
I77
tp659
a(I76
I77
tp660
a(I78
I77
tp661
a(I69
I78
tp662
a(I80
I79
tp663
a(I71
I80
tp664
a(I81
I80
tp665
atp666
a(S'Very easy (0)'
p667
I536
(lp668
(I2
I1
tp669
a(I10
I1
tp670
a(I2
I3
tp671
a(I12
I3
tp672
a(I5
I4
tp673
a(I13
I4
tp674
a(I6
I5
tp675
a(I8
I7
tp676
a(I16
I7
tp677
a(I8
I9
tp678
a(I18
I9
tp679
a(I19
I10
tp680
a(I2
I11
tp681
a(I10
I11
tp682
a(I12
I11
tp683
a(I20
I11
tp684
a(I21
I12
tp685
a(I14
I13
tp686
a(I22
I13
tp687
a(I5
I14
tp688
a(I15
I14
tp689
a(I23
I14
tp690
a(I6
I15
tp691
a(I24
I15
tp692
a(I8
I17
tp693
a(I16
I17
tp694
a(I17
I18
tp695
a(I27
I18
tp696
a(I19
I20
tp697
a(I21
I20
tp698
a(I23
I22
tp699
a(I24
I23
tp700
a(I16
I25
tp701
a(I26
I25
tp702
a(I17
I26
tp703
a(I27
I26
tp704
a(I28
I29
tp705
a(I30
I29
tp706
a(I38
I29
tp707
a(I40
I31
tp708
a(I31
I32
tp709
a(I33
I32
tp710
a(I35
I34
tp711
a(I43
I34
tp712
a(I44
I35
tp713
a(I35
I36
tp714
a(I45
I36
tp715
a(I28
I37
tp716
a(I38
I37
tp717
a(I47
I38
tp718
a(I30
I39
tp719
a(I38
I39
tp720
a(I32
I41
tp721
a(I40
I41
tp722
a(I42
I41
tp723
a(I50
I41
tp724
a(I33
I42
tp725
a(I51
I42
tp726
a(I44
I43
tp727
a(I52
I43
tp728
a(I45
I44
tp729
a(I53
I44
tp730
a(I54
I45
tp731
a(I37
I46
tp732
a(I47
I46
tp733
a(I39
I48
tp734
a(I47
I48
tp735
a(I40
I49
tp736
a(I49
I50
tp737
a(I51
I50
tp738
a(I52
I53
tp739
a(I54
I53
tp740
a(I56
I55
tp741
a(I64
I55
tp742
a(I56
I57
tp743
a(I66
I57
tp744
a(I58
I59
tp745
a(I60
I59
tp746
a(I68
I59
tp747
a(I61
I62
tp748
a(I63
I62
tp749
a(I71
I62
tp750
a(I65
I64
tp751
a(I73
I64
tp752
a(I56
I65
tp753
a(I66
I65
tp754
a(I74
I65
tp755
a(I58
I67
tp756
a(I68
I67
tp757
a(I76
I67
tp758
a(I77
I68
tp759
a(I60
I69
tp760
a(I68
I69
tp761
a(I78
I69
tp762
a(I61
I70
tp763
a(I71
I70
tp764
a(I63
I72
tp765
a(I71
I72
tp766
a(I73
I74
tp767
a(I75
I74
tp768
a(I66
I75
tp769
a(I77
I76
tp770
a(I77
I78
tp771
a(I70
I79
tp772
a(I71
I80
tp773
a(I79
I80
tp774
a(I81
I80
tp775
a(I72
I81
tp776
atp777
a(S'Hard (0)'
p778
I993
(lp779
(I2
I1
tp780
a(I10
I1
tp781
a(I3
I2
tp782
a(I11
I2
tp783
a(I12
I3
tp784
a(I5
I4
tp785
a(I13
I4
tp786
a(I5
I6
tp787
a(I15
I6
tp788
a(I7
I8
tp789
a(I8
I9
tp790
a(I19
I10
tp791
a(I10
I11
tp792
a(I12
I11
tp793
a(I20
I11
tp794
a(I5
I14
tp795
a(I13
I14
tp796
a(I15
I14
tp797
a(I23
I14
tp798
a(I7
I16
tp799
a(I8
I17
tp800
a(I16
I17
tp801
a(I26
I17
tp802
a(I9
I18
tp803
a(I17
I18
tp804
a(I27
I18
tp805
a(I20
I19
tp806
a(I12
I21
tp807
a(I20
I21
tp808
a(I13
I22
tp809
a(I23
I22
tp810
a(I15
I24
tp811
a(I23
I24
tp812
a(I16
I25
tp813
a(I25
I26
tp814
a(I26
I27
tp815
a(I28
I29
tp816
a(I30
I29
tp817
a(I39
I30
tp818
a(I32
I31
tp819
a(I40
I31
tp820
a(I32
I33
tp821
a(I42
I33
tp822
a(I35
I34
tp823
a(I43
I34
tp824
a(I35
I36
tp825
a(I28
I37
tp826
a(I46
I37
tp827
a(I29
I38
tp828
a(I37
I38
tp829
a(I39
I38
tp830
a(I47
I38
tp831
a(I48
I39
tp832
a(I32
I41
tp833
a(I40
I41
tp834
a(I42
I41
tp835
a(I50
I41
tp836
a(I52
I43
tp837
a(I35
I44
tp838
a(I43
I44
tp839
a(I45
I44
tp840
a(I36
I45
tp841
a(I46
I47
tp842
a(I47
I48
tp843
a(I40
I49
tp844
a(I50
I49
tp845
a(I42
I51
tp846
a(I50
I51
tp847
a(I44
I53
tp848
a(I52
I53
tp849
a(I54
I53
tp850
a(I45
I54
tp851
a(I56
I55
tp852
a(I57
I56
tp853
a(I65
I56
tp854
a(I58
I59
tp855
a(I60
I59
tp856
a(I68
I59
tp857
a(I62
I61
tp858
a(I62
I63
tp859
a(I55
I64
tp860
a(I65
I64
tp861
a(I73
I64
tp862
a(I66
I65
tp863
a(I74
I65
tp864
a(I57
I66
tp865
a(I58
I67
tp866
a(I68
I67
tp867
a(I60
I69
tp868
a(I68
I69
tp869
a(I78
I69
tp870
a(I61
I70
tp871
a(I71
I70
tp872
a(I79
I70
tp873
a(I62
I71
tp874
a(I80
I71
tp875
a(I63
I72
tp876
a(I71
I72
tp877
a(I81
I72
tp878
a(I74
I73
tp879
a(I66
I75
tp880
a(I74
I75
tp881
a(I67
I76
tp882
a(I77
I76
tp883
a(I68
I77
tp884
a(I78
I77
tp885
a(I80
I79
tp886
a(I81
I80
tp887
atp888
a.