(lp0
(S'Super easy (0)'
p1
I0
(lp2
(I2
I1
tp3
a(I2
I3
tp4
a(I12
I3
tp5
a(I13
I4
tp6
a(I4
I5
tp7
a(I6
I5
tp8
a(I14
I5
tp9
a(I15
I6
tp10
a(I8
I7
tp11
a(I9
I8
tp12
a(I18
I9
tp13
a(I1
I10
tp14
a(I11
I10
tp15
a(I19
I10
tp16
a(I2
I11
tp17
a(I12
I11
tp18
a(I21
I12
tp19
a(I14
I13
tp20
a(I14
I15
tp21
a(I7
I16
tp22
a(I8
I17
tp23
a(I16
I17
tp24
a(I18
I17
tp25
a(I26
I17
tp26
a(I27
I18
tp27
a(I11
I20
tp28
a(I19
I20
tp29
a(I21
I20
tp30
a(I13
I22
tp31
a(I14
I23
tp32
a(I22
I23
tp33
a(I24
I23
tp34
a(I15
I24
tp35
a(I16
I25
tp36
a(I26
I25
tp37
a(I26
I27
tp38
a(I28
I29
tp39
a(I29
I30
tp40
a(I39
I30
tp41
a(I31
I32
tp42
a(I41
I32
tp43
a(I32
I33
tp44
a(I42
I33
tp45
a(I43
I34
tp46
a(I34
I35
tp47
a(I44
I35
tp48
a(I35
I36
tp49
a(I45
I36
tp50
a(I28
I37
tp51
a(I38
I37
tp52
a(I46
I37
tp53
a(I29
I38
tp54
a(I39
I38
tp55
a(I47
I38
tp56
a(I31
I40
tp57
a(I41
I40
tp58
a(I49
I40
tp59
a(I50
I41
tp60
a(I41
I42
tp61
a(I43
I44
tp62
a(I44
I45
tp63
a(I47
I46
tp64
a(I48
I47
tp65
a(I39
I48
tp66
a(I49
I50
tp67
a(I42
I51
tp68
a(I50
I51
tp69
a(I43
I52
tp70
a(I44
I53
tp71
a(I52
I53
tp72
a(I54
I53
tp73
a(I45
I54
tp74
a(I64
I55
tp75
a(I55
I56
tp76
a(I65
I56
tp77
a(I56
I57
tp78
a(I59
I58
tp79
a(I67
I58
tp80
a(I59
I60
tp81
a(I69
I60
tp82
a(I62
I61
tp83
a(I70
I61
tp84
a(I63
I62
tp85
a(I65
I64
tp86
a(I73
I64
tp87
a(I57
I66
tp88
a(I65
I66
tp89
a(I75
I66
tp90
a(I68
I67
tp91
a(I76
I67
tp92
a(I59
I68
tp93
a(I69
I68
tp94
a(I62
I71
tp95
a(I70
I71
tp96
a(I63
I72
tp97
a(I71
I72
tp98
a(I81
I72
tp99
a(I74
I73
tp100
a(I65
I74
tp101
a(I75
I74
tp102
a(I68
I77
tp103
a(I76
I77
tp104
a(I78
I77
tp105
a(I69
I78
tp106
a(I70
I79
tp107
a(I80
I79
tp108
a(I71
I80
tp109
a(I80
I81
tp110
atp111
a(S'Super easy (0)'
p112
I1
(lp113
(I2
I1
tp114
a(I2
I3
tp115
a(I12
I3
tp116
a(I13
I4
tp117
a(I4
I5
tp118
a(I6
I5
tp119
a(I14
I5
tp120
a(I15
I6
tp121
a(I8
I7
tp122
a(I9
I8
tp123
a(I18
I9
tp124
a(I1
I10
tp125
a(I11
I10
tp126
a(I19
I10
tp127
a(I2
I11
tp128
a(I12
I11
tp129
a(I21
I12
tp130
a(I14
I13
tp131
a(I14
I15
tp132
a(I7
I16
tp133
a(I8
I17
tp134
a(I16
I17
tp135
a(I18
I17
tp136
a(I26
I17
tp137
a(I27
I18
tp138
a(I11
I20
tp139
a(I19
I20
tp140
a(I21
I20
tp141
a(I13
I22
tp142
a(I14
I23
tp143
a(I22
I23
tp144
a(I24
I23
tp145
a(I15
I24
tp146
a(I16
I25
tp147
a(I26
I25
tp148
a(I26
I27
tp149
a(I28
I29
tp150
a(I29
I30
tp151
a(I39
I30
tp152
a(I31
I32
tp153
a(I41
I32
tp154
a(I32
I33
tp155
a(I42
I33
tp156
a(I43
I34
tp157
a(I34
I35
tp158
a(I44
I35
tp159
a(I35
I36
tp160
a(I45
I36
tp161
a(I28
I37
tp162
a(I38
I37
tp163
a(I46
I37
tp164
a(I29
I38
tp165
a(I39
I38
tp166
a(I47
I38
tp167
a(I31
I40
tp168
a(I41
I40
tp169
a(I49
I40
tp170
a(I50
I41
tp171
a(I41
I42
tp172
a(I43
I44
tp173
a(I44
I45
tp174
a(I47
I46
tp175
a(I48
I47
tp176
a(I39
I48
tp177
a(I49
I50
tp178
a(I42
I51
tp179
a(I50
I51
tp180
a(I43
I52
tp181
a(I44
I53
tp182
a(I52
I53
tp183
a(I54
I53
tp184
a(I45
I54
tp185
a(I64
I55
tp186
a(I55
I56
tp187
a(I65
I56
tp188
a(I56
I57
tp189
a(I59
I58
tp190
a(I67
I58
tp191
a(I59
I60
tp192
a(I69
I60
tp193
a(I62
I61
tp194
a(I70
I61
tp195
a(I63
I62
tp196
a(I65
I64
tp197
a(I73
I64
tp198
a(I57
I66
tp199
a(I65
I66
tp200
a(I75
I66
tp201
a(I68
I67
tp202
a(I76
I67
tp203
a(I59
I68
tp204
a(I69
I68
tp205
a(I62
I71
tp206
a(I70
I71
tp207
a(I63
I72
tp208
a(I71
I72
tp209
a(I81
I72
tp210
a(I74
I73
tp211
a(I65
I74
tp212
a(I75
I74
tp213
a(I68
I77
tp214
a(I76
I77
tp215
a(I78
I77
tp216
a(I69
I78
tp217
a(I70
I79
tp218
a(I80
I79
tp219
a(I71
I80
tp220
a(I80
I81
tp221
atp222
a(S'Super easy (0)'
p223
I2
(lp224
(I2
I1
tp225
a(I2
I3
tp226
a(I12
I3
tp227
a(I13
I4
tp228
a(I4
I5
tp229
a(I6
I5
tp230
a(I14
I5
tp231
a(I15
I6
tp232
a(I8
I7
tp233
a(I9
I8
tp234
a(I18
I9
tp235
a(I1
I10
tp236
a(I11
I10
tp237
a(I19
I10
tp238
a(I2
I11
tp239
a(I12
I11
tp240
a(I21
I12
tp241
a(I14
I13
tp242
a(I14
I15
tp243
a(I7
I16
tp244
a(I8
I17
tp245
a(I16
I17
tp246
a(I18
I17
tp247
a(I26
I17
tp248
a(I27
I18
tp249
a(I11
I20
tp250
a(I19
I20
tp251
a(I21
I20
tp252
a(I13
I22
tp253
a(I14
I23
tp254
a(I22
I23
tp255
a(I24
I23
tp256
a(I15
I24
tp257
a(I16
I25
tp258
a(I26
I25
tp259
a(I26
I27
tp260
a(I28
I29
tp261
a(I29
I30
tp262
a(I39
I30
tp263
a(I31
I32
tp264
a(I41
I32
tp265
a(I32
I33
tp266
a(I42
I33
tp267
a(I43
I34
tp268
a(I34
I35
tp269
a(I44
I35
tp270
a(I35
I36
tp271
a(I45
I36
tp272
a(I28
I37
tp273
a(I38
I37
tp274
a(I46
I37
tp275
a(I29
I38
tp276
a(I39
I38
tp277
a(I47
I38
tp278
a(I31
I40
tp279
a(I41
I40
tp280
a(I49
I40
tp281
a(I50
I41
tp282
a(I41
I42
tp283
a(I43
I44
tp284
a(I44
I45
tp285
a(I47
I46
tp286
a(I48
I47
tp287
a(I39
I48
tp288
a(I49
I50
tp289
a(I42
I51
tp290
a(I50
I51
tp291
a(I43
I52
tp292
a(I44
I53
tp293
a(I52
I53
tp294
a(I54
I53
tp295
a(I45
I54
tp296
a(I64
I55
tp297
a(I55
I56
tp298
a(I65
I56
tp299
a(I56
I57
tp300
a(I59
I58
tp301
a(I67
I58
tp302
a(I59
I60
tp303
a(I69
I60
tp304
a(I62
I61
tp305
a(I70
I61
tp306
a(I63
I62
tp307
a(I65
I64
tp308
a(I73
I64
tp309
a(I57
I66
tp310
a(I65
I66
tp311
a(I75
I66
tp312
a(I68
I67
tp313
a(I76
I67
tp314
a(I59
I68
tp315
a(I69
I68
tp316
a(I62
I71
tp317
a(I70
I71
tp318
a(I63
I72
tp319
a(I71
I72
tp320
a(I81
I72
tp321
a(I74
I73
tp322
a(I65
I74
tp323
a(I75
I74
tp324
a(I68
I77
tp325
a(I76
I77
tp326
a(I78
I77
tp327
a(I69
I78
tp328
a(I70
I79
tp329
a(I80
I79
tp330
a(I71
I80
tp331
a(I80
I81
tp332
atp333
a(S'Super easy (0)'
p334
I3
(lp335
(I2
I1
tp336
a(I2
I3
tp337
a(I12
I3
tp338
a(I13
I4
tp339
a(I4
I5
tp340
a(I6
I5
tp341
a(I14
I5
tp342
a(I15
I6
tp343
a(I8
I7
tp344
a(I9
I8
tp345
a(I18
I9
tp346
a(I1
I10
tp347
a(I11
I10
tp348
a(I19
I10
tp349
a(I2
I11
tp350
a(I12
I11
tp351
a(I21
I12
tp352
a(I14
I13
tp353
a(I14
I15
tp354
a(I7
I16
tp355
a(I8
I17
tp356
a(I16
I17
tp357
a(I18
I17
tp358
a(I26
I17
tp359
a(I27
I18
tp360
a(I11
I20
tp361
a(I19
I20
tp362
a(I21
I20
tp363
a(I13
I22
tp364
a(I14
I23
tp365
a(I22
I23
tp366
a(I24
I23
tp367
a(I15
I24
tp368
a(I16
I25
tp369
a(I26
I25
tp370
a(I26
I27
tp371
a(I28
I29
tp372
a(I29
I30
tp373
a(I39
I30
tp374
a(I31
I32
tp375
a(I41
I32
tp376
a(I32
I33
tp377
a(I42
I33
tp378
a(I43
I34
tp379
a(I34
I35
tp380
a(I44
I35
tp381
a(I35
I36
tp382
a(I45
I36
tp383
a(I28
I37
tp384
a(I38
I37
tp385
a(I46
I37
tp386
a(I29
I38
tp387
a(I39
I38
tp388
a(I47
I38
tp389
a(I31
I40
tp390
a(I41
I40
tp391
a(I49
I40
tp392
a(I50
I41
tp393
a(I41
I42
tp394
a(I43
I44
tp395
a(I44
I45
tp396
a(I47
I46
tp397
a(I48
I47
tp398
a(I39
I48
tp399
a(I49
I50
tp400
a(I42
I51
tp401
a(I50
I51
tp402
a(I43
I52
tp403
a(I44
I53
tp404
a(I52
I53
tp405
a(I54
I53
tp406
a(I45
I54
tp407
a(I64
I55
tp408
a(I55
I56
tp409
a(I65
I56
tp410
a(I56
I57
tp411
a(I59
I58
tp412
a(I67
I58
tp413
a(I59
I60
tp414
a(I69
I60
tp415
a(I62
I61
tp416
a(I70
I61
tp417
a(I63
I62
tp418
a(I65
I64
tp419
a(I73
I64
tp420
a(I57
I66
tp421
a(I65
I66
tp422
a(I75
I66
tp423
a(I68
I67
tp424
a(I76
I67
tp425
a(I59
I68
tp426
a(I69
I68
tp427
a(I62
I71
tp428
a(I70
I71
tp429
a(I63
I72
tp430
a(I71
I72
tp431
a(I81
I72
tp432
a(I74
I73
tp433
a(I65
I74
tp434
a(I75
I74
tp435
a(I68
I77
tp436
a(I76
I77
tp437
a(I78
I77
tp438
a(I69
I78
tp439
a(I70
I79
tp440
a(I80
I79
tp441
a(I71
I80
tp442
a(I80
I81
tp443
atp444
a(S'Super easy (0)'
p445
I4
(lp446
(I2
I1
tp447
a(I2
I3
tp448
a(I12
I3
tp449
a(I13
I4
tp450
a(I4
I5
tp451
a(I6
I5
tp452
a(I14
I5
tp453
a(I15
I6
tp454
a(I8
I7
tp455
a(I9
I8
tp456
a(I18
I9
tp457
a(I1
I10
tp458
a(I11
I10
tp459
a(I19
I10
tp460
a(I2
I11
tp461
a(I12
I11
tp462
a(I21
I12
tp463
a(I14
I13
tp464
a(I14
I15
tp465
a(I7
I16
tp466
a(I8
I17
tp467
a(I16
I17
tp468
a(I18
I17
tp469
a(I26
I17
tp470
a(I27
I18
tp471
a(I11
I20
tp472
a(I19
I20
tp473
a(I21
I20
tp474
a(I13
I22
tp475
a(I14
I23
tp476
a(I22
I23
tp477
a(I24
I23
tp478
a(I15
I24
tp479
a(I16
I25
tp480
a(I26
I25
tp481
a(I26
I27
tp482
a(I28
I29
tp483
a(I29
I30
tp484
a(I39
I30
tp485
a(I31
I32
tp486
a(I41
I32
tp487
a(I32
I33
tp488
a(I42
I33
tp489
a(I43
I34
tp490
a(I34
I35
tp491
a(I44
I35
tp492
a(I35
I36
tp493
a(I45
I36
tp494
a(I28
I37
tp495
a(I38
I37
tp496
a(I46
I37
tp497
a(I29
I38
tp498
a(I39
I38
tp499
a(I47
I38
tp500
a(I31
I40
tp501
a(I41
I40
tp502
a(I49
I40
tp503
a(I50
I41
tp504
a(I41
I42
tp505
a(I43
I44
tp506
a(I44
I45
tp507
a(I47
I46
tp508
a(I48
I47
tp509
a(I39
I48
tp510
a(I49
I50
tp511
a(I42
I51
tp512
a(I50
I51
tp513
a(I43
I52
tp514
a(I44
I53
tp515
a(I52
I53
tp516
a(I54
I53
tp517
a(I45
I54
tp518
a(I64
I55
tp519
a(I55
I56
tp520
a(I65
I56
tp521
a(I56
I57
tp522
a(I59
I58
tp523
a(I67
I58
tp524
a(I59
I60
tp525
a(I69
I60
tp526
a(I62
I61
tp527
a(I70
I61
tp528
a(I63
I62
tp529
a(I65
I64
tp530
a(I73
I64
tp531
a(I57
I66
tp532
a(I65
I66
tp533
a(I75
I66
tp534
a(I68
I67
tp535
a(I76
I67
tp536
a(I59
I68
tp537
a(I69
I68
tp538
a(I62
I71
tp539
a(I70
I71
tp540
a(I63
I72
tp541
a(I71
I72
tp542
a(I81
I72
tp543
a(I74
I73
tp544
a(I65
I74
tp545
a(I75
I74
tp546
a(I68
I77
tp547
a(I76
I77
tp548
a(I78
I77
tp549
a(I69
I78
tp550
a(I70
I79
tp551
a(I80
I79
tp552
a(I71
I80
tp553
a(I80
I81
tp554
atp555
a(S'Super easy (0)'
p556
I5
(lp557
(I2
I1
tp558
a(I2
I3
tp559
a(I12
I3
tp560
a(I13
I4
tp561
a(I4
I5
tp562
a(I6
I5
tp563
a(I14
I5
tp564
a(I15
I6
tp565
a(I8
I7
tp566
a(I9
I8
tp567
a(I18
I9
tp568
a(I1
I10
tp569
a(I11
I10
tp570
a(I19
I10
tp571
a(I2
I11
tp572
a(I12
I11
tp573
a(I21
I12
tp574
a(I14
I13
tp575
a(I14
I15
tp576
a(I7
I16
tp577
a(I8
I17
tp578
a(I16
I17
tp579
a(I18
I17
tp580
a(I26
I17
tp581
a(I27
I18
tp582
a(I11
I20
tp583
a(I19
I20
tp584
a(I21
I20
tp585
a(I13
I22
tp586
a(I14
I23
tp587
a(I22
I23
tp588
a(I24
I23
tp589
a(I15
I24
tp590
a(I16
I25
tp591
a(I26
I25
tp592
a(I26
I27
tp593
a(I28
I29
tp594
a(I29
I30
tp595
a(I39
I30
tp596
a(I31
I32
tp597
a(I41
I32
tp598
a(I32
I33
tp599
a(I42
I33
tp600
a(I43
I34
tp601
a(I34
I35
tp602
a(I44
I35
tp603
a(I35
I36
tp604
a(I45
I36
tp605
a(I28
I37
tp606
a(I38
I37
tp607
a(I46
I37
tp608
a(I29
I38
tp609
a(I39
I38
tp610
a(I47
I38
tp611
a(I31
I40
tp612
a(I41
I40
tp613
a(I49
I40
tp614
a(I50
I41
tp615
a(I41
I42
tp616
a(I43
I44
tp617
a(I44
I45
tp618
a(I47
I46
tp619
a(I48
I47
tp620
a(I39
I48
tp621
a(I49
I50
tp622
a(I42
I51
tp623
a(I50
I51
tp624
a(I43
I52
tp625
a(I44
I53
tp626
a(I52
I53
tp627
a(I54
I53
tp628
a(I45
I54
tp629
a(I64
I55
tp630
a(I55
I56
tp631
a(I65
I56
tp632
a(I56
I57
tp633
a(I59
I58
tp634
a(I67
I58
tp635
a(I59
I60
tp636
a(I69
I60
tp637
a(I62
I61
tp638
a(I70
I61
tp639
a(I63
I62
tp640
a(I65
I64
tp641
a(I73
I64
tp642
a(I57
I66
tp643
a(I65
I66
tp644
a(I75
I66
tp645
a(I68
I67
tp646
a(I76
I67
tp647
a(I59
I68
tp648
a(I69
I68
tp649
a(I62
I71
tp650
a(I70
I71
tp651
a(I63
I72
tp652
a(I71
I72
tp653
a(I81
I72
tp654
a(I74
I73
tp655
a(I65
I74
tp656
a(I75
I74
tp657
a(I68
I77
tp658
a(I76
I77
tp659
a(I78
I77
tp660
a(I69
I78
tp661
a(I70
I79
tp662
a(I80
I79
tp663
a(I71
I80
tp664
a(I80
I81
tp665
atp666
a(S'Super easy (0)'
p667
I6
(lp668
(I2
I1
tp669
a(I2
I3
tp670
a(I12
I3
tp671
a(I13
I4
tp672
a(I4
I5
tp673
a(I6
I5
tp674
a(I14
I5
tp675
a(I15
I6
tp676
a(I8
I7
tp677
a(I9
I8
tp678
a(I18
I9
tp679
a(I1
I10
tp680
a(I11
I10
tp681
a(I19
I10
tp682
a(I2
I11
tp683
a(I12
I11
tp684
a(I21
I12
tp685
a(I14
I13
tp686
a(I14
I15
tp687
a(I7
I16
tp688
a(I8
I17
tp689
a(I16
I17
tp690
a(I18
I17
tp691
a(I26
I17
tp692
a(I27
I18
tp693
a(I11
I20
tp694
a(I19
I20
tp695
a(I21
I20
tp696
a(I13
I22
tp697
a(I14
I23
tp698
a(I22
I23
tp699
a(I24
I23
tp700
a(I15
I24
tp701
a(I16
I25
tp702
a(I26
I25
tp703
a(I26
I27
tp704
a(I28
I29
tp705
a(I29
I30
tp706
a(I39
I30
tp707
a(I31
I32
tp708
a(I41
I32
tp709
a(I32
I33
tp710
a(I42
I33
tp711
a(I43
I34
tp712
a(I34
I35
tp713
a(I44
I35
tp714
a(I35
I36
tp715
a(I45
I36
tp716
a(I28
I37
tp717
a(I38
I37
tp718
a(I46
I37
tp719
a(I29
I38
tp720
a(I39
I38
tp721
a(I47
I38
tp722
a(I31
I40
tp723
a(I41
I40
tp724
a(I49
I40
tp725
a(I50
I41
tp726
a(I41
I42
tp727
a(I43
I44
tp728
a(I44
I45
tp729
a(I47
I46
tp730
a(I48
I47
tp731
a(I39
I48
tp732
a(I49
I50
tp733
a(I42
I51
tp734
a(I50
I51
tp735
a(I43
I52
tp736
a(I44
I53
tp737
a(I52
I53
tp738
a(I54
I53
tp739
a(I45
I54
tp740
a(I64
I55
tp741
a(I55
I56
tp742
a(I65
I56
tp743
a(I56
I57
tp744
a(I59
I58
tp745
a(I67
I58
tp746
a(I59
I60
tp747
a(I69
I60
tp748
a(I62
I61
tp749
a(I70
I61
tp750
a(I63
I62
tp751
a(I65
I64
tp752
a(I73
I64
tp753
a(I57
I66
tp754
a(I65
I66
tp755
a(I75
I66
tp756
a(I68
I67
tp757
a(I76
I67
tp758
a(I59
I68
tp759
a(I69
I68
tp760
a(I62
I71
tp761
a(I70
I71
tp762
a(I63
I72
tp763
a(I71
I72
tp764
a(I81
I72
tp765
a(I74
I73
tp766
a(I65
I74
tp767
a(I75
I74
tp768
a(I68
I77
tp769
a(I76
I77
tp770
a(I78
I77
tp771
a(I69
I78
tp772
a(I70
I79
tp773
a(I80
I79
tp774
a(I71
I80
tp775
a(I80
I81
tp776
atp777
a(S'Super easy (0)'
p778
I7
(lp779
(I2
I1
tp780
a(I2
I3
tp781
a(I12
I3
tp782
a(I13
I4
tp783
a(I4
I5
tp784
a(I6
I5
tp785
a(I14
I5
tp786
a(I15
I6
tp787
a(I8
I7
tp788
a(I9
I8
tp789
a(I18
I9
tp790
a(I1
I10
tp791
a(I11
I10
tp792
a(I19
I10
tp793
a(I2
I11
tp794
a(I12
I11
tp795
a(I21
I12
tp796
a(I14
I13
tp797
a(I14
I15
tp798
a(I7
I16
tp799
a(I8
I17
tp800
a(I16
I17
tp801
a(I18
I17
tp802
a(I26
I17
tp803
a(I27
I18
tp804
a(I11
I20
tp805
a(I19
I20
tp806
a(I21
I20
tp807
a(I13
I22
tp808
a(I14
I23
tp809
a(I22
I23
tp810
a(I24
I23
tp811
a(I15
I24
tp812
a(I16
I25
tp813
a(I26
I25
tp814
a(I26
I27
tp815
a(I28
I29
tp816
a(I29
I30
tp817
a(I39
I30
tp818
a(I31
I32
tp819
a(I41
I32
tp820
a(I32
I33
tp821
a(I42
I33
tp822
a(I43
I34
tp823
a(I34
I35
tp824
a(I44
I35
tp825
a(I35
I36
tp826
a(I45
I36
tp827
a(I28
I37
tp828
a(I38
I37
tp829
a(I46
I37
tp830
a(I29
I38
tp831
a(I39
I38
tp832
a(I47
I38
tp833
a(I31
I40
tp834
a(I41
I40
tp835
a(I49
I40
tp836
a(I50
I41
tp837
a(I41
I42
tp838
a(I43
I44
tp839
a(I44
I45
tp840
a(I47
I46
tp841
a(I48
I47
tp842
a(I39
I48
tp843
a(I49
I50
tp844
a(I42
I51
tp845
a(I50
I51
tp846
a(I43
I52
tp847
a(I44
I53
tp848
a(I52
I53
tp849
a(I54
I53
tp850
a(I45
I54
tp851
a(I64
I55
tp852
a(I55
I56
tp853
a(I65
I56
tp854
a(I56
I57
tp855
a(I59
I58
tp856
a(I67
I58
tp857
a(I59
I60
tp858
a(I69
I60
tp859
a(I62
I61
tp860
a(I70
I61
tp861
a(I63
I62
tp862
a(I65
I64
tp863
a(I73
I64
tp864
a(I57
I66
tp865
a(I65
I66
tp866
a(I75
I66
tp867
a(I68
I67
tp868
a(I76
I67
tp869
a(I59
I68
tp870
a(I69
I68
tp871
a(I62
I71
tp872
a(I70
I71
tp873
a(I63
I72
tp874
a(I71
I72
tp875
a(I81
I72
tp876
a(I74
I73
tp877
a(I65
I74
tp878
a(I75
I74
tp879
a(I68
I77
tp880
a(I76
I77
tp881
a(I78
I77
tp882
a(I69
I78
tp883
a(I70
I79
tp884
a(I80
I79
tp885
a(I71
I80
tp886
a(I80
I81
tp887
atp888
a(S'Super easy (0)'
p889
I8
(lp890
(I2
I1
tp891
a(I2
I3
tp892
a(I12
I3
tp893
a(I13
I4
tp894
a(I4
I5
tp895
a(I6
I5
tp896
a(I14
I5
tp897
a(I15
I6
tp898
a(I8
I7
tp899
a(I9
I8
tp900
a(I18
I9
tp901
a(I1
I10
tp902
a(I11
I10
tp903
a(I19
I10
tp904
a(I2
I11
tp905
a(I12
I11
tp906
a(I21
I12
tp907
a(I14
I13
tp908
a(I14
I15
tp909
a(I7
I16
tp910
a(I8
I17
tp911
a(I16
I17
tp912
a(I18
I17
tp913
a(I26
I17
tp914
a(I27
I18
tp915
a(I11
I20
tp916
a(I19
I20
tp917
a(I21
I20
tp918
a(I13
I22
tp919
a(I14
I23
tp920
a(I22
I23
tp921
a(I24
I23
tp922
a(I15
I24
tp923
a(I16
I25
tp924
a(I26
I25
tp925
a(I26
I27
tp926
a(I28
I29
tp927
a(I29
I30
tp928
a(I39
I30
tp929
a(I31
I32
tp930
a(I41
I32
tp931
a(I32
I33
tp932
a(I42
I33
tp933
a(I43
I34
tp934
a(I34
I35
tp935
a(I44
I35
tp936
a(I35
I36
tp937
a(I45
I36
tp938
a(I28
I37
tp939
a(I38
I37
tp940
a(I46
I37
tp941
a(I29
I38
tp942
a(I39
I38
tp943
a(I47
I38
tp944
a(I31
I40
tp945
a(I41
I40
tp946
a(I49
I40
tp947
a(I50
I41
tp948
a(I41
I42
tp949
a(I43
I44
tp950
a(I44
I45
tp951
a(I47
I46
tp952
a(I48
I47
tp953
a(I39
I48
tp954
a(I49
I50
tp955
a(I42
I51
tp956
a(I50
I51
tp957
a(I43
I52
tp958
a(I44
I53
tp959
a(I52
I53
tp960
a(I54
I53
tp961
a(I45
I54
tp962
a(I64
I55
tp963
a(I55
I56
tp964
a(I65
I56
tp965
a(I56
I57
tp966
a(I59
I58
tp967
a(I67
I58
tp968
a(I59
I60
tp969
a(I69
I60
tp970
a(I62
I61
tp971
a(I70
I61
tp972
a(I63
I62
tp973
a(I65
I64
tp974
a(I73
I64
tp975
a(I57
I66
tp976
a(I65
I66
tp977
a(I75
I66
tp978
a(I68
I67
tp979
a(I76
I67
tp980
a(I59
I68
tp981
a(I69
I68
tp982
a(I62
I71
tp983
a(I70
I71
tp984
a(I63
I72
tp985
a(I71
I72
tp986
a(I81
I72
tp987
a(I74
I73
tp988
a(I65
I74
tp989
a(I75
I74
tp990
a(I68
I77
tp991
a(I76
I77
tp992
a(I78
I77
tp993
a(I69
I78
tp994
a(I70
I79
tp995
a(I80
I79
tp996
a(I71
I80
tp997
a(I80
I81
tp998
atp999
a(S'Super easy (0)'
p1000
I9
(lp1001
(I2
I1
tp1002
a(I2
I3
tp1003
a(I12
I3
tp1004
a(I13
I4
tp1005
a(I4
I5
tp1006
a(I6
I5
tp1007
a(I14
I5
tp1008
a(I15
I6
tp1009
a(I8
I7
tp1010
a(I9
I8
tp1011
a(I18
I9
tp1012
a(I1
I10
tp1013
a(I11
I10
tp1014
a(I19
I10
tp1015
a(I2
I11
tp1016
a(I12
I11
tp1017
a(I21
I12
tp1018
a(I14
I13
tp1019
a(I14
I15
tp1020
a(I7
I16
tp1021
a(I8
I17
tp1022
a(I16
I17
tp1023
a(I18
I17
tp1024
a(I26
I17
tp1025
a(I27
I18
tp1026
a(I11
I20
tp1027
a(I19
I20
tp1028
a(I21
I20
tp1029
a(I13
I22
tp1030
a(I14
I23
tp1031
a(I22
I23
tp1032
a(I24
I23
tp1033
a(I15
I24
tp1034
a(I16
I25
tp1035
a(I26
I25
tp1036
a(I26
I27
tp1037
a(I28
I29
tp1038
a(I29
I30
tp1039
a(I39
I30
tp1040
a(I31
I32
tp1041
a(I41
I32
tp1042
a(I32
I33
tp1043
a(I42
I33
tp1044
a(I43
I34
tp1045
a(I34
I35
tp1046
a(I44
I35
tp1047
a(I35
I36
tp1048
a(I45
I36
tp1049
a(I28
I37
tp1050
a(I38
I37
tp1051
a(I46
I37
tp1052
a(I29
I38
tp1053
a(I39
I38
tp1054
a(I47
I38
tp1055
a(I31
I40
tp1056
a(I41
I40
tp1057
a(I49
I40
tp1058
a(I50
I41
tp1059
a(I41
I42
tp1060
a(I43
I44
tp1061
a(I44
I45
tp1062
a(I47
I46
tp1063
a(I48
I47
tp1064
a(I39
I48
tp1065
a(I49
I50
tp1066
a(I42
I51
tp1067
a(I50
I51
tp1068
a(I43
I52
tp1069
a(I44
I53
tp1070
a(I52
I53
tp1071
a(I54
I53
tp1072
a(I45
I54
tp1073
a(I64
I55
tp1074
a(I55
I56
tp1075
a(I65
I56
tp1076
a(I56
I57
tp1077
a(I59
I58
tp1078
a(I67
I58
tp1079
a(I59
I60
tp1080
a(I69
I60
tp1081
a(I62
I61
tp1082
a(I70
I61
tp1083
a(I63
I62
tp1084
a(I65
I64
tp1085
a(I73
I64
tp1086
a(I57
I66
tp1087
a(I65
I66
tp1088
a(I75
I66
tp1089
a(I68
I67
tp1090
a(I76
I67
tp1091
a(I59
I68
tp1092
a(I69
I68
tp1093
a(I62
I71
tp1094
a(I70
I71
tp1095
a(I63
I72
tp1096
a(I71
I72
tp1097
a(I81
I72
tp1098
a(I74
I73
tp1099
a(I65
I74
tp1100
a(I75
I74
tp1101
a(I68
I77
tp1102
a(I76
I77
tp1103
a(I78
I77
tp1104
a(I69
I78
tp1105
a(I70
I79
tp1106
a(I80
I79
tp1107
a(I71
I80
tp1108
a(I80
I81
tp1109
atp1110
a(S'Very easy (0)'
p1111
I0
(lp1112
(I2
I1
tp1113
a(I10
I1
tp1114
a(I2
I3
tp1115
a(I12
I3
tp1116
a(I5
I4
tp1117
a(I13
I4
tp1118
a(I6
I5
tp1119
a(I15
I6
tp1120
a(I8
I7
tp1121
a(I16
I7
tp1122
a(I8
I9
tp1123
a(I11
I10
tp1124
a(I2
I11
tp1125
a(I20
I11
tp1126
a(I11
I12
tp1127
a(I5
I14
tp1128
a(I13
I14
tp1129
a(I15
I14
tp1130
a(I23
I14
tp1131
a(I17
I16
tp1132
a(I25
I16
tp1133
a(I8
I17
tp1134
a(I9
I18
tp1135
a(I17
I18
tp1136
a(I27
I18
tp1137
a(I10
I19
tp1138
a(I20
I19
tp1139
a(I12
I21
tp1140
a(I20
I21
tp1141
a(I13
I22
tp1142
a(I23
I22
tp1143
a(I15
I24
tp1144
a(I23
I24
tp1145
a(I26
I25
tp1146
a(I17
I26
tp1147
a(I26
I27
tp1148
a(I29
I28
tp1149
a(I30
I29
tp1150
a(I31
I32
tp1151
a(I33
I32
tp1152
a(I41
I32
tp1153
a(I43
I34
tp1154
a(I34
I35
tp1155
a(I44
I35
tp1156
a(I35
I36
tp1157
a(I45
I36
tp1158
a(I28
I37
tp1159
a(I38
I37
tp1160
a(I29
I38
tp1161
a(I39
I38
tp1162
a(I47
I38
tp1163
a(I30
I39
tp1164
a(I31
I40
tp1165
a(I41
I40
tp1166
a(I49
I40
tp1167
a(I50
I41
tp1168
a(I33
I42
tp1169
a(I41
I42
tp1170
a(I43
I44
tp1171
a(I45
I44
tp1172
a(I54
I45
tp1173
a(I37
I46
tp1174
a(I47
I46
tp1175
a(I48
I47
tp1176
a(I39
I48
tp1177
a(I50
I49
tp1178
a(I42
I51
tp1179
a(I50
I51
tp1180
a(I43
I52
tp1181
a(I44
I53
tp1182
a(I52
I53
tp1183
a(I54
I53
tp1184
a(I64
I55
tp1185
a(I55
I56
tp1186
a(I57
I56
tp1187
a(I65
I56
tp1188
a(I66
I57
tp1189
a(I58
I59
tp1190
a(I59
I60
tp1191
a(I62
I61
tp1192
a(I70
I61
tp1193
a(I63
I62
tp1194
a(I71
I62
tp1195
a(I64
I65
tp1196
a(I66
I65
tp1197
a(I58
I67
tp1198
a(I59
I68
tp1199
a(I67
I68
tp1200
a(I77
I68
tp1201
a(I60
I69
tp1202
a(I68
I69
tp1203
a(I78
I69
tp1204
a(I79
I70
tp1205
a(I70
I71
tp1206
a(I63
I72
tp1207
a(I71
I72
tp1208
a(I81
I72
tp1209
a(I64
I73
tp1210
a(I65
I74
tp1211
a(I73
I74
tp1212
a(I75
I74
tp1213
a(I66
I75
tp1214
a(I67
I76
tp1215
a(I77
I76
tp1216
a(I78
I77
tp1217
a(I71
I80
tp1218
a(I79
I80
tp1219
a(I81
I80
tp1220
atp1221
a(S'Very easy (0)'
p1222
I1
(lp1223
(I2
I1
tp1224
a(I11
I2
tp1225
a(I2
I3
tp1226
a(I5
I4
tp1227
a(I13
I4
tp1228
a(I14
I5
tp1229
a(I5
I6
tp1230
a(I15
I6
tp1231
a(I8
I7
tp1232
a(I16
I7
tp1233
a(I8
I9
tp1234
a(I1
I10
tp1235
a(I11
I10
tp1236
a(I19
I10
tp1237
a(I3
I12
tp1238
a(I11
I12
tp1239
a(I14
I13
tp1240
a(I22
I13
tp1241
a(I14
I15
tp1242
a(I24
I15
tp1243
a(I8
I17
tp1244
a(I16
I17
tp1245
a(I26
I17
tp1246
a(I9
I18
tp1247
a(I17
I18
tp1248
a(I27
I18
tp1249
a(I11
I20
tp1250
a(I19
I20
tp1251
a(I21
I20
tp1252
a(I12
I21
tp1253
a(I14
I23
tp1254
a(I22
I23
tp1255
a(I24
I23
tp1256
a(I16
I25
tp1257
a(I25
I26
tp1258
a(I27
I26
tp1259
a(I28
I29
tp1260
a(I30
I29
tp1261
a(I38
I29
tp1262
a(I39
I30
tp1263
a(I32
I31
tp1264
a(I40
I31
tp1265
a(I33
I32
tp1266
a(I41
I32
tp1267
a(I35
I34
tp1268
a(I43
I34
tp1269
a(I35
I36
tp1270
a(I28
I37
tp1271
a(I38
I37
tp1272
a(I46
I37
tp1273
a(I39
I38
tp1274
a(I47
I38
tp1275
a(I48
I39
tp1276
a(I41
I40
tp1277
a(I49
I40
tp1278
a(I33
I42
tp1279
a(I41
I42
tp1280
a(I52
I43
tp1281
a(I35
I44
tp1282
a(I43
I44
tp1283
a(I36
I45
tp1284
a(I44
I45
tp1285
a(I54
I45
tp1286
a(I47
I46
tp1287
a(I48
I47
tp1288
a(I41
I50
tp1289
a(I49
I50
tp1290
a(I51
I50
tp1291
a(I42
I51
tp1292
a(I44
I53
tp1293
a(I52
I53
tp1294
a(I53
I54
tp1295
a(I55
I56
tp1296
a(I56
I57
tp1297
a(I66
I57
tp1298
a(I59
I58
tp1299
a(I67
I58
tp1300
a(I60
I59
tp1301
a(I68
I59
tp1302
a(I62
I61
tp1303
a(I70
I61
tp1304
a(I63
I62
tp1305
a(I72
I63
tp1306
a(I55
I64
tp1307
a(I65
I64
tp1308
a(I73
I64
tp1309
a(I56
I65
tp1310
a(I66
I65
tp1311
a(I74
I65
tp1312
a(I75
I66
tp1313
a(I67
I68
tp1314
a(I60
I69
tp1315
a(I68
I69
tp1316
a(I62
I71
tp1317
a(I70
I71
tp1318
a(I72
I71
tp1319
a(I80
I71
tp1320
a(I73
I74
tp1321
a(I75
I74
tp1322
a(I67
I76
tp1323
a(I77
I76
tp1324
a(I68
I77
tp1325
a(I78
I77
tp1326
a(I69
I78
tp1327
a(I70
I79
tp1328
a(I80
I79
tp1329
a(I72
I81
tp1330
a(I80
I81
tp1331
atp1332
a(S'Very easy (0)'
p1333
I2
(lp1334
(I2
I1
tp1335
a(I3
I2
tp1336
a(I12
I3
tp1337
a(I5
I4
tp1338
a(I13
I4
tp1339
a(I14
I5
tp1340
a(I5
I6
tp1341
a(I8
I7
tp1342
a(I16
I7
tp1343
a(I9
I8
tp1344
a(I17
I8
tp1345
a(I1
I10
tp1346
a(I19
I10
tp1347
a(I2
I11
tp1348
a(I10
I11
tp1349
a(I12
I11
tp1350
a(I20
I11
tp1351
a(I14
I13
tp1352
a(I22
I13
tp1353
a(I6
I15
tp1354
a(I14
I15
tp1355
a(I17
I16
tp1356
a(I25
I16
tp1357
a(I9
I18
tp1358
a(I17
I18
tp1359
a(I19
I20
tp1360
a(I12
I21
tp1361
a(I20
I21
tp1362
a(I14
I23
tp1363
a(I22
I23
tp1364
a(I15
I24
tp1365
a(I23
I24
tp1366
a(I17
I26
tp1367
a(I25
I26
tp1368
a(I27
I26
tp1369
a(I18
I27
tp1370
a(I29
I28
tp1371
a(I37
I28
tp1372
a(I30
I29
tp1373
a(I31
I32
tp1374
a(I33
I32
tp1375
a(I41
I32
tp1376
a(I35
I34
tp1377
a(I43
I34
tp1378
a(I44
I35
tp1379
a(I35
I36
tp1380
a(I45
I36
tp1381
a(I46
I37
tp1382
a(I29
I38
tp1383
a(I37
I38
tp1384
a(I47
I38
tp1385
a(I30
I39
tp1386
a(I38
I39
tp1387
a(I48
I39
tp1388
a(I31
I40
tp1389
a(I41
I40
tp1390
a(I49
I40
tp1391
a(I42
I41
tp1392
a(I50
I41
tp1393
a(I33
I42
tp1394
a(I43
I44
tp1395
a(I45
I44
tp1396
a(I46
I47
tp1397
a(I47
I48
tp1398
a(I49
I50
tp1399
a(I42
I51
tp1400
a(I50
I51
tp1401
a(I43
I52
tp1402
a(I44
I53
tp1403
a(I52
I53
tp1404
a(I54
I53
tp1405
a(I45
I54
tp1406
a(I56
I55
tp1407
a(I64
I55
tp1408
a(I57
I56
tp1409
a(I65
I56
tp1410
a(I58
I59
tp1411
a(I60
I59
tp1412
a(I69
I60
tp1413
a(I62
I61
tp1414
a(I70
I61
tp1415
a(I62
I63
tp1416
a(I72
I63
tp1417
a(I65
I64
tp1418
a(I57
I66
tp1419
a(I65
I66
tp1420
a(I58
I67
tp1421
a(I76
I67
tp1422
a(I59
I68
tp1423
a(I67
I68
tp1424
a(I69
I68
tp1425
a(I77
I68
tp1426
a(I78
I69
tp1427
a(I62
I71
tp1428
a(I70
I71
tp1429
a(I72
I71
tp1430
a(I80
I71
tp1431
a(I81
I72
tp1432
a(I64
I73
tp1433
a(I65
I74
tp1434
a(I73
I74
tp1435
a(I66
I75
tp1436
a(I74
I75
tp1437
a(I76
I77
tp1438
a(I78
I77
tp1439
a(I70
I79
tp1440
a(I80
I79
tp1441
a(I80
I81
tp1442
atp1443
a(S'Very easy (0)'
p1444
I3
(lp1445
(I2
I1
tp1446
a(I11
I2
tp1447
a(I2
I3
tp1448
a(I4
I5
tp1449
a(I6
I5
tp1450
a(I14
I5
tp1451
a(I15
I6
tp1452
a(I7
I8
tp1453
a(I8
I9
tp1454
a(I18
I9
tp1455
a(I1
I10
tp1456
a(I11
I10
tp1457
a(I19
I10
tp1458
a(I3
I12
tp1459
a(I11
I12
tp1460
a(I21
I12
tp1461
a(I4
I13
tp1462
a(I22
I13
tp1463
a(I13
I14
tp1464
a(I15
I14
tp1465
a(I7
I16
tp1466
a(I17
I16
tp1467
a(I8
I17
tp1468
a(I18
I17
tp1469
a(I26
I17
tp1470
a(I27
I18
tp1471
a(I20
I19
tp1472
a(I11
I20
tp1473
a(I21
I20
tp1474
a(I14
I23
tp1475
a(I22
I23
tp1476
a(I15
I24
tp1477
a(I23
I24
tp1478
a(I16
I25
tp1479
a(I26
I25
tp1480
a(I27
I26
tp1481
a(I29
I28
tp1482
a(I37
I28
tp1483
a(I30
I29
tp1484
a(I38
I29
tp1485
a(I39
I30
tp1486
a(I31
I32
tp1487
a(I33
I32
tp1488
a(I41
I32
tp1489
a(I35
I34
tp1490
a(I35
I36
tp1491
a(I37
I38
tp1492
a(I39
I38
tp1493
a(I31
I40
tp1494
a(I41
I40
tp1495
a(I49
I40
tp1496
a(I50
I41
tp1497
a(I33
I42
tp1498
a(I41
I42
tp1499
a(I34
I43
tp1500
a(I52
I43
tp1501
a(I35
I44
tp1502
a(I43
I44
tp1503
a(I45
I44
tp1504
a(I36
I45
tp1505
a(I54
I45
tp1506
a(I37
I46
tp1507
a(I38
I47
tp1508
a(I46
I47
tp1509
a(I48
I47
tp1510
a(I39
I48
tp1511
a(I50
I49
tp1512
a(I42
I51
tp1513
a(I50
I51
tp1514
a(I44
I53
tp1515
a(I52
I53
tp1516
a(I54
I53
tp1517
a(I56
I55
tp1518
a(I64
I55
tp1519
a(I65
I56
tp1520
a(I56
I57
tp1521
a(I66
I57
tp1522
a(I58
I59
tp1523
a(I68
I59
tp1524
a(I59
I60
tp1525
a(I69
I60
tp1526
a(I62
I61
tp1527
a(I62
I63
tp1528
a(I65
I64
tp1529
a(I73
I64
tp1530
a(I66
I65
tp1531
a(I58
I67
tp1532
a(I68
I67
tp1533
a(I76
I67
tp1534
a(I68
I69
tp1535
a(I78
I69
tp1536
a(I61
I70
tp1537
a(I71
I70
tp1538
a(I79
I70
tp1539
a(I62
I71
tp1540
a(I63
I72
tp1541
a(I71
I72
tp1542
a(I81
I72
tp1543
a(I65
I74
tp1544
a(I73
I74
tp1545
a(I75
I74
tp1546
a(I66
I75
tp1547
a(I77
I76
tp1548
a(I68
I77
tp1549
a(I78
I77
tp1550
a(I71
I80
tp1551
a(I79
I80
tp1552
a(I81
I80
tp1553
atp1554
a(S'Very easy (0)'
p1555
I4
(lp1556
(I2
I1
tp1557
a(I10
I1
tp1558
a(I3
I2
tp1559
a(I11
I2
tp1560
a(I4
I5
tp1561
a(I6
I5
tp1562
a(I14
I5
tp1563
a(I8
I7
tp1564
a(I16
I7
tp1565
a(I8
I9
tp1566
a(I10
I11
tp1567
a(I12
I11
tp1568
a(I20
I11
tp1569
a(I3
I12
tp1570
a(I4
I13
tp1571
a(I22
I13
tp1572
a(I13
I14
tp1573
a(I15
I14
tp1574
a(I23
I14
tp1575
a(I6
I15
tp1576
a(I8
I17
tp1577
a(I16
I17
tp1578
a(I18
I17
tp1579
a(I26
I17
tp1580
a(I9
I18
tp1581
a(I27
I18
tp1582
a(I10
I19
tp1583
a(I20
I19
tp1584
a(I12
I21
tp1585
a(I20
I21
tp1586
a(I23
I22
tp1587
a(I24
I23
tp1588
a(I15
I24
tp1589
a(I16
I25
tp1590
a(I26
I25
tp1591
a(I27
I26
tp1592
a(I29
I28
tp1593
a(I37
I28
tp1594
a(I29
I30
tp1595
a(I32
I31
tp1596
a(I40
I31
tp1597
a(I32
I33
tp1598
a(I42
I33
tp1599
a(I35
I34
tp1600
a(I44
I35
tp1601
a(I35
I36
tp1602
a(I45
I36
tp1603
a(I46
I37
tp1604
a(I29
I38
tp1605
a(I37
I38
tp1606
a(I47
I38
tp1607
a(I30
I39
tp1608
a(I38
I39
tp1609
a(I32
I41
tp1610
a(I40
I41
tp1611
a(I42
I41
tp1612
a(I50
I41
tp1613
a(I34
I43
tp1614
a(I44
I43
tp1615
a(I52
I43
tp1616
a(I44
I45
tp1617
a(I46
I47
tp1618
a(I39
I48
tp1619
a(I47
I48
tp1620
a(I40
I49
tp1621
a(I49
I50
tp1622
a(I42
I51
tp1623
a(I50
I51
tp1624
a(I44
I53
tp1625
a(I52
I53
tp1626
a(I45
I54
tp1627
a(I53
I54
tp1628
a(I56
I55
tp1629
a(I64
I55
tp1630
a(I56
I57
tp1631
a(I66
I57
tp1632
a(I59
I58
tp1633
a(I67
I58
tp1634
a(I60
I59
tp1635
a(I68
I59
tp1636
a(I69
I60
tp1637
a(I61
I62
tp1638
a(I63
I62
tp1639
a(I71
I62
tp1640
a(I56
I65
tp1641
a(I64
I65
tp1642
a(I66
I65
tp1643
a(I68
I67
tp1644
a(I76
I67
tp1645
a(I77
I68
tp1646
a(I68
I69
tp1647
a(I61
I70
tp1648
a(I79
I70
tp1649
a(I70
I71
tp1650
a(I80
I71
tp1651
a(I63
I72
tp1652
a(I71
I72
tp1653
a(I81
I72
tp1654
a(I64
I73
tp1655
a(I65
I74
tp1656
a(I73
I74
tp1657
a(I75
I74
tp1658
a(I66
I75
tp1659
a(I76
I77
tp1660
a(I69
I78
tp1661
a(I77
I78
tp1662
a(I79
I80
tp1663
a(I81
I80
tp1664
atp1665
a(S'Very easy (0)'
p1666
I5
(lp1667
(I10
I1
tp1668
a(I1
I2
tp1669
a(I3
I2
tp1670
a(I11
I2
tp1671
a(I4
I5
tp1672
a(I6
I5
tp1673
a(I14
I5
tp1674
a(I15
I6
tp1675
a(I7
I8
tp1676
a(I8
I9
tp1677
a(I11
I10
tp1678
a(I12
I11
tp1679
a(I20
I11
tp1680
a(I3
I12
tp1681
a(I4
I13
tp1682
a(I14
I13
tp1683
a(I22
I13
tp1684
a(I15
I14
tp1685
a(I7
I16
tp1686
a(I17
I16
tp1687
a(I25
I16
tp1688
a(I8
I17
tp1689
a(I26
I17
tp1690
a(I9
I18
tp1691
a(I17
I18
tp1692
a(I27
I18
tp1693
a(I10
I19
tp1694
a(I20
I19
tp1695
a(I12
I21
tp1696
a(I20
I21
tp1697
a(I14
I23
tp1698
a(I22
I23
tp1699
a(I15
I24
tp1700
a(I23
I24
tp1701
a(I26
I25
tp1702
a(I27
I26
tp1703
a(I28
I29
tp1704
a(I30
I29
tp1705
a(I38
I29
tp1706
a(I39
I30
tp1707
a(I32
I31
tp1708
a(I32
I33
tp1709
a(I35
I34
tp1710
a(I44
I35
tp1711
a(I35
I36
tp1712
a(I45
I36
tp1713
a(I28
I37
tp1714
a(I38
I37
tp1715
a(I38
I39
tp1716
a(I31
I40
tp1717
a(I32
I41
tp1718
a(I40
I41
tp1719
a(I42
I41
tp1720
a(I50
I41
tp1721
a(I33
I42
tp1722
a(I51
I42
tp1723
a(I34
I43
tp1724
a(I44
I43
tp1725
a(I52
I43
tp1726
a(I44
I45
tp1727
a(I37
I46
tp1728
a(I47
I46
tp1729
a(I38
I47
tp1730
a(I39
I48
tp1731
a(I47
I48
tp1732
a(I40
I49
tp1733
a(I50
I49
tp1734
a(I50
I51
tp1735
a(I44
I53
tp1736
a(I52
I53
tp1737
a(I54
I53
tp1738
a(I45
I54
tp1739
a(I64
I55
tp1740
a(I55
I56
tp1741
a(I65
I56
tp1742
a(I56
I57
tp1743
a(I67
I58
tp1744
a(I58
I59
tp1745
a(I60
I59
tp1746
a(I70
I61
tp1747
a(I61
I62
tp1748
a(I63
I62
tp1749
a(I71
I62
tp1750
a(I73
I64
tp1751
a(I64
I65
tp1752
a(I74
I65
tp1753
a(I57
I66
tp1754
a(I65
I66
tp1755
a(I75
I66
tp1756
a(I59
I68
tp1757
a(I67
I68
tp1758
a(I69
I68
tp1759
a(I77
I68
tp1760
a(I60
I69
tp1761
a(I78
I69
tp1762
a(I70
I71
tp1763
a(I72
I71
tp1764
a(I63
I72
tp1765
a(I73
I74
tp1766
a(I75
I74
tp1767
a(I67
I76
tp1768
a(I77
I76
tp1769
a(I78
I77
tp1770
a(I70
I79
tp1771
a(I71
I80
tp1772
a(I79
I80
tp1773
a(I72
I81
tp1774
a(I80
I81
tp1775
atp1776
a(S'Very easy (0)'
p1777
I6
(lp1778
(I1
I2
tp1779
a(I3
I2
tp1780
a(I11
I2
tp1781
a(I4
I5
tp1782
a(I6
I5
tp1783
a(I16
I7
tp1784
a(I7
I8
tp1785
a(I9
I8
tp1786
a(I1
I10
tp1787
a(I11
I10
tp1788
a(I19
I10
tp1789
a(I3
I12
tp1790
a(I11
I12
tp1791
a(I4
I13
tp1792
a(I22
I13
tp1793
a(I5
I14
tp1794
a(I13
I14
tp1795
a(I15
I14
tp1796
a(I23
I14
tp1797
a(I6
I15
tp1798
a(I8
I17
tp1799
a(I16
I17
tp1800
a(I18
I17
tp1801
a(I26
I17
tp1802
a(I9
I18
tp1803
a(I11
I20
tp1804
a(I19
I20
tp1805
a(I12
I21
tp1806
a(I20
I21
tp1807
a(I22
I23
tp1808
a(I15
I24
tp1809
a(I23
I24
tp1810
a(I16
I25
tp1811
a(I26
I25
tp1812
a(I18
I27
tp1813
a(I26
I27
tp1814
a(I29
I28
tp1815
a(I37
I28
tp1816
a(I38
I29
tp1817
a(I29
I30
tp1818
a(I39
I30
tp1819
a(I31
I32
tp1820
a(I33
I32
tp1821
a(I41
I32
tp1822
a(I34
I35
tp1823
a(I36
I35
tp1824
a(I38
I37
tp1825
a(I46
I37
tp1826
a(I39
I38
tp1827
a(I31
I40
tp1828
a(I40
I41
tp1829
a(I33
I42
tp1830
a(I41
I42
tp1831
a(I51
I42
tp1832
a(I34
I43
tp1833
a(I52
I43
tp1834
a(I35
I44
tp1835
a(I43
I44
tp1836
a(I45
I44
tp1837
a(I53
I44
tp1838
a(I36
I45
tp1839
a(I38
I47
tp1840
a(I46
I47
tp1841
a(I39
I48
tp1842
a(I47
I48
tp1843
a(I40
I49
tp1844
a(I41
I50
tp1845
a(I49
I50
tp1846
a(I50
I51
tp1847
a(I53
I52
tp1848
a(I45
I54
tp1849
a(I53
I54
tp1850
a(I56
I55
tp1851
a(I64
I55
tp1852
a(I56
I57
tp1853
a(I66
I57
tp1854
a(I59
I58
tp1855
a(I68
I59
tp1856
a(I59
I60
tp1857
a(I61
I62
tp1858
a(I63
I62
tp1859
a(I71
I62
tp1860
a(I72
I63
tp1861
a(I73
I64
tp1862
a(I56
I65
tp1863
a(I64
I65
tp1864
a(I66
I65
tp1865
a(I58
I67
tp1866
a(I68
I67
tp1867
a(I76
I67
tp1868
a(I60
I69
tp1869
a(I68
I69
tp1870
a(I78
I69
tp1871
a(I61
I70
tp1872
a(I71
I70
tp1873
a(I79
I70
tp1874
a(I80
I71
tp1875
a(I71
I72
tp1876
a(I81
I72
tp1877
a(I65
I74
tp1878
a(I73
I74
tp1879
a(I66
I75
tp1880
a(I74
I75
tp1881
a(I77
I76
tp1882
a(I68
I77
tp1883
a(I78
I77
tp1884
a(I80
I79
tp1885
a(I80
I81
tp1886
atp1887
a(S'Very easy (0)'
p1888
I7
(lp1889
(I2
I1
tp1890
a(I2
I3
tp1891
a(I12
I3
tp1892
a(I13
I4
tp1893
a(I4
I5
tp1894
a(I6
I5
tp1895
a(I14
I5
tp1896
a(I7
I8
tp1897
a(I9
I8
tp1898
a(I17
I8
tp1899
a(I1
I10
tp1900
a(I19
I10
tp1901
a(I2
I11
tp1902
a(I10
I11
tp1903
a(I12
I11
tp1904
a(I20
I11
tp1905
a(I21
I12
tp1906
a(I14
I13
tp1907
a(I6
I15
tp1908
a(I14
I15
tp1909
a(I24
I15
tp1910
a(I7
I16
tp1911
a(I16
I17
tp1912
a(I26
I17
tp1913
a(I9
I18
tp1914
a(I17
I18
tp1915
a(I27
I18
tp1916
a(I19
I20
tp1917
a(I20
I21
tp1918
a(I13
I22
tp1919
a(I14
I23
tp1920
a(I22
I23
tp1921
a(I24
I23
tp1922
a(I16
I25
tp1923
a(I26
I25
tp1924
a(I26
I27
tp1925
a(I29
I28
tp1926
a(I37
I28
tp1927
a(I30
I29
tp1928
a(I39
I30
tp1929
a(I40
I31
tp1930
a(I31
I32
tp1931
a(I41
I32
tp1932
a(I32
I33
tp1933
a(I42
I33
tp1934
a(I35
I34
tp1935
a(I43
I34
tp1936
a(I35
I36
tp1937
a(I38
I37
tp1938
a(I29
I38
tp1939
a(I39
I38
tp1940
a(I40
I41
tp1941
a(I41
I42
tp1942
a(I51
I42
tp1943
a(I35
I44
tp1944
a(I43
I44
tp1945
a(I53
I44
tp1946
a(I36
I45
tp1947
a(I44
I45
tp1948
a(I54
I45
tp1949
a(I37
I46
tp1950
a(I47
I46
tp1951
a(I38
I47
tp1952
a(I48
I47
tp1953
a(I39
I48
tp1954
a(I40
I49
tp1955
a(I50
I49
tp1956
a(I41
I50
tp1957
a(I51
I50
tp1958
a(I43
I52
tp1959
a(I53
I52
tp1960
a(I53
I54
tp1961
a(I55
I56
tp1962
a(I65
I56
tp1963
a(I56
I57
tp1964
a(I66
I57
tp1965
a(I67
I58
tp1966
a(I58
I59
tp1967
a(I68
I59
tp1968
a(I59
I60
tp1969
a(I61
I62
tp1970
a(I63
I62
tp1971
a(I71
I62
tp1972
a(I55
I64
tp1973
a(I64
I65
tp1974
a(I74
I65
tp1975
a(I65
I66
tp1976
a(I75
I66
tp1977
a(I67
I68
tp1978
a(I60
I69
tp1979
a(I68
I69
tp1980
a(I78
I69
tp1981
a(I61
I70
tp1982
a(I71
I70
tp1983
a(I72
I71
tp1984
a(I63
I72
tp1985
a(I81
I72
tp1986
a(I64
I73
tp1987
a(I74
I73
tp1988
a(I74
I75
tp1989
a(I67
I76
tp1990
a(I68
I77
tp1991
a(I76
I77
tp1992
a(I78
I77
tp1993
a(I70
I79
tp1994
a(I80
I79
tp1995
a(I71
I80
tp1996
a(I81
I80
tp1997
atp1998
a(S'Very easy (0)'
p1999
I8
(lp2000
(I10
I1
tp2001
a(I1
I2
tp2002
a(I3
I2
tp2003
a(I11
I2
tp2004
a(I12
I3
tp2005
a(I4
I5
tp2006
a(I6
I5
tp2007
a(I14
I5
tp2008
a(I15
I6
tp2009
a(I8
I7
tp2010
a(I9
I8
tp2011
a(I10
I11
tp2012
a(I11
I12
tp2013
a(I21
I12
tp2014
a(I4
I13
tp2015
a(I14
I13
tp2016
a(I14
I15
tp2017
a(I24
I15
tp2018
a(I7
I16
tp2019
a(I17
I16
tp2020
a(I25
I16
tp2021
a(I8
I17
tp2022
a(I18
I17
tp2023
a(I26
I17
tp2024
a(I9
I18
tp2025
a(I27
I18
tp2026
a(I10
I19
tp2027
a(I20
I19
tp2028
a(I11
I20
tp2029
a(I21
I20
tp2030
a(I13
I22
tp2031
a(I14
I23
tp2032
a(I22
I23
tp2033
a(I24
I23
tp2034
a(I25
I26
tp2035
a(I26
I27
tp2036
a(I29
I28
tp2037
a(I30
I29
tp2038
a(I38
I29
tp2039
a(I32
I31
tp2040
a(I40
I31
tp2041
a(I33
I32
tp2042
a(I41
I32
tp2043
a(I34
I35
tp2044
a(I35
I36
tp2045
a(I45
I36
tp2046
a(I28
I37
tp2047
a(I38
I37
tp2048
a(I46
I37
tp2049
a(I30
I39
tp2050
a(I38
I39
tp2051
a(I40
I41
tp2052
a(I33
I42
tp2053
a(I41
I42
tp2054
a(I34
I43
tp2055
a(I52
I43
tp2056
a(I35
I44
tp2057
a(I43
I44
tp2058
a(I45
I44
tp2059
a(I53
I44
tp2060
a(I54
I45
tp2061
a(I47
I46
tp2062
a(I38
I47
tp2063
a(I39
I48
tp2064
a(I47
I48
tp2065
a(I40
I49
tp2066
a(I41
I50
tp2067
a(I49
I50
tp2068
a(I42
I51
tp2069
a(I50
I51
tp2070
a(I52
I53
tp2071
a(I54
I53
tp2072
a(I64
I55
tp2073
a(I55
I56
tp2074
a(I57
I56
tp2075
a(I65
I56
tp2076
a(I66
I57
tp2077
a(I59
I58
tp2078
a(I59
I60
tp2079
a(I62
I61
tp2080
a(I70
I61
tp2081
a(I62
I63
tp2082
a(I72
I63
tp2083
a(I64
I65
tp2084
a(I66
I65
tp2085
a(I58
I67
tp2086
a(I76
I67
tp2087
a(I59
I68
tp2088
a(I67
I68
tp2089
a(I77
I68
tp2090
a(I60
I69
tp2091
a(I68
I69
tp2092
a(I78
I69
tp2093
a(I62
I71
tp2094
a(I70
I71
tp2095
a(I80
I71
tp2096
a(I71
I72
tp2097
a(I81
I72
tp2098
a(I64
I73
tp2099
a(I74
I73
tp2100
a(I65
I74
tp2101
a(I75
I74
tp2102
a(I66
I75
tp2103
a(I76
I77
tp2104
a(I77
I78
tp2105
a(I70
I79
tp2106
a(I80
I79
tp2107
a(I81
I80
tp2108
atp2109
a(S'Very easy (0)'
p2110
I9
(lp2111
(I2
I1
tp2112
a(I11
I2
tp2113
a(I2
I3
tp2114
a(I13
I4
tp2115
a(I4
I5
tp2116
a(I5
I6
tp2117
a(I7
I8
tp2118
a(I9
I8
tp2119
a(I17
I8
tp2120
a(I18
I9
tp2121
a(I1
I10
tp2122
a(I11
I10
tp2123
a(I3
I12
tp2124
a(I11
I12
tp2125
a(I21
I12
tp2126
a(I5
I14
tp2127
a(I13
I14
tp2128
a(I23
I14
tp2129
a(I6
I15
tp2130
a(I14
I15
tp2131
a(I24
I15
tp2132
a(I7
I16
tp2133
a(I17
I16
tp2134
a(I25
I16
tp2135
a(I17
I18
tp2136
a(I10
I19
tp2137
a(I20
I19
tp2138
a(I11
I20
tp2139
a(I21
I20
tp2140
a(I13
I22
tp2141
a(I22
I23
tp2142
a(I23
I24
tp2143
a(I17
I26
tp2144
a(I25
I26
tp2145
a(I27
I26
tp2146
a(I18
I27
tp2147
a(I29
I28
tp2148
a(I37
I28
tp2149
a(I30
I29
tp2150
a(I38
I29
tp2151
a(I32
I31
tp2152
a(I40
I31
tp2153
a(I33
I32
tp2154
a(I41
I32
tp2155
a(I42
I33
tp2156
a(I34
I35
tp2157
a(I36
I35
tp2158
a(I37
I38
tp2159
a(I30
I39
tp2160
a(I38
I39
tp2161
a(I48
I39
tp2162
a(I41
I40
tp2163
a(I49
I40
tp2164
a(I50
I41
tp2165
a(I41
I42
tp2166
a(I34
I43
tp2167
a(I44
I43
tp2168
a(I35
I44
tp2169
a(I53
I44
tp2170
a(I36
I45
tp2171
a(I44
I45
tp2172
a(I37
I46
tp2173
a(I47
I46
tp2174
a(I38
I47
tp2175
a(I48
I47
tp2176
a(I50
I49
tp2177
a(I42
I51
tp2178
a(I50
I51
tp2179
a(I43
I52
tp2180
a(I53
I52
tp2181
a(I45
I54
tp2182
a(I53
I54
tp2183
a(I55
I56
tp2184
a(I57
I56
tp2185
a(I65
I56
tp2186
a(I66
I57
tp2187
a(I67
I58
tp2188
a(I58
I59
tp2189
a(I60
I59
tp2190
a(I68
I59
tp2191
a(I61
I62
tp2192
a(I63
I62
tp2193
a(I71
I62
tp2194
a(I72
I63
tp2195
a(I55
I64
tp2196
a(I65
I64
tp2197
a(I73
I64
tp2198
a(I66
I65
tp2199
a(I74
I65
tp2200
a(I75
I66
tp2201
a(I68
I67
tp2202
a(I60
I69
tp2203
a(I68
I69
tp2204
a(I78
I69
tp2205
a(I61
I70
tp2206
a(I71
I70
tp2207
a(I79
I70
tp2208
a(I71
I72
tp2209
a(I74
I73
tp2210
a(I74
I75
tp2211
a(I67
I76
tp2212
a(I68
I77
tp2213
a(I76
I77
tp2214
a(I78
I77
tp2215
a(I71
I80
tp2216
a(I79
I80
tp2217
a(I81
I80
tp2218
a(I72
I81
tp2219
atp2220
a(S'Easy (0)'
p2221
I0
(lp2222
(I1
I2
tp2223
a(I3
I2
tp2224
a(I12
I3
tp2225
a(I5
I4
tp2226
a(I13
I4
tp2227
a(I5
I6
tp2228
a(I15
I6
tp2229
a(I8
I7
tp2230
a(I17
I8
tp2231
a(I8
I9
tp2232
a(I18
I9
tp2233
a(I1
I10
tp2234
a(I11
I10
tp2235
a(I19
I10
tp2236
a(I2
I11
tp2237
a(I12
I11
tp2238
a(I5
I14
tp2239
a(I13
I14
tp2240
a(I14
I15
tp2241
a(I24
I15
tp2242
a(I7
I16
tp2243
a(I17
I16
tp2244
a(I25
I16
tp2245
a(I26
I17
tp2246
a(I17
I18
tp2247
a(I27
I18
tp2248
a(I11
I20
tp2249
a(I19
I20
tp2250
a(I21
I20
tp2251
a(I12
I21
tp2252
a(I13
I22
tp2253
a(I23
I22
tp2254
a(I14
I23
tp2255
a(I24
I23
tp2256
a(I25
I26
tp2257
a(I26
I27
tp2258
a(I29
I28
tp2259
a(I29
I30
tp2260
a(I31
I32
tp2261
a(I33
I32
tp2262
a(I41
I32
tp2263
a(I42
I33
tp2264
a(I34
I35
tp2265
a(I36
I35
tp2266
a(I44
I35
tp2267
a(I28
I37
tp2268
a(I38
I37
tp2269
a(I46
I37
tp2270
a(I29
I38
tp2271
a(I39
I38
tp2272
a(I47
I38
tp2273
a(I30
I39
tp2274
a(I31
I40
tp2275
a(I40
I41
tp2276
a(I42
I41
tp2277
a(I34
I43
tp2278
a(I44
I43
tp2279
a(I52
I43
tp2280
a(I36
I45
tp2281
a(I44
I45
tp2282
a(I46
I47
tp2283
a(I39
I48
tp2284
a(I47
I48
tp2285
a(I40
I49
tp2286
a(I41
I50
tp2287
a(I49
I50
tp2288
a(I51
I50
tp2289
a(I42
I51
tp2290
a(I44
I53
tp2291
a(I52
I53
tp2292
a(I45
I54
tp2293
a(I53
I54
tp2294
a(I56
I55
tp2295
a(I56
I57
tp2296
a(I67
I58
tp2297
a(I58
I59
tp2298
a(I60
I59
tp2299
a(I68
I59
tp2300
a(I69
I60
tp2301
a(I70
I61
tp2302
a(I61
I62
tp2303
a(I63
I62
tp2304
a(I71
I62
tp2305
a(I55
I64
tp2306
a(I65
I64
tp2307
a(I56
I65
tp2308
a(I57
I66
tp2309
a(I65
I66
tp2310
a(I75
I66
tp2311
a(I68
I67
tp2312
a(I69
I68
tp2313
a(I77
I68
tp2314
a(I70
I71
tp2315
a(I72
I71
tp2316
a(I80
I71
tp2317
a(I63
I72
tp2318
a(I81
I72
tp2319
a(I64
I73
tp2320
a(I65
I74
tp2321
a(I73
I74
tp2322
a(I75
I74
tp2323
a(I67
I76
tp2324
a(I77
I76
tp2325
a(I69
I78
tp2326
a(I77
I78
tp2327
a(I70
I79
tp2328
a(I79
I80
tp2329
a(I81
I80
tp2330
atp2331
a(S'Easy (0)'
p2332
I1
(lp2333
(I1
I2
tp2334
a(I3
I2
tp2335
a(I11
I2
tp2336
a(I12
I3
tp2337
a(I5
I4
tp2338
a(I13
I4
tp2339
a(I6
I5
tp2340
a(I15
I6
tp2341
a(I16
I7
tp2342
a(I7
I8
tp2343
a(I9
I8
tp2344
a(I17
I8
tp2345
a(I1
I10
tp2346
a(I11
I10
tp2347
a(I19
I10
tp2348
a(I12
I11
tp2349
a(I20
I11
tp2350
a(I5
I14
tp2351
a(I13
I14
tp2352
a(I15
I14
tp2353
a(I23
I14
tp2354
a(I25
I16
tp2355
a(I16
I17
tp2356
a(I26
I17
tp2357
a(I9
I18
tp2358
a(I17
I18
tp2359
a(I27
I18
tp2360
a(I20
I19
tp2361
a(I12
I21
tp2362
a(I20
I21
tp2363
a(I13
I22
tp2364
a(I23
I22
tp2365
a(I15
I24
tp2366
a(I23
I24
tp2367
a(I26
I25
tp2368
a(I27
I26
tp2369
a(I37
I28
tp2370
a(I28
I29
tp2371
a(I30
I29
tp2372
a(I31
I32
tp2373
a(I41
I32
tp2374
a(I32
I33
tp2375
a(I34
I35
tp2376
a(I35
I36
tp2377
a(I45
I36
tp2378
a(I29
I38
tp2379
a(I37
I38
tp2380
a(I39
I38
tp2381
a(I47
I38
tp2382
a(I30
I39
tp2383
a(I48
I39
tp2384
a(I31
I40
tp2385
a(I40
I41
tp2386
a(I33
I42
tp2387
a(I41
I42
tp2388
a(I51
I42
tp2389
a(I34
I43
tp2390
a(I44
I43
tp2391
a(I52
I43
tp2392
a(I35
I44
tp2393
a(I45
I44
tp2394
a(I53
I44
tp2395
a(I37
I46
tp2396
a(I47
I46
tp2397
a(I47
I48
tp2398
a(I40
I49
tp2399
a(I41
I50
tp2400
a(I49
I50
tp2401
a(I51
I50
tp2402
a(I53
I52
tp2403
a(I45
I54
tp2404
a(I53
I54
tp2405
a(I55
I56
tp2406
a(I65
I56
tp2407
a(I56
I57
tp2408
a(I66
I57
tp2409
a(I59
I58
tp2410
a(I67
I58
tp2411
a(I59
I60
tp2412
a(I61
I62
tp2413
a(I63
I62
tp2414
a(I71
I62
tp2415
a(I55
I64
tp2416
a(I64
I65
tp2417
a(I66
I65
tp2418
a(I68
I67
tp2419
a(I76
I67
tp2420
a(I59
I68
tp2421
a(I69
I68
tp2422
a(I77
I68
tp2423
a(I60
I69
tp2424
a(I78
I69
tp2425
a(I61
I70
tp2426
a(I71
I70
tp2427
a(I79
I70
tp2428
a(I63
I72
tp2429
a(I71
I72
tp2430
a(I81
I72
tp2431
a(I64
I73
tp2432
a(I74
I73
tp2433
a(I65
I74
tp2434
a(I66
I75
tp2435
a(I74
I75
tp2436
a(I77
I76
tp2437
a(I77
I78
tp2438
a(I71
I80
tp2439
a(I79
I80
tp2440
a(I81
I80
tp2441
atp2442
a(S'Easy (0)'
p2443
I2
(lp2444
(I2
I1
tp2445
a(I10
I1
tp2446
a(I2
I3
tp2447
a(I12
I3
tp2448
a(I4
I5
tp2449
a(I6
I5
tp2450
a(I8
I7
tp2451
a(I16
I7
tp2452
a(I9
I8
tp2453
a(I17
I8
tp2454
a(I11
I10
tp2455
a(I2
I11
tp2456
a(I12
I11
tp2457
a(I20
I11
tp2458
a(I4
I13
tp2459
a(I5
I14
tp2460
a(I13
I14
tp2461
a(I15
I14
tp2462
a(I23
I14
tp2463
a(I6
I15
tp2464
a(I24
I15
tp2465
a(I16
I17
tp2466
a(I9
I18
tp2467
a(I17
I18
tp2468
a(I27
I18
tp2469
a(I10
I19
tp2470
a(I20
I19
tp2471
a(I12
I21
tp2472
a(I20
I21
tp2473
a(I13
I22
tp2474
a(I22
I23
tp2475
a(I24
I23
tp2476
a(I16
I25
tp2477
a(I17
I26
tp2478
a(I25
I26
tp2479
a(I27
I26
tp2480
a(I28
I29
tp2481
a(I30
I29
tp2482
a(I38
I29
tp2483
a(I31
I32
tp2484
a(I32
I33
tp2485
a(I42
I33
tp2486
a(I43
I34
tp2487
a(I34
I35
tp2488
a(I36
I35
tp2489
a(I45
I36
tp2490
a(I28
I37
tp2491
a(I38
I37
tp2492
a(I46
I37
tp2493
a(I30
I39
tp2494
a(I38
I39
tp2495
a(I31
I40
tp2496
a(I32
I41
tp2497
a(I40
I41
tp2498
a(I42
I41
tp2499
a(I50
I41
tp2500
a(I52
I43
tp2501
a(I35
I44
tp2502
a(I43
I44
tp2503
a(I45
I44
tp2504
a(I53
I44
tp2505
a(I38
I47
tp2506
a(I46
I47
tp2507
a(I48
I47
tp2508
a(I39
I48
tp2509
a(I40
I49
tp2510
a(I50
I49
tp2511
a(I42
I51
tp2512
a(I50
I51
tp2513
a(I53
I52
tp2514
a(I54
I53
tp2515
a(I45
I54
tp2516
a(I56
I55
tp2517
a(I57
I56
tp2518
a(I59
I58
tp2519
a(I68
I59
tp2520
a(I59
I60
tp2521
a(I69
I60
tp2522
a(I61
I62
tp2523
a(I71
I62
tp2524
a(I62
I63
tp2525
a(I72
I63
tp2526
a(I55
I64
tp2527
a(I73
I64
tp2528
a(I56
I65
tp2529
a(I64
I65
tp2530
a(I66
I65
tp2531
a(I57
I66
tp2532
a(I58
I67
tp2533
a(I68
I67
tp2534
a(I76
I67
tp2535
a(I77
I68
tp2536
a(I68
I69
tp2537
a(I61
I70
tp2538
a(I71
I70
tp2539
a(I79
I70
tp2540
a(I71
I72
tp2541
a(I65
I74
tp2542
a(I73
I74
tp2543
a(I66
I75
tp2544
a(I74
I75
tp2545
a(I77
I76
tp2546
a(I69
I78
tp2547
a(I77
I78
tp2548
a(I80
I79
tp2549
a(I71
I80
tp2550
a(I72
I81
tp2551
a(I80
I81
tp2552
atp2553
a(S'Easy (0)'
p2554
I3
(lp2555
(I2
I1
tp2556
a(I10
I1
tp2557
a(I2
I3
tp2558
a(I5
I4
tp2559
a(I13
I4
tp2560
a(I5
I6
tp2561
a(I15
I6
tp2562
a(I8
I7
tp2563
a(I16
I7
tp2564
a(I9
I8
tp2565
a(I18
I9
tp2566
a(I2
I11
tp2567
a(I10
I11
tp2568
a(I12
I11
tp2569
a(I20
I11
tp2570
a(I3
I12
tp2571
a(I22
I13
tp2572
a(I5
I14
tp2573
a(I13
I14
tp2574
a(I15
I14
tp2575
a(I25
I16
tp2576
a(I8
I17
tp2577
a(I16
I17
tp2578
a(I18
I17
tp2579
a(I26
I17
tp2580
a(I10
I19
tp2581
a(I19
I20
tp2582
a(I21
I20
tp2583
a(I12
I21
tp2584
a(I14
I23
tp2585
a(I22
I23
tp2586
a(I24
I23
tp2587
a(I15
I24
tp2588
a(I26
I25
tp2589
a(I18
I27
tp2590
a(I26
I27
tp2591
a(I28
I29
tp2592
a(I29
I30
tp2593
a(I39
I30
tp2594
a(I32
I31
tp2595
a(I40
I31
tp2596
a(I41
I32
tp2597
a(I32
I33
tp2598
a(I42
I33
tp2599
a(I34
I35
tp2600
a(I44
I35
tp2601
a(I35
I36
tp2602
a(I28
I37
tp2603
a(I29
I38
tp2604
a(I37
I38
tp2605
a(I38
I39
tp2606
a(I41
I40
tp2607
a(I49
I40
tp2608
a(I41
I42
tp2609
a(I51
I42
tp2610
a(I34
I43
tp2611
a(I44
I43
tp2612
a(I52
I43
tp2613
a(I36
I45
tp2614
a(I44
I45
tp2615
a(I54
I45
tp2616
a(I37
I46
tp2617
a(I38
I47
tp2618
a(I46
I47
tp2619
a(I39
I48
tp2620
a(I47
I48
tp2621
a(I41
I50
tp2622
a(I49
I50
tp2623
a(I51
I50
tp2624
a(I44
I53
tp2625
a(I52
I53
tp2626
a(I54
I53
tp2627
a(I56
I55
tp2628
a(I64
I55
tp2629
a(I57
I56
tp2630
a(I65
I56
tp2631
a(I67
I58
tp2632
a(I58
I59
tp2633
a(I59
I60
tp2634
a(I69
I60
tp2635
a(I70
I61
tp2636
a(I61
I62
tp2637
a(I63
I62
tp2638
a(I71
I62
tp2639
a(I65
I64
tp2640
a(I57
I66
tp2641
a(I65
I66
tp2642
a(I75
I66
tp2643
a(I76
I67
tp2644
a(I59
I68
tp2645
a(I67
I68
tp2646
a(I69
I68
tp2647
a(I77
I68
tp2648
a(I70
I71
tp2649
a(I80
I71
tp2650
a(I63
I72
tp2651
a(I71
I72
tp2652
a(I81
I72
tp2653
a(I64
I73
tp2654
a(I74
I73
tp2655
a(I65
I74
tp2656
a(I75
I74
tp2657
a(I76
I77
tp2658
a(I69
I78
tp2659
a(I77
I78
tp2660
a(I70
I79
tp2661
a(I80
I79
tp2662
a(I80
I81
tp2663
atp2664
a(S'Easy (0)'
p2665
I4
(lp2666
(I2
I1
tp2667
a(I10
I1
tp2668
a(I2
I3
tp2669
a(I4
I5
tp2670
a(I6
I5
tp2671
a(I14
I5
tp2672
a(I15
I6
tp2673
a(I16
I7
tp2674
a(I7
I8
tp2675
a(I8
I9
tp2676
a(I11
I10
tp2677
a(I19
I10
tp2678
a(I2
I11
tp2679
a(I20
I11
tp2680
a(I3
I12
tp2681
a(I11
I12
tp2682
a(I21
I12
tp2683
a(I4
I13
tp2684
a(I13
I14
tp2685
a(I15
I14
tp2686
a(I23
I14
tp2687
a(I8
I17
tp2688
a(I16
I17
tp2689
a(I26
I17
tp2690
a(I9
I18
tp2691
a(I17
I18
tp2692
a(I27
I18
tp2693
a(I20
I19
tp2694
a(I20
I21
tp2695
a(I13
I22
tp2696
a(I23
I22
tp2697
a(I24
I23
tp2698
a(I15
I24
tp2699
a(I16
I25
tp2700
a(I26
I25
tp2701
a(I26
I27
tp2702
a(I28
I29
tp2703
a(I30
I29
tp2704
a(I38
I29
tp2705
a(I39
I30
tp2706
a(I32
I31
tp2707
a(I41
I32
tp2708
a(I32
I33
tp2709
a(I42
I33
tp2710
a(I34
I35
tp2711
a(I36
I35
tp2712
a(I44
I35
tp2713
a(I28
I37
tp2714
a(I38
I37
tp2715
a(I46
I37
tp2716
a(I39
I38
tp2717
a(I47
I38
tp2718
a(I48
I39
tp2719
a(I31
I40
tp2720
a(I41
I40
tp2721
a(I49
I40
tp2722
a(I41
I42
tp2723
a(I51
I42
tp2724
a(I34
I43
tp2725
a(I44
I43
tp2726
a(I52
I43
tp2727
a(I36
I45
tp2728
a(I44
I45
tp2729
a(I46
I47
tp2730
a(I48
I47
tp2731
a(I41
I50
tp2732
a(I49
I50
tp2733
a(I51
I50
tp2734
a(I44
I53
tp2735
a(I52
I53
tp2736
a(I45
I54
tp2737
a(I53
I54
tp2738
a(I56
I55
tp2739
a(I64
I55
tp2740
a(I57
I56
tp2741
a(I59
I58
tp2742
a(I67
I58
tp2743
a(I59
I60
tp2744
a(I62
I61
tp2745
a(I70
I61
tp2746
a(I71
I62
tp2747
a(I62
I63
tp2748
a(I72
I63
tp2749
a(I73
I64
tp2750
a(I56
I65
tp2751
a(I64
I65
tp2752
a(I66
I65
tp2753
a(I74
I65
tp2754
a(I57
I66
tp2755
a(I76
I67
tp2756
a(I59
I68
tp2757
a(I67
I68
tp2758
a(I77
I68
tp2759
a(I60
I69
tp2760
a(I68
I69
tp2761
a(I78
I69
tp2762
a(I71
I70
tp2763
a(I72
I71
tp2764
a(I73
I74
tp2765
a(I75
I74
tp2766
a(I66
I75
tp2767
a(I77
I76
tp2768
a(I77
I78
tp2769
a(I70
I79
tp2770
a(I71
I80
tp2771
a(I79
I80
tp2772
a(I81
I80
tp2773
a(I72
I81
tp2774
atp2775
a(S'Easy (0)'
p2776
I5
(lp2777
(I1
I2
tp2778
a(I2
I3
tp2779
a(I12
I3
tp2780
a(I13
I4
tp2781
a(I4
I5
tp2782
a(I6
I5
tp2783
a(I14
I5
tp2784
a(I15
I6
tp2785
a(I8
I7
tp2786
a(I16
I7
tp2787
a(I17
I8
tp2788
a(I8
I9
tp2789
a(I18
I9
tp2790
a(I1
I10
tp2791
a(I11
I10
tp2792
a(I19
I10
tp2793
a(I2
I11
tp2794
a(I20
I11
tp2795
a(I11
I12
tp2796
a(I13
I14
tp2797
a(I15
I14
tp2798
a(I23
I14
tp2799
a(I17
I16
tp2800
a(I25
I16
tp2801
a(I26
I17
tp2802
a(I17
I18
tp2803
a(I27
I18
tp2804
a(I20
I19
tp2805
a(I12
I21
tp2806
a(I20
I21
tp2807
a(I13
I22
tp2808
a(I23
I22
tp2809
a(I15
I24
tp2810
a(I23
I24
tp2811
a(I26
I25
tp2812
a(I26
I27
tp2813
a(I29
I28
tp2814
a(I30
I29
tp2815
a(I39
I30
tp2816
a(I32
I31
tp2817
a(I32
I33
tp2818
a(I42
I33
tp2819
a(I34
I35
tp2820
a(I35
I36
tp2821
a(I45
I36
tp2822
a(I28
I37
tp2823
a(I46
I37
tp2824
a(I29
I38
tp2825
a(I37
I38
tp2826
a(I39
I38
tp2827
a(I47
I38
tp2828
a(I31
I40
tp2829
a(I41
I40
tp2830
a(I49
I40
tp2831
a(I32
I41
tp2832
a(I42
I41
tp2833
a(I50
I41
tp2834
a(I34
I43
tp2835
a(I52
I43
tp2836
a(I35
I44
tp2837
a(I43
I44
tp2838
a(I45
I44
tp2839
a(I47
I46
tp2840
a(I39
I48
tp2841
a(I47
I48
tp2842
a(I50
I49
tp2843
a(I42
I51
tp2844
a(I50
I51
tp2845
a(I44
I53
tp2846
a(I52
I53
tp2847
a(I54
I53
tp2848
a(I45
I54
tp2849
a(I55
I56
tp2850
a(I57
I56
tp2851
a(I65
I56
tp2852
a(I58
I59
tp2853
a(I60
I59
tp2854
a(I68
I59
tp2855
a(I69
I60
tp2856
a(I62
I61
tp2857
a(I70
I61
tp2858
a(I63
I62
tp2859
a(I72
I63
tp2860
a(I55
I64
tp2861
a(I65
I64
tp2862
a(I73
I64
tp2863
a(I57
I66
tp2864
a(I65
I66
tp2865
a(I75
I66
tp2866
a(I58
I67
tp2867
a(I68
I67
tp2868
a(I76
I67
tp2869
a(I68
I69
tp2870
a(I78
I69
tp2871
a(I62
I71
tp2872
a(I70
I71
tp2873
a(I72
I71
tp2874
a(I65
I74
tp2875
a(I73
I74
tp2876
a(I75
I74
tp2877
a(I68
I77
tp2878
a(I76
I77
tp2879
a(I78
I77
tp2880
a(I70
I79
tp2881
a(I71
I80
tp2882
a(I79
I80
tp2883
a(I72
I81
tp2884
a(I80
I81
tp2885
atp2886
a(S'Easy (0)'
p2887
I6
(lp2888
(I1
I2
tp2889
a(I2
I3
tp2890
a(I4
I5
tp2891
a(I6
I5
tp2892
a(I14
I5
tp2893
a(I15
I6
tp2894
a(I8
I7
tp2895
a(I16
I7
tp2896
a(I8
I9
tp2897
a(I1
I10
tp2898
a(I11
I10
tp2899
a(I2
I11
tp2900
a(I3
I12
tp2901
a(I11
I12
tp2902
a(I21
I12
tp2903
a(I4
I13
tp2904
a(I14
I13
tp2905
a(I22
I13
tp2906
a(I15
I14
tp2907
a(I8
I17
tp2908
a(I16
I17
tp2909
a(I26
I17
tp2910
a(I9
I18
tp2911
a(I17
I18
tp2912
a(I27
I18
tp2913
a(I10
I19
tp2914
a(I11
I20
tp2915
a(I19
I20
tp2916
a(I21
I20
tp2917
a(I23
I22
tp2918
a(I14
I23
tp2919
a(I15
I24
tp2920
a(I23
I24
tp2921
a(I16
I25
tp2922
a(I26
I25
tp2923
a(I27
I26
tp2924
a(I29
I28
tp2925
a(I37
I28
tp2926
a(I30
I29
tp2927
a(I38
I29
tp2928
a(I31
I32
tp2929
a(I41
I32
tp2930
a(I32
I33
tp2931
a(I42
I33
tp2932
a(I35
I34
tp2933
a(I35
I36
tp2934
a(I37
I38
tp2935
a(I47
I38
tp2936
a(I30
I39
tp2937
a(I38
I39
tp2938
a(I48
I39
tp2939
a(I31
I40
tp2940
a(I41
I40
tp2941
a(I49
I40
tp2942
a(I41
I42
tp2943
a(I34
I43
tp2944
a(I35
I44
tp2945
a(I43
I44
tp2946
a(I36
I45
tp2947
a(I44
I45
tp2948
a(I54
I45
tp2949
a(I37
I46
tp2950
a(I47
I46
tp2951
a(I48
I47
tp2952
a(I41
I50
tp2953
a(I49
I50
tp2954
a(I51
I50
tp2955
a(I42
I51
tp2956
a(I43
I52
tp2957
a(I44
I53
tp2958
a(I52
I53
tp2959
a(I54
I53
tp2960
a(I64
I55
tp2961
a(I55
I56
tp2962
a(I57
I56
tp2963
a(I59
I58
tp2964
a(I67
I58
tp2965
a(I68
I59
tp2966
a(I59
I60
tp2967
a(I69
I60
tp2968
a(I61
I62
tp2969
a(I63
I62
tp2970
a(I56
I65
tp2971
a(I64
I65
tp2972
a(I74
I65
tp2973
a(I57
I66
tp2974
a(I65
I66
tp2975
a(I75
I66
tp2976
a(I67
I68
tp2977
a(I69
I68
tp2978
a(I61
I70
tp2979
a(I62
I71
tp2980
a(I70
I71
tp2981
a(I63
I72
tp2982
a(I71
I72
tp2983
a(I81
I72
tp2984
a(I64
I73
tp2985
a(I74
I73
tp2986
a(I74
I75
tp2987
a(I67
I76
tp2988
a(I68
I77
tp2989
a(I76
I77
tp2990
a(I78
I77
tp2991
a(I69
I78
tp2992
a(I70
I79
tp2993
a(I71
I80
tp2994
a(I79
I80
tp2995
a(I81
I80
tp2996
atp2997
a(S'Easy (0)'
p2998
I7
(lp2999
(I1
I2
tp3000
a(I3
I2
tp3001
a(I11
I2
tp3002
a(I12
I3
tp3003
a(I4
I5
tp3004
a(I6
I5
tp3005
a(I14
I5
tp3006
a(I15
I6
tp3007
a(I8
I7
tp3008
a(I9
I8
tp3009
a(I1
I10
tp3010
a(I11
I10
tp3011
a(I11
I12
tp3012
a(I4
I13
tp3013
a(I13
I14
tp3014
a(I15
I14
tp3015
a(I7
I16
tp3016
a(I25
I16
tp3017
a(I8
I17
tp3018
a(I16
I17
tp3019
a(I26
I17
tp3020
a(I9
I18
tp3021
a(I17
I18
tp3022
a(I27
I18
tp3023
a(I10
I19
tp3024
a(I11
I20
tp3025
a(I19
I20
tp3026
a(I21
I20
tp3027
a(I12
I21
tp3028
a(I13
I22
tp3029
a(I23
I22
tp3030
a(I14
I23
tp3031
a(I24
I23
tp3032
a(I15
I24
tp3033
a(I26
I25
tp3034
a(I26
I27
tp3035
a(I29
I28
tp3036
a(I37
I28
tp3037
a(I30
I29
tp3038
a(I38
I29
tp3039
a(I32
I31
tp3040
a(I40
I31
tp3041
a(I41
I32
tp3042
a(I32
I33
tp3043
a(I42
I33
tp3044
a(I35
I34
tp3045
a(I35
I36
tp3046
a(I38
I37
tp3047
a(I46
I37
tp3048
a(I30
I39
tp3049
a(I38
I39
tp3050
a(I48
I39
tp3051
a(I41
I40
tp3052
a(I41
I42
tp3053
a(I34
I43
tp3054
a(I44
I43
tp3055
a(I52
I43
tp3056
a(I35
I44
tp3057
a(I36
I45
tp3058
a(I44
I45
tp3059
a(I54
I45
tp3060
a(I38
I47
tp3061
a(I46
I47
tp3062
a(I47
I48
tp3063
a(I40
I49
tp3064
a(I50
I49
tp3065
a(I41
I50
tp3066
a(I42
I51
tp3067
a(I50
I51
tp3068
a(I44
I53
tp3069
a(I52
I53
tp3070
a(I54
I53
tp3071
a(I56
I55
tp3072
a(I56
I57
tp3073
a(I66
I57
tp3074
a(I59
I58
tp3075
a(I67
I58
tp3076
a(I60
I59
tp3077
a(I68
I59
tp3078
a(I62
I61
tp3079
a(I70
I61
tp3080
a(I62
I63
tp3081
a(I55
I64
tp3082
a(I65
I64
tp3083
a(I73
I64
tp3084
a(I56
I65
tp3085
a(I66
I65
tp3086
a(I68
I67
tp3087
a(I76
I67
tp3088
a(I60
I69
tp3089
a(I68
I69
tp3090
a(I78
I69
tp3091
a(I62
I71
tp3092
a(I70
I71
tp3093
a(I80
I71
tp3094
a(I63
I72
tp3095
a(I71
I72
tp3096
a(I81
I72
tp3097
a(I65
I74
tp3098
a(I73
I74
tp3099
a(I66
I75
tp3100
a(I74
I75
tp3101
a(I68
I77
tp3102
a(I76
I77
tp3103
a(I78
I77
tp3104
a(I70
I79
tp3105
a(I79
I80
tp3106
a(I81
I80
tp3107
atp3108
a(S'Easy (0)'
p3109
I8
(lp3110
(I2
I1
tp3111
a(I10
I1
tp3112
a(I3
I2
tp3113
a(I11
I2
tp3114
a(I5
I4
tp3115
a(I13
I4
tp3116
a(I14
I5
tp3117
a(I5
I6
tp3118
a(I8
I7
tp3119
a(I16
I7
tp3120
a(I9
I8
tp3121
a(I17
I8
tp3122
a(I11
I10
tp3123
a(I19
I10
tp3124
a(I3
I12
tp3125
a(I11
I12
tp3126
a(I13
I14
tp3127
a(I6
I15
tp3128
a(I14
I15
tp3129
a(I24
I15
tp3130
a(I17
I16
tp3131
a(I26
I17
tp3132
a(I9
I18
tp3133
a(I17
I18
tp3134
a(I27
I18
tp3135
a(I20
I19
tp3136
a(I11
I20
tp3137
a(I12
I21
tp3138
a(I20
I21
tp3139
a(I13
I22
tp3140
a(I14
I23
tp3141
a(I22
I23
tp3142
a(I24
I23
tp3143
a(I16
I25
tp3144
a(I26
I25
tp3145
a(I27
I26
tp3146
a(I28
I29
tp3147
a(I30
I29
tp3148
a(I31
I32
tp3149
a(I33
I32
tp3150
a(I41
I32
tp3151
a(I42
I33
tp3152
a(I43
I34
tp3153
a(I34
I35
tp3154
a(I36
I35
tp3155
a(I44
I35
tp3156
a(I45
I36
tp3157
a(I28
I37
tp3158
a(I29
I38
tp3159
a(I37
I38
tp3160
a(I39
I38
tp3161
a(I47
I38
tp3162
a(I30
I39
tp3163
a(I48
I39
tp3164
a(I31
I40
tp3165
a(I41
I40
tp3166
a(I42
I41
tp3167
a(I50
I41
tp3168
a(I43
I44
tp3169
a(I44
I45
tp3170
a(I54
I45
tp3171
a(I37
I46
tp3172
a(I46
I47
tp3173
a(I48
I47
tp3174
a(I40
I49
tp3175
a(I50
I49
tp3176
a(I42
I51
tp3177
a(I50
I51
tp3178
a(I43
I52
tp3179
a(I44
I53
tp3180
a(I52
I53
tp3181
a(I54
I53
tp3182
a(I56
I55
tp3183
a(I64
I55
tp3184
a(I57
I56
tp3185
a(I59
I58
tp3186
a(I67
I58
tp3187
a(I59
I60
tp3188
a(I69
I60
tp3189
a(I61
I62
tp3190
a(I63
I62
tp3191
a(I71
I62
tp3192
a(I73
I64
tp3193
a(I56
I65
tp3194
a(I64
I65
tp3195
a(I74
I65
tp3196
a(I57
I66
tp3197
a(I65
I66
tp3198
a(I75
I66
tp3199
a(I76
I67
tp3200
a(I59
I68
tp3201
a(I67
I68
tp3202
a(I69
I68
tp3203
a(I61
I70
tp3204
a(I71
I70
tp3205
a(I79
I70
tp3206
a(I63
I72
tp3207
a(I71
I72
tp3208
a(I81
I72
tp3209
a(I73
I74
tp3210
a(I74
I75
tp3211
a(I68
I77
tp3212
a(I76
I77
tp3213
a(I78
I77
tp3214
a(I69
I78
tp3215
a(I71
I80
tp3216
a(I79
I80
tp3217
a(I81
I80
tp3218
atp3219
a(S'Easy (0)'
p3220
I9
(lp3221
(I2
I1
tp3222
a(I10
I1
tp3223
a(I11
I2
tp3224
a(I2
I3
tp3225
a(I12
I3
tp3226
a(I5
I4
tp3227
a(I5
I6
tp3228
a(I15
I6
tp3229
a(I8
I7
tp3230
a(I8
I9
tp3231
a(I11
I10
tp3232
a(I19
I10
tp3233
a(I12
I11
tp3234
a(I4
I13
tp3235
a(I14
I13
tp3236
a(I5
I14
tp3237
a(I14
I15
tp3238
a(I7
I16
tp3239
a(I17
I16
tp3240
a(I25
I16
tp3241
a(I8
I17
tp3242
a(I18
I17
tp3243
a(I26
I17
tp3244
a(I9
I18
tp3245
a(I27
I18
tp3246
a(I11
I20
tp3247
a(I19
I20
tp3248
a(I21
I20
tp3249
a(I12
I21
tp3250
a(I13
I22
tp3251
a(I14
I23
tp3252
a(I22
I23
tp3253
a(I24
I23
tp3254
a(I15
I24
tp3255
a(I25
I26
tp3256
a(I26
I27
tp3257
a(I28
I29
tp3258
a(I30
I29
tp3259
a(I38
I29
tp3260
a(I32
I31
tp3261
a(I40
I31
tp3262
a(I32
I33
tp3263
a(I42
I33
tp3264
a(I43
I34
tp3265
a(I34
I35
tp3266
a(I36
I35
tp3267
a(I45
I36
tp3268
a(I28
I37
tp3269
a(I38
I37
tp3270
a(I30
I39
tp3271
a(I38
I39
tp3272
a(I48
I39
tp3273
a(I49
I40
tp3274
a(I32
I41
tp3275
a(I40
I41
tp3276
a(I50
I41
tp3277
a(I41
I42
tp3278
a(I51
I42
tp3279
a(I35
I44
tp3280
a(I43
I44
tp3281
a(I45
I44
tp3282
a(I53
I44
tp3283
a(I37
I46
tp3284
a(I38
I47
tp3285
a(I46
I47
tp3286
a(I48
I47
tp3287
a(I49
I50
tp3288
a(I51
I50
tp3289
a(I43
I52
tp3290
a(I53
I52
tp3291
a(I45
I54
tp3292
a(I53
I54
tp3293
a(I56
I55
tp3294
a(I56
I57
tp3295
a(I58
I59
tp3296
a(I60
I59
tp3297
a(I68
I59
tp3298
a(I69
I60
tp3299
a(I61
I62
tp3300
a(I71
I62
tp3301
a(I62
I63
tp3302
a(I72
I63
tp3303
a(I55
I64
tp3304
a(I65
I64
tp3305
a(I73
I64
tp3306
a(I56
I65
tp3307
a(I74
I65
tp3308
a(I57
I66
tp3309
a(I65
I66
tp3310
a(I58
I67
tp3311
a(I68
I67
tp3312
a(I69
I68
tp3313
a(I61
I70
tp3314
a(I71
I70
tp3315
a(I79
I70
tp3316
a(I71
I72
tp3317
a(I74
I73
tp3318
a(I66
I75
tp3319
a(I74
I75
tp3320
a(I67
I76
tp3321
a(I77
I76
tp3322
a(I68
I77
tp3323
a(I78
I77
tp3324
a(I69
I78
tp3325
a(I71
I80
tp3326
a(I79
I80
tp3327
a(I72
I81
tp3328
a(I80
I81
tp3329
atp3330
a(S'Medium (0)'
p3331
I0
(lp3332
(I2
I1
tp3333
a(I10
I1
tp3334
a(I3
I2
tp3335
a(I5
I4
tp3336
a(I13
I4
tp3337
a(I14
I5
tp3338
a(I5
I6
tp3339
a(I7
I8
tp3340
a(I17
I8
tp3341
a(I8
I9
tp3342
a(I18
I9
tp3343
a(I11
I10
tp3344
a(I19
I10
tp3345
a(I2
I11
tp3346
a(I3
I12
tp3347
a(I11
I12
tp3348
a(I21
I12
tp3349
a(I14
I13
tp3350
a(I6
I15
tp3351
a(I14
I15
tp3352
a(I24
I15
tp3353
a(I7
I16
tp3354
a(I17
I16
tp3355
a(I25
I16
tp3356
a(I17
I18
tp3357
a(I27
I18
tp3358
a(I11
I20
tp3359
a(I19
I20
tp3360
a(I21
I20
tp3361
a(I13
I22
tp3362
a(I14
I23
tp3363
a(I22
I23
tp3364
a(I23
I24
tp3365
a(I26
I25
tp3366
a(I17
I26
tp3367
a(I27
I26
tp3368
a(I29
I28
tp3369
a(I37
I28
tp3370
a(I29
I30
tp3371
a(I39
I30
tp3372
a(I32
I31
tp3373
a(I40
I31
tp3374
a(I32
I33
tp3375
a(I34
I35
tp3376
a(I36
I35
tp3377
a(I45
I36
tp3378
a(I29
I38
tp3379
a(I37
I38
tp3380
a(I39
I38
tp3381
a(I49
I40
tp3382
a(I32
I41
tp3383
a(I40
I41
tp3384
a(I50
I41
tp3385
a(I33
I42
tp3386
a(I41
I42
tp3387
a(I51
I42
tp3388
a(I34
I43
tp3389
a(I52
I43
tp3390
a(I35
I44
tp3391
a(I43
I44
tp3392
a(I45
I44
tp3393
a(I53
I44
tp3394
a(I37
I46
tp3395
a(I38
I47
tp3396
a(I46
I47
tp3397
a(I39
I48
tp3398
a(I47
I48
tp3399
a(I49
I50
tp3400
a(I50
I51
tp3401
a(I52
I53
tp3402
a(I45
I54
tp3403
a(I53
I54
tp3404
a(I56
I55
tp3405
a(I64
I55
tp3406
a(I56
I57
tp3407
a(I66
I57
tp3408
a(I67
I58
tp3409
a(I58
I59
tp3410
a(I60
I59
tp3411
a(I62
I61
tp3412
a(I70
I61
tp3413
a(I63
I62
tp3414
a(I71
I62
tp3415
a(I72
I63
tp3416
a(I73
I64
tp3417
a(I56
I65
tp3418
a(I64
I65
tp3419
a(I66
I65
tp3420
a(I74
I65
tp3421
a(I76
I67
tp3422
a(I59
I68
tp3423
a(I67
I68
tp3424
a(I69
I68
tp3425
a(I77
I68
tp3426
a(I60
I69
tp3427
a(I78
I69
tp3428
a(I71
I70
tp3429
a(I71
I72
tp3430
a(I73
I74
tp3431
a(I66
I75
tp3432
a(I74
I75
tp3433
a(I77
I76
tp3434
a(I78
I77
tp3435
a(I70
I79
tp3436
a(I71
I80
tp3437
a(I79
I80
tp3438
a(I81
I80
tp3439
a(I72
I81
tp3440
atp3441
a(S'Medium (0)'
p3442
I1
(lp3443
(I2
I1
tp3444
a(I10
I1
tp3445
a(I2
I3
tp3446
a(I13
I4
tp3447
a(I4
I5
tp3448
a(I5
I6
tp3449
a(I8
I7
tp3450
a(I16
I7
tp3451
a(I8
I9
tp3452
a(I18
I9
tp3453
a(I11
I10
tp3454
a(I19
I10
tp3455
a(I2
I11
tp3456
a(I3
I12
tp3457
a(I11
I12
tp3458
a(I21
I12
tp3459
a(I5
I14
tp3460
a(I13
I14
tp3461
a(I15
I14
tp3462
a(I23
I14
tp3463
a(I6
I15
tp3464
a(I24
I15
tp3465
a(I8
I17
tp3466
a(I16
I17
tp3467
a(I18
I17
tp3468
a(I11
I20
tp3469
a(I19
I20
tp3470
a(I20
I21
tp3471
a(I13
I22
tp3472
a(I22
I23
tp3473
a(I24
I23
tp3474
a(I16
I25
tp3475
a(I17
I26
tp3476
a(I25
I26
tp3477
a(I27
I26
tp3478
a(I18
I27
tp3479
a(I28
I29
tp3480
a(I30
I29
tp3481
a(I38
I29
tp3482
a(I39
I30
tp3483
a(I31
I32
tp3484
a(I32
I33
tp3485
a(I42
I33
tp3486
a(I35
I34
tp3487
a(I36
I35
tp3488
a(I45
I36
tp3489
a(I28
I37
tp3490
a(I38
I37
tp3491
a(I46
I37
tp3492
a(I39
I38
tp3493
a(I48
I39
tp3494
a(I31
I40
tp3495
a(I32
I41
tp3496
a(I40
I41
tp3497
a(I42
I41
tp3498
a(I50
I41
tp3499
a(I34
I43
tp3500
a(I44
I43
tp3501
a(I52
I43
tp3502
a(I35
I44
tp3503
a(I45
I44
tp3504
a(I38
I47
tp3505
a(I46
I47
tp3506
a(I48
I47
tp3507
a(I40
I49
tp3508
a(I50
I49
tp3509
a(I42
I51
tp3510
a(I50
I51
tp3511
a(I44
I53
tp3512
a(I52
I53
tp3513
a(I54
I53
tp3514
a(I45
I54
tp3515
a(I55
I56
tp3516
a(I57
I56
tp3517
a(I65
I56
tp3518
a(I59
I58
tp3519
a(I67
I58
tp3520
a(I60
I59
tp3521
a(I68
I59
tp3522
a(I62
I61
tp3523
a(I62
I63
tp3524
a(I72
I63
tp3525
a(I55
I64
tp3526
a(I65
I64
tp3527
a(I57
I66
tp3528
a(I65
I66
tp3529
a(I75
I66
tp3530
a(I67
I68
tp3531
a(I77
I68
tp3532
a(I60
I69
tp3533
a(I68
I69
tp3534
a(I78
I69
tp3535
a(I61
I70
tp3536
a(I62
I71
tp3537
a(I70
I71
tp3538
a(I71
I72
tp3539
a(I81
I72
tp3540
a(I64
I73
tp3541
a(I74
I73
tp3542
a(I65
I74
tp3543
a(I75
I74
tp3544
a(I67
I76
tp3545
a(I77
I76
tp3546
a(I77
I78
tp3547
a(I70
I79
tp3548
a(I71
I80
tp3549
a(I79
I80
tp3550
a(I81
I80
tp3551
atp3552
a(S'Medium (0)'
p3553
I2
(lp3554
(I1
I2
tp3555
a(I3
I2
tp3556
a(I4
I5
tp3557
a(I14
I5
tp3558
a(I5
I6
tp3559
a(I15
I6
tp3560
a(I16
I7
tp3561
a(I7
I8
tp3562
a(I17
I8
tp3563
a(I8
I9
tp3564
a(I18
I9
tp3565
a(I1
I10
tp3566
a(I2
I11
tp3567
a(I10
I11
tp3568
a(I12
I11
tp3569
a(I3
I12
tp3570
a(I4
I13
tp3571
a(I14
I13
tp3572
a(I22
I13
tp3573
a(I23
I14
tp3574
a(I14
I15
tp3575
a(I24
I15
tp3576
a(I17
I16
tp3577
a(I17
I18
tp3578
a(I27
I18
tp3579
a(I10
I19
tp3580
a(I20
I19
tp3581
a(I11
I20
tp3582
a(I21
I20
tp3583
a(I12
I21
tp3584
a(I23
I22
tp3585
a(I23
I24
tp3586
a(I16
I25
tp3587
a(I17
I26
tp3588
a(I25
I26
tp3589
a(I27
I26
tp3590
a(I29
I28
tp3591
a(I29
I30
tp3592
a(I40
I31
tp3593
a(I31
I32
tp3594
a(I33
I32
tp3595
a(I41
I32
tp3596
a(I35
I34
tp3597
a(I44
I35
tp3598
a(I35
I36
tp3599
a(I45
I36
tp3600
a(I28
I37
tp3601
a(I46
I37
tp3602
a(I29
I38
tp3603
a(I37
I38
tp3604
a(I30
I39
tp3605
a(I38
I39
tp3606
a(I48
I39
tp3607
a(I41
I40
tp3608
a(I42
I41
tp3609
a(I33
I42
tp3610
a(I51
I42
tp3611
a(I34
I43
tp3612
a(I44
I43
tp3613
a(I52
I43
tp3614
a(I45
I44
tp3615
a(I38
I47
tp3616
a(I46
I47
tp3617
a(I48
I47
tp3618
a(I40
I49
tp3619
a(I41
I50
tp3620
a(I49
I50
tp3621
a(I51
I50
tp3622
a(I44
I53
tp3623
a(I52
I53
tp3624
a(I54
I53
tp3625
a(I45
I54
tp3626
a(I56
I55
tp3627
a(I64
I55
tp3628
a(I56
I57
tp3629
a(I66
I57
tp3630
a(I59
I58
tp3631
a(I67
I58
tp3632
a(I68
I59
tp3633
a(I59
I60
tp3634
a(I61
I62
tp3635
a(I62
I63
tp3636
a(I72
I63
tp3637
a(I65
I64
tp3638
a(I73
I64
tp3639
a(I56
I65
tp3640
a(I74
I65
tp3641
a(I65
I66
tp3642
a(I75
I66
tp3643
a(I67
I68
tp3644
a(I60
I69
tp3645
a(I68
I69
tp3646
a(I78
I69
tp3647
a(I61
I70
tp3648
a(I71
I70
tp3649
a(I79
I70
tp3650
a(I62
I71
tp3651
a(I72
I71
tp3652
a(I81
I72
tp3653
a(I74
I73
tp3654
a(I75
I74
tp3655
a(I67
I76
tp3656
a(I68
I77
tp3657
a(I76
I77
tp3658
a(I78
I77
tp3659
a(I71
I80
tp3660
a(I79
I80
tp3661
a(I81
I80
tp3662
atp3663
a(S'Medium (0)'
p3664
I3
(lp3665
(I2
I1
tp3666
a(I10
I1
tp3667
a(I11
I2
tp3668
a(I2
I3
tp3669
a(I4
I5
tp3670
a(I6
I5
tp3671
a(I14
I5
tp3672
a(I15
I6
tp3673
a(I8
I7
tp3674
a(I17
I8
tp3675
a(I8
I9
tp3676
a(I11
I10
tp3677
a(I19
I10
tp3678
a(I3
I12
tp3679
a(I11
I12
tp3680
a(I21
I12
tp3681
a(I4
I13
tp3682
a(I14
I13
tp3683
a(I15
I14
tp3684
a(I23
I14
tp3685
a(I7
I16
tp3686
a(I17
I16
tp3687
a(I25
I16
tp3688
a(I26
I17
tp3689
a(I9
I18
tp3690
a(I17
I18
tp3691
a(I11
I20
tp3692
a(I19
I20
tp3693
a(I21
I20
tp3694
a(I13
I22
tp3695
a(I23
I22
tp3696
a(I15
I24
tp3697
a(I23
I24
tp3698
a(I25
I26
tp3699
a(I18
I27
tp3700
a(I26
I27
tp3701
a(I28
I29
tp3702
a(I30
I29
tp3703
a(I40
I31
tp3704
a(I31
I32
tp3705
a(I33
I32
tp3706
a(I41
I32
tp3707
a(I35
I34
tp3708
a(I43
I34
tp3709
a(I36
I35
tp3710
a(I28
I37
tp3711
a(I29
I38
tp3712
a(I37
I38
tp3713
a(I39
I38
tp3714
a(I47
I38
tp3715
a(I30
I39
tp3716
a(I48
I39
tp3717
a(I41
I40
tp3718
a(I33
I42
tp3719
a(I41
I42
tp3720
a(I51
I42
tp3721
a(I52
I43
tp3722
a(I35
I44
tp3723
a(I43
I44
tp3724
a(I45
I44
tp3725
a(I53
I44
tp3726
a(I36
I45
tp3727
a(I37
I46
tp3728
a(I47
I46
tp3729
a(I48
I47
tp3730
a(I40
I49
tp3731
a(I41
I50
tp3732
a(I49
I50
tp3733
a(I51
I50
tp3734
a(I53
I52
tp3735
a(I45
I54
tp3736
a(I53
I54
tp3737
a(I55
I56
tp3738
a(I65
I56
tp3739
a(I56
I57
tp3740
a(I66
I57
tp3741
a(I58
I59
tp3742
a(I60
I59
tp3743
a(I68
I59
tp3744
a(I62
I61
tp3745
a(I63
I62
tp3746
a(I72
I63
tp3747
a(I55
I64
tp3748
a(I65
I64
tp3749
a(I66
I65
tp3750
a(I74
I65
tp3751
a(I58
I67
tp3752
a(I68
I67
tp3753
a(I77
I68
tp3754
a(I60
I69
tp3755
a(I68
I69
tp3756
a(I78
I69
tp3757
a(I61
I70
tp3758
a(I79
I70
tp3759
a(I62
I71
tp3760
a(I70
I71
tp3761
a(I72
I71
tp3762
a(I80
I71
tp3763
a(I81
I72
tp3764
a(I64
I73
tp3765
a(I74
I73
tp3766
a(I66
I75
tp3767
a(I74
I75
tp3768
a(I67
I76
tp3769
a(I77
I76
tp3770
a(I77
I78
tp3771
a(I79
I80
tp3772
a(I81
I80
tp3773
atp3774
a(S'Medium (0)'
p3775
I4
(lp3776
(I2
I1
tp3777
a(I10
I1
tp3778
a(I2
I3
tp3779
a(I12
I3
tp3780
a(I4
I5
tp3781
a(I6
I5
tp3782
a(I14
I5
tp3783
a(I15
I6
tp3784
a(I7
I8
tp3785
a(I9
I8
tp3786
a(I17
I8
tp3787
a(I18
I9
tp3788
a(I2
I11
tp3789
a(I10
I11
tp3790
a(I12
I11
tp3791
a(I20
I11
tp3792
a(I4
I13
tp3793
a(I22
I13
tp3794
a(I13
I14
tp3795
a(I15
I14
tp3796
a(I7
I16
tp3797
a(I17
I16
tp3798
a(I25
I16
tp3799
a(I18
I17
tp3800
a(I26
I17
tp3801
a(I27
I18
tp3802
a(I10
I19
tp3803
a(I20
I19
tp3804
a(I12
I21
tp3805
a(I20
I21
tp3806
a(I14
I23
tp3807
a(I22
I23
tp3808
a(I15
I24
tp3809
a(I23
I24
tp3810
a(I25
I26
tp3811
a(I27
I26
tp3812
a(I28
I29
tp3813
a(I30
I29
tp3814
a(I38
I29
tp3815
a(I32
I31
tp3816
a(I40
I31
tp3817
a(I32
I33
tp3818
a(I42
I33
tp3819
a(I34
I35
tp3820
a(I36
I35
tp3821
a(I44
I35
tp3822
a(I45
I36
tp3823
a(I28
I37
tp3824
a(I38
I37
tp3825
a(I46
I37
tp3826
a(I47
I38
tp3827
a(I30
I39
tp3828
a(I38
I39
tp3829
a(I48
I39
tp3830
a(I32
I41
tp3831
a(I40
I41
tp3832
a(I41
I42
tp3833
a(I51
I42
tp3834
a(I34
I43
tp3835
a(I44
I43
tp3836
a(I44
I45
tp3837
a(I47
I46
tp3838
a(I48
I47
tp3839
a(I40
I49
tp3840
a(I41
I50
tp3841
a(I49
I50
tp3842
a(I51
I50
tp3843
a(I43
I52
tp3844
a(I53
I52
tp3845
a(I44
I53
tp3846
a(I45
I54
tp3847
a(I53
I54
tp3848
a(I56
I55
tp3849
a(I64
I55
tp3850
a(I65
I56
tp3851
a(I56
I57
tp3852
a(I66
I57
tp3853
a(I59
I58
tp3854
a(I60
I59
tp3855
a(I68
I59
tp3856
a(I62
I61
tp3857
a(I62
I63
tp3858
a(I72
I63
tp3859
a(I73
I64
tp3860
a(I64
I65
tp3861
a(I65
I66
tp3862
a(I75
I66
tp3863
a(I58
I67
tp3864
a(I68
I67
tp3865
a(I76
I67
tp3866
a(I60
I69
tp3867
a(I68
I69
tp3868
a(I61
I70
tp3869
a(I71
I70
tp3870
a(I62
I71
tp3871
a(I71
I72
tp3872
a(I81
I72
tp3873
a(I65
I74
tp3874
a(I73
I74
tp3875
a(I75
I74
tp3876
a(I77
I76
tp3877
a(I68
I77
tp3878
a(I69
I78
tp3879
a(I77
I78
tp3880
a(I70
I79
tp3881
a(I80
I79
tp3882
a(I71
I80
tp3883
a(I80
I81
tp3884
atp3885
a(S'Medium (0)'
p3886
I5
(lp3887
(I1
I2
tp3888
a(I2
I3
tp3889
a(I12
I3
tp3890
a(I4
I5
tp3891
a(I14
I5
tp3892
a(I5
I6
tp3893
a(I15
I6
tp3894
a(I8
I7
tp3895
a(I17
I8
tp3896
a(I8
I9
tp3897
a(I1
I10
tp3898
a(I11
I10
tp3899
a(I2
I11
tp3900
a(I12
I11
tp3901
a(I20
I11
tp3902
a(I21
I12
tp3903
a(I4
I13
tp3904
a(I14
I13
tp3905
a(I22
I13
tp3906
a(I15
I14
tp3907
a(I7
I16
tp3908
a(I17
I16
tp3909
a(I25
I16
tp3910
a(I9
I18
tp3911
a(I17
I18
tp3912
a(I27
I18
tp3913
a(I10
I19
tp3914
a(I20
I19
tp3915
a(I20
I21
tp3916
a(I14
I23
tp3917
a(I22
I23
tp3918
a(I15
I24
tp3919
a(I23
I24
tp3920
a(I17
I26
tp3921
a(I25
I26
tp3922
a(I27
I26
tp3923
a(I29
I28
tp3924
a(I37
I28
tp3925
a(I30
I29
tp3926
a(I39
I30
tp3927
a(I32
I31
tp3928
a(I40
I31
tp3929
a(I33
I32
tp3930
a(I35
I34
tp3931
a(I36
I35
tp3932
a(I45
I36
tp3933
a(I29
I38
tp3934
a(I37
I38
tp3935
a(I39
I38
tp3936
a(I47
I38
tp3937
a(I41
I40
tp3938
a(I32
I41
tp3939
a(I33
I42
tp3940
a(I41
I42
tp3941
a(I51
I42
tp3942
a(I34
I43
tp3943
a(I44
I43
tp3944
a(I52
I43
tp3945
a(I35
I44
tp3946
a(I45
I44
tp3947
a(I53
I44
tp3948
a(I54
I45
tp3949
a(I37
I46
tp3950
a(I47
I46
tp3951
a(I39
I48
tp3952
a(I47
I48
tp3953
a(I40
I49
tp3954
a(I41
I50
tp3955
a(I49
I50
tp3956
a(I51
I50
tp3957
a(I53
I52
tp3958
a(I54
I53
tp3959
a(I55
I56
tp3960
a(I57
I56
tp3961
a(I65
I56
tp3962
a(I59
I58
tp3963
a(I67
I58
tp3964
a(I60
I59
tp3965
a(I70
I61
tp3966
a(I61
I62
tp3967
a(I63
I62
tp3968
a(I71
I62
tp3969
a(I55
I64
tp3970
a(I65
I64
tp3971
a(I73
I64
tp3972
a(I74
I65
tp3973
a(I57
I66
tp3974
a(I65
I66
tp3975
a(I76
I67
tp3976
a(I59
I68
tp3977
a(I67
I68
tp3978
a(I69
I68
tp3979
a(I77
I68
tp3980
a(I60
I69
tp3981
a(I70
I71
tp3982
a(I63
I72
tp3983
a(I71
I72
tp3984
a(I81
I72
tp3985
a(I74
I73
tp3986
a(I66
I75
tp3987
a(I74
I75
tp3988
a(I77
I76
tp3989
a(I69
I78
tp3990
a(I77
I78
tp3991
a(I70
I79
tp3992
a(I71
I80
tp3993
a(I79
I80
tp3994
a(I81
I80
tp3995
atp3996
a(S'Medium (0)'
p3997
I6
(lp3998
(I2
I1
tp3999
a(I2
I3
tp4000
a(I12
I3
tp4001
a(I5
I4
tp4002
a(I13
I4
tp4003
a(I6
I5
tp4004
a(I14
I5
tp4005
a(I15
I6
tp4006
a(I7
I8
tp4007
a(I9
I8
tp4008
a(I17
I8
tp4009
a(I1
I10
tp4010
a(I11
I10
tp4011
a(I19
I10
tp4012
a(I2
I11
tp4013
a(I12
I11
tp4014
a(I14
I13
tp4015
a(I22
I13
tp4016
a(I14
I15
tp4017
a(I7
I16
tp4018
a(I17
I16
tp4019
a(I26
I17
tp4020
a(I9
I18
tp4021
a(I17
I18
tp4022
a(I11
I20
tp4023
a(I19
I20
tp4024
a(I12
I21
tp4025
a(I20
I21
tp4026
a(I14
I23
tp4027
a(I22
I23
tp4028
a(I15
I24
tp4029
a(I23
I24
tp4030
a(I16
I25
tp4031
a(I26
I25
tp4032
a(I18
I27
tp4033
a(I26
I27
tp4034
a(I28
I29
tp4035
a(I29
I30
tp4036
a(I39
I30
tp4037
a(I40
I31
tp4038
a(I31
I32
tp4039
a(I41
I32
tp4040
a(I32
I33
tp4041
a(I42
I33
tp4042
a(I35
I34
tp4043
a(I35
I36
tp4044
a(I45
I36
tp4045
a(I28
I37
tp4046
a(I29
I38
tp4047
a(I37
I38
tp4048
a(I39
I38
tp4049
a(I48
I39
tp4050
a(I49
I40
tp4051
a(I40
I41
tp4052
a(I41
I42
tp4053
a(I51
I42
tp4054
a(I34
I43
tp4055
a(I44
I43
tp4056
a(I52
I43
tp4057
a(I35
I44
tp4058
a(I45
I44
tp4059
a(I53
I44
tp4060
a(I37
I46
tp4061
a(I38
I47
tp4062
a(I46
I47
tp4063
a(I48
I47
tp4064
a(I41
I50
tp4065
a(I49
I50
tp4066
a(I51
I50
tp4067
a(I53
I52
tp4068
a(I45
I54
tp4069
a(I53
I54
tp4070
a(I56
I55
tp4071
a(I64
I55
tp4072
a(I57
I56
tp4073
a(I67
I58
tp4074
a(I58
I59
tp4075
a(I60
I59
tp4076
a(I68
I59
tp4077
a(I70
I61
tp4078
a(I61
I62
tp4079
a(I62
I63
tp4080
a(I72
I63
tp4081
a(I65
I64
tp4082
a(I73
I64
tp4083
a(I56
I65
tp4084
a(I74
I65
tp4085
a(I57
I66
tp4086
a(I65
I66
tp4087
a(I75
I66
tp4088
a(I68
I67
tp4089
a(I77
I68
tp4090
a(I60
I69
tp4091
a(I68
I69
tp4092
a(I78
I69
tp4093
a(I62
I71
tp4094
a(I70
I71
tp4095
a(I72
I71
tp4096
a(I74
I73
tp4097
a(I74
I75
tp4098
a(I67
I76
tp4099
a(I77
I76
tp4100
a(I78
I77
tp4101
a(I70
I79
tp4102
a(I71
I80
tp4103
a(I79
I80
tp4104
a(I81
I80
tp4105
a(I72
I81
tp4106
atp4107
a(S'Medium (0)'
p4108
I7
(lp4109
(I2
I1
tp4110
a(I10
I1
tp4111
a(I3
I2
tp4112
a(I4
I5
tp4113
a(I14
I5
tp4114
a(I5
I6
tp4115
a(I15
I6
tp4116
a(I8
I7
tp4117
a(I16
I7
tp4118
a(I9
I8
tp4119
a(I2
I11
tp4120
a(I10
I11
tp4121
a(I3
I12
tp4122
a(I11
I12
tp4123
a(I21
I12
tp4124
a(I4
I13
tp4125
a(I14
I13
tp4126
a(I22
I13
tp4127
a(I15
I14
tp4128
a(I23
I14
tp4129
a(I24
I15
tp4130
a(I8
I17
tp4131
a(I16
I17
tp4132
a(I18
I17
tp4133
a(I26
I17
tp4134
a(I9
I18
tp4135
a(I10
I19
tp4136
a(I20
I19
tp4137
a(I11
I20
tp4138
a(I21
I20
tp4139
a(I23
I22
tp4140
a(I23
I24
tp4141
a(I16
I25
tp4142
a(I26
I25
tp4143
a(I27
I26
tp4144
a(I18
I27
tp4145
a(I28
I29
tp4146
a(I30
I29
tp4147
a(I38
I29
tp4148
a(I39
I30
tp4149
a(I31
I32
tp4150
a(I32
I33
tp4151
a(I42
I33
tp4152
a(I35
I34
tp4153
a(I44
I35
tp4154
a(I35
I36
tp4155
a(I45
I36
tp4156
a(I28
I37
tp4157
a(I37
I38
tp4158
a(I47
I38
tp4159
a(I38
I39
tp4160
a(I48
I39
tp4161
a(I31
I40
tp4162
a(I32
I41
tp4163
a(I40
I41
tp4164
a(I42
I41
tp4165
a(I50
I41
tp4166
a(I51
I42
tp4167
a(I34
I43
tp4168
a(I44
I43
tp4169
a(I52
I43
tp4170
a(I44
I45
tp4171
a(I37
I46
tp4172
a(I47
I46
tp4173
a(I48
I47
tp4174
a(I40
I49
tp4175
a(I50
I49
tp4176
a(I51
I50
tp4177
a(I44
I53
tp4178
a(I52
I53
tp4179
a(I45
I54
tp4180
a(I53
I54
tp4181
a(I64
I55
tp4182
a(I55
I56
tp4183
a(I57
I56
tp4184
a(I65
I56
tp4185
a(I59
I58
tp4186
a(I60
I59
tp4187
a(I61
I62
tp4188
a(I63
I62
tp4189
a(I71
I62
tp4190
a(I65
I64
tp4191
a(I57
I66
tp4192
a(I65
I66
tp4193
a(I75
I66
tp4194
a(I58
I67
tp4195
a(I68
I67
tp4196
a(I76
I67
tp4197
a(I59
I68
tp4198
a(I60
I69
tp4199
a(I68
I69
tp4200
a(I78
I69
tp4201
a(I61
I70
tp4202
a(I71
I70
tp4203
a(I79
I70
tp4204
a(I80
I71
tp4205
a(I63
I72
tp4206
a(I71
I72
tp4207
a(I64
I73
tp4208
a(I74
I73
tp4209
a(I65
I74
tp4210
a(I75
I74
tp4211
a(I68
I77
tp4212
a(I76
I77
tp4213
a(I78
I77
tp4214
a(I80
I79
tp4215
a(I72
I81
tp4216
a(I80
I81
tp4217
atp4218
a(S'Medium (0)'
p4219
I8
(lp4220
(I2
I1
tp4221
a(I10
I1
tp4222
a(I11
I2
tp4223
a(I2
I3
tp4224
a(I12
I3
tp4225
a(I5
I4
tp4226
a(I6
I5
tp4227
a(I8
I7
tp4228
a(I16
I7
tp4229
a(I8
I9
tp4230
a(I18
I9
tp4231
a(I11
I10
tp4232
a(I11
I12
tp4233
a(I4
I13
tp4234
a(I22
I13
tp4235
a(I5
I14
tp4236
a(I13
I14
tp4237
a(I23
I14
tp4238
a(I6
I15
tp4239
a(I14
I15
tp4240
a(I24
I15
tp4241
a(I17
I16
tp4242
a(I25
I16
tp4243
a(I8
I17
tp4244
a(I18
I17
tp4245
a(I27
I18
tp4246
a(I10
I19
tp4247
a(I20
I19
tp4248
a(I11
I20
tp4249
a(I21
I20
tp4250
a(I12
I21
tp4251
a(I23
I22
tp4252
a(I23
I24
tp4253
a(I17
I26
tp4254
a(I25
I26
tp4255
a(I27
I26
tp4256
a(I29
I28
tp4257
a(I37
I28
tp4258
a(I30
I29
tp4259
a(I31
I32
tp4260
a(I33
I32
tp4261
a(I41
I32
tp4262
a(I42
I33
tp4263
a(I34
I35
tp4264
a(I44
I35
tp4265
a(I35
I36
tp4266
a(I45
I36
tp4267
a(I46
I37
tp4268
a(I29
I38
tp4269
a(I37
I38
tp4270
a(I30
I39
tp4271
a(I38
I39
tp4272
a(I48
I39
tp4273
a(I31
I40
tp4274
a(I41
I40
tp4275
a(I49
I40
tp4276
a(I41
I42
tp4277
a(I51
I42
tp4278
a(I34
I43
tp4279
a(I44
I43
tp4280
a(I52
I43
tp4281
a(I44
I45
tp4282
a(I38
I47
tp4283
a(I46
I47
tp4284
a(I48
I47
tp4285
a(I50
I49
tp4286
a(I41
I50
tp4287
a(I51
I50
tp4288
a(I53
I52
tp4289
a(I44
I53
tp4290
a(I45
I54
tp4291
a(I53
I54
tp4292
a(I64
I55
tp4293
a(I55
I56
tp4294
a(I57
I56
tp4295
a(I65
I56
tp4296
a(I59
I58
tp4297
a(I59
I60
tp4298
a(I69
I60
tp4299
a(I62
I61
tp4300
a(I70
I61
tp4301
a(I63
I62
tp4302
a(I64
I65
tp4303
a(I74
I65
tp4304
a(I57
I66
tp4305
a(I65
I66
tp4306
a(I58
I67
tp4307
a(I59
I68
tp4308
a(I67
I68
tp4309
a(I69
I68
tp4310
a(I77
I68
tp4311
a(I79
I70
tp4312
a(I62
I71
tp4313
a(I70
I71
tp4314
a(I80
I71
tp4315
a(I63
I72
tp4316
a(I71
I72
tp4317
a(I81
I72
tp4318
a(I64
I73
tp4319
a(I74
I73
tp4320
a(I66
I75
tp4321
a(I74
I75
tp4322
a(I67
I76
tp4323
a(I77
I76
tp4324
a(I69
I78
tp4325
a(I77
I78
tp4326
a(I79
I80
tp4327
a(I80
I81
tp4328
atp4329
a(S'Medium (0)'
p4330
I9
(lp4331
(I2
I1
tp4332
a(I10
I1
tp4333
a(I3
I2
tp4334
a(I11
I2
tp4335
a(I4
I5
tp4336
a(I6
I5
tp4337
a(I16
I7
tp4338
a(I7
I8
tp4339
a(I8
I9
tp4340
a(I18
I9
tp4341
a(I11
I10
tp4342
a(I19
I10
tp4343
a(I3
I12
tp4344
a(I11
I12
tp4345
a(I4
I13
tp4346
a(I14
I13
tp4347
a(I5
I14
tp4348
a(I15
I14
tp4349
a(I23
I14
tp4350
a(I6
I15
tp4351
a(I24
I15
tp4352
a(I8
I17
tp4353
a(I16
I17
tp4354
a(I18
I17
tp4355
a(I26
I17
tp4356
a(I11
I20
tp4357
a(I19
I20
tp4358
a(I21
I20
tp4359
a(I12
I21
tp4360
a(I13
I22
tp4361
a(I23
I22
tp4362
a(I24
I23
tp4363
a(I16
I25
tp4364
a(I26
I25
tp4365
a(I18
I27
tp4366
a(I26
I27
tp4367
a(I37
I28
tp4368
a(I28
I29
tp4369
a(I30
I29
tp4370
a(I32
I31
tp4371
a(I40
I31
tp4372
a(I32
I33
tp4373
a(I42
I33
tp4374
a(I43
I34
tp4375
a(I34
I35
tp4376
a(I35
I36
tp4377
a(I45
I36
tp4378
a(I29
I38
tp4379
a(I37
I38
tp4380
a(I39
I38
tp4381
a(I47
I38
tp4382
a(I30
I39
tp4383
a(I48
I39
tp4384
a(I32
I41
tp4385
a(I40
I41
tp4386
a(I50
I41
tp4387
a(I41
I42
tp4388
a(I52
I43
tp4389
a(I35
I44
tp4390
a(I43
I44
tp4391
a(I45
I44
tp4392
a(I53
I44
tp4393
a(I54
I45
tp4394
a(I37
I46
tp4395
a(I47
I46
tp4396
a(I47
I48
tp4397
a(I40
I49
tp4398
a(I50
I49
tp4399
a(I42
I51
tp4400
a(I50
I51
tp4401
a(I52
I53
tp4402
a(I54
I53
tp4403
a(I56
I55
tp4404
a(I65
I56
tp4405
a(I56
I57
tp4406
a(I59
I58
tp4407
a(I67
I58
tp4408
a(I59
I60
tp4409
a(I62
I61
tp4410
a(I70
I61
tp4411
a(I71
I62
tp4412
a(I62
I63
tp4413
a(I72
I63
tp4414
a(I55
I64
tp4415
a(I65
I64
tp4416
a(I73
I64
tp4417
a(I57
I66
tp4418
a(I65
I66
tp4419
a(I75
I66
tp4420
a(I76
I67
tp4421
a(I59
I68
tp4422
a(I67
I68
tp4423
a(I69
I68
tp4424
a(I60
I69
tp4425
a(I70
I71
tp4426
a(I80
I71
tp4427
a(I71
I72
tp4428
a(I81
I72
tp4429
a(I65
I74
tp4430
a(I73
I74
tp4431
a(I75
I74
tp4432
a(I68
I77
tp4433
a(I76
I77
tp4434
a(I78
I77
tp4435
a(I69
I78
tp4436
a(I70
I79
tp4437
a(I80
I79
tp4438
a(I80
I81
tp4439
atp4440
a(S'Hard (0)'
p4441
I0
(lp4442
(I2
I1
tp4443
a(I10
I1
tp4444
a(I2
I3
tp4445
a(I12
I3
tp4446
a(I4
I5
tp4447
a(I6
I5
tp4448
a(I8
I7
tp4449
a(I16
I7
tp4450
a(I8
I9
tp4451
a(I18
I9
tp4452
a(I2
I11
tp4453
a(I10
I11
tp4454
a(I12
I11
tp4455
a(I20
I11
tp4456
a(I4
I13
tp4457
a(I14
I13
tp4458
a(I22
I13
tp4459
a(I5
I14
tp4460
a(I23
I14
tp4461
a(I6
I15
tp4462
a(I14
I15
tp4463
a(I24
I15
tp4464
a(I8
I17
tp4465
a(I16
I17
tp4466
a(I17
I18
tp4467
a(I10
I19
tp4468
a(I19
I20
tp4469
a(I21
I20
tp4470
a(I12
I21
tp4471
a(I23
I22
tp4472
a(I23
I24
tp4473
a(I16
I25
tp4474
a(I17
I26
tp4475
a(I25
I26
tp4476
a(I27
I26
tp4477
a(I18
I27
tp4478
a(I37
I28
tp4479
a(I28
I29
tp4480
a(I38
I29
tp4481
a(I29
I30
tp4482
a(I39
I30
tp4483
a(I32
I31
tp4484
a(I33
I32
tp4485
a(I35
I34
tp4486
a(I43
I34
tp4487
a(I36
I35
tp4488
a(I37
I38
tp4489
a(I47
I38
tp4490
a(I38
I39
tp4491
a(I48
I39
tp4492
a(I31
I40
tp4493
a(I49
I40
tp4494
a(I32
I41
tp4495
a(I40
I41
tp4496
a(I42
I41
tp4497
a(I50
I41
tp4498
a(I33
I42
tp4499
a(I35
I44
tp4500
a(I43
I44
tp4501
a(I45
I44
tp4502
a(I53
I44
tp4503
a(I36
I45
tp4504
a(I54
I45
tp4505
a(I37
I46
tp4506
a(I47
I46
tp4507
a(I47
I48
tp4508
a(I49
I50
tp4509
a(I42
I51
tp4510
a(I50
I51
tp4511
a(I43
I52
tp4512
a(I53
I52
tp4513
a(I54
I53
tp4514
a(I64
I55
tp4515
a(I55
I56
tp4516
a(I57
I56
tp4517
a(I65
I56
tp4518
a(I59
I58
tp4519
a(I67
I58
tp4520
a(I68
I59
tp4521
a(I59
I60
tp4522
a(I69
I60
tp4523
a(I62
I61
tp4524
a(I62
I63
tp4525
a(I64
I65
tp4526
a(I74
I65
tp4527
a(I57
I66
tp4528
a(I65
I66
tp4529
a(I75
I66
tp4530
a(I67
I68
tp4531
a(I68
I69
tp4532
a(I78
I69
tp4533
a(I61
I70
tp4534
a(I71
I70
tp4535
a(I79
I70
tp4536
a(I62
I71
tp4537
a(I80
I71
tp4538
a(I63
I72
tp4539
a(I71
I72
tp4540
a(I81
I72
tp4541
a(I64
I73
tp4542
a(I74
I73
tp4543
a(I75
I74
tp4544
a(I67
I76
tp4545
a(I77
I76
tp4546
a(I68
I77
tp4547
a(I78
I77
tp4548
a(I80
I79
tp4549
a(I80
I81
tp4550
atp4551
a(S'Hard (0)'
p4552
I1
(lp4553
(I2
I1
tp4554
a(I3
I2
tp4555
a(I11
I2
tp4556
a(I4
I5
tp4557
a(I6
I5
tp4558
a(I14
I5
tp4559
a(I15
I6
tp4560
a(I8
I7
tp4561
a(I16
I7
tp4562
a(I9
I8
tp4563
a(I17
I8
tp4564
a(I1
I10
tp4565
a(I11
I10
tp4566
a(I3
I12
tp4567
a(I11
I12
tp4568
a(I21
I12
tp4569
a(I4
I13
tp4570
a(I14
I13
tp4571
a(I22
I13
tp4572
a(I15
I14
tp4573
a(I23
I14
tp4574
a(I24
I15
tp4575
a(I17
I16
tp4576
a(I25
I16
tp4577
a(I18
I17
tp4578
a(I9
I18
tp4579
a(I10
I19
tp4580
a(I20
I19
tp4581
a(I11
I20
tp4582
a(I21
I20
tp4583
a(I22
I23
tp4584
a(I24
I23
tp4585
a(I17
I26
tp4586
a(I25
I26
tp4587
a(I27
I26
tp4588
a(I18
I27
tp4589
a(I29
I28
tp4590
a(I37
I28
tp4591
a(I29
I30
tp4592
a(I39
I30
tp4593
a(I40
I31
tp4594
a(I31
I32
tp4595
a(I33
I32
tp4596
a(I41
I32
tp4597
a(I35
I34
tp4598
a(I43
I34
tp4599
a(I36
I35
tp4600
a(I44
I35
tp4601
a(I46
I37
tp4602
a(I29
I38
tp4603
a(I37
I38
tp4604
a(I39
I38
tp4605
a(I47
I38
tp4606
a(I48
I39
tp4607
a(I40
I41
tp4608
a(I33
I42
tp4609
a(I41
I42
tp4610
a(I43
I44
tp4611
a(I53
I44
tp4612
a(I36
I45
tp4613
a(I44
I45
tp4614
a(I54
I45
tp4615
a(I46
I47
tp4616
a(I47
I48
tp4617
a(I40
I49
tp4618
a(I41
I50
tp4619
a(I49
I50
tp4620
a(I42
I51
tp4621
a(I50
I51
tp4622
a(I43
I52
tp4623
a(I53
I52
tp4624
a(I53
I54
tp4625
a(I55
I56
tp4626
a(I57
I56
tp4627
a(I65
I56
tp4628
a(I66
I57
tp4629
a(I58
I59
tp4630
a(I60
I59
tp4631
a(I68
I59
tp4632
a(I62
I61
tp4633
a(I70
I61
tp4634
a(I62
I63
tp4635
a(I72
I63
tp4636
a(I55
I64
tp4637
a(I65
I64
tp4638
a(I66
I65
tp4639
a(I74
I65
tp4640
a(I58
I67
tp4641
a(I68
I67
tp4642
a(I76
I67
tp4643
a(I77
I68
tp4644
a(I60
I69
tp4645
a(I68
I69
tp4646
a(I78
I69
tp4647
a(I79
I70
tp4648
a(I62
I71
tp4649
a(I70
I71
tp4650
a(I71
I72
tp4651
a(I64
I73
tp4652
a(I74
I73
tp4653
a(I75
I74
tp4654
a(I66
I75
tp4655
a(I77
I76
tp4656
a(I77
I78
tp4657
a(I71
I80
tp4658
a(I79
I80
tp4659
a(I81
I80
tp4660
a(I72
I81
tp4661
atp4662
a(S'Hard (0)'
p4663
I2
(lp4664
(I2
I1
tp4665
a(I10
I1
tp4666
a(I3
I2
tp4667
a(I5
I4
tp4668
a(I13
I4
tp4669
a(I14
I5
tp4670
a(I5
I6
tp4671
a(I7
I8
tp4672
a(I17
I8
tp4673
a(I8
I9
tp4674
a(I18
I9
tp4675
a(I19
I10
tp4676
a(I2
I11
tp4677
a(I10
I11
tp4678
a(I20
I11
tp4679
a(I3
I12
tp4680
a(I11
I12
tp4681
a(I13
I14
tp4682
a(I6
I15
tp4683
a(I14
I15
tp4684
a(I24
I15
tp4685
a(I7
I16
tp4686
a(I17
I16
tp4687
a(I18
I17
tp4688
a(I27
I18
tp4689
a(I20
I19
tp4690
a(I12
I21
tp4691
a(I20
I21
tp4692
a(I13
I22
tp4693
a(I23
I22
tp4694
a(I14
I23
tp4695
a(I23
I24
tp4696
a(I16
I25
tp4697
a(I26
I25
tp4698
a(I17
I26
tp4699
a(I27
I26
tp4700
a(I29
I28
tp4701
a(I29
I30
tp4702
a(I39
I30
tp4703
a(I31
I32
tp4704
a(I33
I32
tp4705
a(I41
I32
tp4706
a(I42
I33
tp4707
a(I34
I35
tp4708
a(I36
I35
tp4709
a(I44
I35
tp4710
a(I45
I36
tp4711
a(I28
I37
tp4712
a(I38
I37
tp4713
a(I29
I38
tp4714
a(I39
I38
tp4715
a(I31
I40
tp4716
a(I41
I40
tp4717
a(I49
I40
tp4718
a(I42
I41
tp4719
a(I50
I41
tp4720
a(I34
I43
tp4721
a(I52
I43
tp4722
a(I43
I44
tp4723
a(I45
I44
tp4724
a(I53
I44
tp4725
a(I54
I45
tp4726
a(I37
I46
tp4727
a(I47
I46
tp4728
a(I38
I47
tp4729
a(I39
I48
tp4730
a(I47
I48
tp4731
a(I49
I50
tp4732
a(I51
I50
tp4733
a(I42
I51
tp4734
a(I52
I53
tp4735
a(I54
I53
tp4736
a(I64
I55
tp4737
a(I55
I56
tp4738
a(I56
I57
tp4739
a(I66
I57
tp4740
a(I59
I58
tp4741
a(I67
I58
tp4742
a(I59
I60
tp4743
a(I62
I61
tp4744
a(I70
I61
tp4745
a(I71
I62
tp4746
a(I62
I63
tp4747
a(I72
I63
tp4748
a(I56
I65
tp4749
a(I64
I65
tp4750
a(I66
I65
tp4751
a(I74
I65
tp4752
a(I75
I66
tp4753
a(I59
I68
tp4754
a(I67
I68
tp4755
a(I60
I69
tp4756
a(I68
I69
tp4757
a(I78
I69
tp4758
a(I71
I70
tp4759
a(I80
I71
tp4760
a(I71
I72
tp4761
a(I81
I72
tp4762
a(I64
I73
tp4763
a(I73
I74
tp4764
a(I75
I74
tp4765
a(I67
I76
tp4766
a(I68
I77
tp4767
a(I76
I77
tp4768
a(I78
I77
tp4769
a(I70
I79
tp4770
a(I80
I79
tp4771
a(I80
I81
tp4772
atp4773
a(S'Hard (0)'
p4774
I3
(lp4775
(I2
I1
tp4776
a(I3
I2
tp4777
a(I5
I4
tp4778
a(I5
I6
tp4779
a(I15
I6
tp4780
a(I8
I7
tp4781
a(I16
I7
tp4782
a(I9
I8
tp4783
a(I17
I8
tp4784
a(I1
I10
tp4785
a(I11
I10
tp4786
a(I19
I10
tp4787
a(I2
I11
tp4788
a(I12
I11
tp4789
a(I3
I12
tp4790
a(I4
I13
tp4791
a(I14
I13
tp4792
a(I22
I13
tp4793
a(I5
I14
tp4794
a(I15
I14
tp4795
a(I23
I14
tp4796
a(I16
I17
tp4797
a(I9
I18
tp4798
a(I17
I18
tp4799
a(I27
I18
tp4800
a(I11
I20
tp4801
a(I19
I20
tp4802
a(I12
I21
tp4803
a(I20
I21
tp4804
a(I22
I23
tp4805
a(I15
I24
tp4806
a(I23
I24
tp4807
a(I16
I25
tp4808
a(I26
I25
tp4809
a(I17
I26
tp4810
a(I27
I26
tp4811
a(I37
I28
tp4812
a(I28
I29
tp4813
a(I30
I29
tp4814
a(I38
I29
tp4815
a(I39
I30
tp4816
a(I31
I32
tp4817
a(I33
I32
tp4818
a(I34
I35
tp4819
a(I44
I35
tp4820
a(I35
I36
tp4821
a(I37
I38
tp4822
a(I39
I38
tp4823
a(I47
I38
tp4824
a(I48
I39
tp4825
a(I31
I40
tp4826
a(I49
I40
tp4827
a(I32
I41
tp4828
a(I40
I41
tp4829
a(I42
I41
tp4830
a(I50
I41
tp4831
a(I33
I42
tp4832
a(I34
I43
tp4833
a(I44
I43
tp4834
a(I52
I43
tp4835
a(I36
I45
tp4836
a(I44
I45
tp4837
a(I54
I45
tp4838
a(I37
I46
tp4839
a(I47
I46
tp4840
a(I48
I47
tp4841
a(I50
I49
tp4842
a(I42
I51
tp4843
a(I50
I51
tp4844
a(I44
I53
tp4845
a(I52
I53
tp4846
a(I54
I53
tp4847
a(I56
I55
tp4848
a(I64
I55
tp4849
a(I57
I56
tp4850
a(I65
I56
tp4851
a(I58
I59
tp4852
a(I59
I60
tp4853
a(I61
I62
tp4854
a(I63
I62
tp4855
a(I71
I62
tp4856
a(I65
I64
tp4857
a(I73
I64
tp4858
a(I57
I66
tp4859
a(I65
I66
tp4860
a(I58
I67
tp4861
a(I68
I67
tp4862
a(I76
I67
tp4863
a(I59
I68
tp4864
a(I60
I69
tp4865
a(I68
I69
tp4866
a(I78
I69
tp4867
a(I61
I70
tp4868
a(I71
I70
tp4869
a(I63
I72
tp4870
a(I71
I72
tp4871
a(I74
I73
tp4872
a(I65
I74
tp4873
a(I66
I75
tp4874
a(I74
I75
tp4875
a(I68
I77
tp4876
a(I76
I77
tp4877
a(I78
I77
tp4878
a(I70
I79
tp4879
a(I80
I79
tp4880
a(I71
I80
tp4881
a(I81
I80
tp4882
a(I72
I81
tp4883
atp4884
a(S'Hard (0)'
p4885
I4
(lp4886
(I2
I1
tp4887
a(I10
I1
tp4888
a(I11
I2
tp4889
a(I2
I3
tp4890
a(I12
I3
tp4891
a(I4
I5
tp4892
a(I6
I5
tp4893
a(I14
I5
tp4894
a(I7
I8
tp4895
a(I9
I8
tp4896
a(I18
I9
tp4897
a(I19
I10
tp4898
a(I10
I11
tp4899
a(I11
I12
tp4900
a(I4
I13
tp4901
a(I14
I13
tp4902
a(I22
I13
tp4903
a(I15
I14
tp4904
a(I23
I14
tp4905
a(I6
I15
tp4906
a(I24
I15
tp4907
a(I7
I16
tp4908
a(I25
I16
tp4909
a(I8
I17
tp4910
a(I16
I17
tp4911
a(I18
I17
tp4912
a(I11
I20
tp4913
a(I19
I20
tp4914
a(I12
I21
tp4915
a(I20
I21
tp4916
a(I22
I23
tp4917
a(I23
I24
tp4918
a(I17
I26
tp4919
a(I25
I26
tp4920
a(I27
I26
tp4921
a(I18
I27
tp4922
a(I29
I28
tp4923
a(I37
I28
tp4924
a(I30
I29
tp4925
a(I39
I30
tp4926
a(I32
I31
tp4927
a(I32
I33
tp4928
a(I35
I34
tp4929
a(I43
I34
tp4930
a(I36
I35
tp4931
a(I44
I35
tp4932
a(I29
I38
tp4933
a(I37
I38
tp4934
a(I39
I38
tp4935
a(I47
I38
tp4936
a(I48
I39
tp4937
a(I31
I40
tp4938
a(I32
I41
tp4939
a(I40
I41
tp4940
a(I50
I41
tp4941
a(I33
I42
tp4942
a(I41
I42
tp4943
a(I51
I42
tp4944
a(I43
I44
tp4945
a(I36
I45
tp4946
a(I44
I45
tp4947
a(I54
I45
tp4948
a(I37
I46
tp4949
a(I47
I46
tp4950
a(I48
I47
tp4951
a(I40
I49
tp4952
a(I50
I49
tp4953
a(I50
I51
tp4954
a(I43
I52
tp4955
a(I53
I52
tp4956
a(I44
I53
tp4957
a(I54
I53
tp4958
a(I56
I55
tp4959
a(I56
I57
tp4960
a(I66
I57
tp4961
a(I67
I58
tp4962
a(I58
I59
tp4963
a(I60
I59
tp4964
a(I68
I59
tp4965
a(I61
I62
tp4966
a(I71
I62
tp4967
a(I62
I63
tp4968
a(I55
I64
tp4969
a(I65
I64
tp4970
a(I73
I64
tp4971
a(I56
I65
tp4972
a(I65
I66
tp4973
a(I75
I66
tp4974
a(I67
I68
tp4975
a(I60
I69
tp4976
a(I68
I69
tp4977
a(I78
I69
tp4978
a(I61
I70
tp4979
a(I71
I70
tp4980
a(I79
I70
tp4981
a(I80
I71
tp4982
a(I63
I72
tp4983
a(I71
I72
tp4984
a(I81
I72
tp4985
a(I65
I74
tp4986
a(I73
I74
tp4987
a(I75
I74
tp4988
a(I67
I76
tp4989
a(I77
I76
tp4990
a(I68
I77
tp4991
a(I77
I78
tp4992
a(I80
I79
tp4993
a(I80
I81
tp4994
atp4995
a(S'Hard (0)'
p4996
I5
(lp4997
(I1
I2
tp4998
a(I3
I2
tp4999
a(I11
I2
tp5000
a(I13
I4
tp5001
a(I4
I5
tp5002
a(I6
I5
tp5003
a(I14
I5
tp5004
a(I15
I6
tp5005
a(I8
I7
tp5006
a(I16
I7
tp5007
a(I8
I9
tp5008
a(I1
I10
tp5009
a(I11
I10
tp5010
a(I20
I11
tp5011
a(I3
I12
tp5012
a(I11
I12
tp5013
a(I21
I12
tp5014
a(I14
I13
tp5015
a(I22
I13
tp5016
a(I14
I15
tp5017
a(I25
I16
tp5018
a(I8
I17
tp5019
a(I16
I17
tp5020
a(I18
I17
tp5021
a(I26
I17
tp5022
a(I9
I18
tp5023
a(I27
I18
tp5024
a(I10
I19
tp5025
a(I20
I19
tp5026
a(I20
I21
tp5027
a(I14
I23
tp5028
a(I22
I23
tp5029
a(I24
I23
tp5030
a(I15
I24
tp5031
a(I25
I26
tp5032
a(I27
I26
tp5033
a(I28
I29
tp5034
a(I30
I29
tp5035
a(I32
I31
tp5036
a(I40
I31
tp5037
a(I32
I33
tp5038
a(I42
I33
tp5039
a(I34
I35
tp5040
a(I36
I35
tp5041
a(I44
I35
tp5042
a(I45
I36
tp5043
a(I28
I37
tp5044
a(I46
I37
tp5045
a(I29
I38
tp5046
a(I37
I38
tp5047
a(I39
I38
tp5048
a(I47
I38
tp5049
a(I30
I39
tp5050
a(I48
I39
tp5051
a(I41
I40
tp5052
a(I49
I40
tp5053
a(I32
I41
tp5054
a(I41
I42
tp5055
a(I51
I42
tp5056
a(I34
I43
tp5057
a(I44
I43
tp5058
a(I44
I45
tp5059
a(I46
I47
tp5060
a(I48
I47
tp5061
a(I50
I49
tp5062
a(I41
I50
tp5063
a(I51
I50
tp5064
a(I43
I52
tp5065
a(I53
I52
tp5066
a(I44
I53
tp5067
a(I45
I54
tp5068
a(I53
I54
tp5069
a(I56
I55
tp5070
a(I64
I55
tp5071
a(I56
I57
tp5072
a(I67
I58
tp5073
a(I58
I59
tp5074
a(I59
I60
tp5075
a(I69
I60
tp5076
a(I62
I61
tp5077
a(I70
I61
tp5078
a(I62
I63
tp5079
a(I56
I65
tp5080
a(I64
I65
tp5081
a(I57
I66
tp5082
a(I65
I66
tp5083
a(I59
I68
tp5084
a(I67
I68
tp5085
a(I69
I68
tp5086
a(I77
I68
tp5087
a(I62
I71
tp5088
a(I70
I71
tp5089
a(I72
I71
tp5090
a(I80
I71
tp5091
a(I63
I72
tp5092
a(I81
I72
tp5093
a(I64
I73
tp5094
a(I74
I73
tp5095
a(I65
I74
tp5096
a(I66
I75
tp5097
a(I74
I75
tp5098
a(I67
I76
tp5099
a(I76
I77
tp5100
a(I69
I78
tp5101
a(I77
I78
tp5102
a(I70
I79
tp5103
a(I79
I80
tp5104
a(I81
I80
tp5105
atp5106
a(S'Hard (0)'
p5107
I6
(lp5108
(I1
I2
tp5109
a(I3
I2
tp5110
a(I5
I4
tp5111
a(I13
I4
tp5112
a(I5
I6
tp5113
a(I15
I6
tp5114
a(I16
I7
tp5115
a(I7
I8
tp5116
a(I9
I8
tp5117
a(I17
I8
tp5118
a(I18
I9
tp5119
a(I1
I10
tp5120
a(I11
I10
tp5121
a(I19
I10
tp5122
a(I2
I11
tp5123
a(I12
I11
tp5124
a(I3
I12
tp5125
a(I21
I12
tp5126
a(I5
I14
tp5127
a(I13
I14
tp5128
a(I23
I14
tp5129
a(I14
I15
tp5130
a(I16
I17
tp5131
a(I18
I17
tp5132
a(I26
I17
tp5133
a(I27
I18
tp5134
a(I11
I20
tp5135
a(I19
I20
tp5136
a(I21
I20
tp5137
a(I13
I22
tp5138
a(I23
I22
tp5139
a(I15
I24
tp5140
a(I23
I24
tp5141
a(I16
I25
tp5142
a(I25
I26
tp5143
a(I27
I26
tp5144
a(I29
I28
tp5145
a(I38
I29
tp5146
a(I29
I30
tp5147
a(I39
I30
tp5148
a(I40
I31
tp5149
a(I31
I32
tp5150
a(I33
I32
tp5151
a(I41
I32
tp5152
a(I35
I34
tp5153
a(I43
I34
tp5154
a(I44
I35
tp5155
a(I35
I36
tp5156
a(I28
I37
tp5157
a(I38
I37
tp5158
a(I38
I39
tp5159
a(I48
I39
tp5160
a(I49
I40
tp5161
a(I40
I41
tp5162
a(I42
I41
tp5163
a(I33
I42
tp5164
a(I51
I42
tp5165
a(I44
I43
tp5166
a(I36
I45
tp5167
a(I44
I45
tp5168
a(I54
I45
tp5169
a(I37
I46
tp5170
a(I47
I46
tp5171
a(I38
I47
tp5172
a(I48
I47
tp5173
a(I41
I50
tp5174
a(I49
I50
tp5175
a(I51
I50
tp5176
a(I43
I52
tp5177
a(I53
I52
tp5178
a(I44
I53
tp5179
a(I54
I53
tp5180
a(I56
I55
tp5181
a(I64
I55
tp5182
a(I57
I56
tp5183
a(I59
I58
tp5184
a(I67
I58
tp5185
a(I59
I60
tp5186
a(I69
I60
tp5187
a(I62
I61
tp5188
a(I70
I61
tp5189
a(I62
I63
tp5190
a(I56
I65
tp5191
a(I64
I65
tp5192
a(I66
I65
tp5193
a(I74
I65
tp5194
a(I57
I66
tp5195
a(I68
I67
tp5196
a(I76
I67
tp5197
a(I59
I68
tp5198
a(I69
I68
tp5199
a(I77
I68
tp5200
a(I62
I71
tp5201
a(I70
I71
tp5202
a(I63
I72
tp5203
a(I71
I72
tp5204
a(I81
I72
tp5205
a(I64
I73
tp5206
a(I74
I73
tp5207
a(I66
I75
tp5208
a(I74
I75
tp5209
a(I76
I77
tp5210
a(I78
I77
tp5211
a(I69
I78
tp5212
a(I70
I79
tp5213
a(I80
I79
tp5214
a(I71
I80
tp5215
a(I81
I80
tp5216
atp5217
a(S'Hard (0)'
p5218
I7
(lp5219
(I10
I1
tp5220
a(I1
I2
tp5221
a(I3
I2
tp5222
a(I11
I2
tp5223
a(I13
I4
tp5224
a(I4
I5
tp5225
a(I6
I5
tp5226
a(I14
I5
tp5227
a(I15
I6
tp5228
a(I8
I7
tp5229
a(I16
I7
tp5230
a(I8
I9
tp5231
a(I11
I10
tp5232
a(I3
I12
tp5233
a(I11
I12
tp5234
a(I21
I12
tp5235
a(I13
I14
tp5236
a(I15
I14
tp5237
a(I23
I14
tp5238
a(I25
I16
tp5239
a(I8
I17
tp5240
a(I16
I17
tp5241
a(I18
I17
tp5242
a(I26
I17
tp5243
a(I9
I18
tp5244
a(I27
I18
tp5245
a(I10
I19
tp5246
a(I11
I20
tp5247
a(I19
I20
tp5248
a(I21
I20
tp5249
a(I13
I22
tp5250
a(I22
I23
tp5251
a(I15
I24
tp5252
a(I23
I24
tp5253
a(I25
I26
tp5254
a(I27
I26
tp5255
a(I29
I28
tp5256
a(I29
I30
tp5257
a(I39
I30
tp5258
a(I31
I32
tp5259
a(I41
I32
tp5260
a(I32
I33
tp5261
a(I42
I33
tp5262
a(I35
I34
tp5263
a(I43
I34
tp5264
a(I35
I36
tp5265
a(I45
I36
tp5266
a(I28
I37
tp5267
a(I38
I37
tp5268
a(I29
I38
tp5269
a(I39
I38
tp5270
a(I31
I40
tp5271
a(I41
I40
tp5272
a(I49
I40
tp5273
a(I41
I42
tp5274
a(I51
I42
tp5275
a(I35
I44
tp5276
a(I43
I44
tp5277
a(I45
I44
tp5278
a(I53
I44
tp5279
a(I37
I46
tp5280
a(I47
I46
tp5281
a(I38
I47
tp5282
a(I39
I48
tp5283
a(I47
I48
tp5284
a(I50
I49
tp5285
a(I41
I50
tp5286
a(I51
I50
tp5287
a(I43
I52
tp5288
a(I52
I53
tp5289
a(I45
I54
tp5290
a(I53
I54
tp5291
a(I56
I55
tp5292
a(I64
I55
tp5293
a(I65
I56
tp5294
a(I56
I57
tp5295
a(I66
I57
tp5296
a(I59
I58
tp5297
a(I67
I58
tp5298
a(I59
I60
tp5299
a(I62
I61
tp5300
a(I63
I62
tp5301
a(I71
I62
tp5302
a(I64
I65
tp5303
a(I66
I65
tp5304
a(I76
I67
tp5305
a(I59
I68
tp5306
a(I67
I68
tp5307
a(I69
I68
tp5308
a(I60
I69
tp5309
a(I78
I69
tp5310
a(I61
I70
tp5311
a(I71
I70
tp5312
a(I79
I70
tp5313
a(I80
I71
tp5314
a(I63
I72
tp5315
a(I71
I72
tp5316
a(I81
I72
tp5317
a(I64
I73
tp5318
a(I74
I73
tp5319
a(I65
I74
tp5320
a(I75
I74
tp5321
a(I66
I75
tp5322
a(I68
I77
tp5323
a(I76
I77
tp5324
a(I78
I77
tp5325
a(I80
I79
tp5326
a(I80
I81
tp5327
atp5328
a(S'Hard (0)'
p5329
I8
(lp5330
(I1
I2
tp5331
a(I3
I2
tp5332
a(I11
I2
tp5333
a(I4
I5
tp5334
a(I14
I5
tp5335
a(I5
I6
tp5336
a(I15
I6
tp5337
a(I8
I7
tp5338
a(I16
I7
tp5339
a(I17
I8
tp5340
a(I8
I9
tp5341
a(I1
I10
tp5342
a(I11
I10
tp5343
a(I3
I12
tp5344
a(I11
I12
tp5345
a(I21
I12
tp5346
a(I4
I13
tp5347
a(I14
I13
tp5348
a(I22
I13
tp5349
a(I23
I14
tp5350
a(I14
I15
tp5351
a(I16
I17
tp5352
a(I26
I17
tp5353
a(I9
I18
tp5354
a(I17
I18
tp5355
a(I27
I18
tp5356
a(I10
I19
tp5357
a(I20
I19
tp5358
a(I11
I20
tp5359
a(I21
I20
tp5360
a(I23
I22
tp5361
a(I15
I24
tp5362
a(I23
I24
tp5363
a(I16
I25
tp5364
a(I26
I25
tp5365
a(I26
I27
tp5366
a(I29
I28
tp5367
a(I37
I28
tp5368
a(I29
I30
tp5369
a(I39
I30
tp5370
a(I32
I31
tp5371
a(I32
I33
tp5372
a(I42
I33
tp5373
a(I35
I34
tp5374
a(I43
I34
tp5375
a(I36
I35
tp5376
a(I38
I37
tp5377
a(I29
I38
tp5378
a(I38
I39
tp5379
a(I31
I40
tp5380
a(I49
I40
tp5381
a(I32
I41
tp5382
a(I40
I41
tp5383
a(I42
I41
tp5384
a(I50
I41
tp5385
a(I52
I43
tp5386
a(I35
I44
tp5387
a(I43
I44
tp5388
a(I45
I44
tp5389
a(I53
I44
tp5390
a(I36
I45
tp5391
a(I54
I45
tp5392
a(I37
I46
tp5393
a(I47
I46
tp5394
a(I38
I47
tp5395
a(I39
I48
tp5396
a(I47
I48
tp5397
a(I49
I50
tp5398
a(I42
I51
tp5399
a(I50
I51
tp5400
a(I52
I53
tp5401
a(I54
I53
tp5402
a(I55
I56
tp5403
a(I56
I57
tp5404
a(I58
I59
tp5405
a(I60
I59
tp5406
a(I68
I59
tp5407
a(I69
I60
tp5408
a(I61
I62
tp5409
a(I63
I62
tp5410
a(I71
I62
tp5411
a(I55
I64
tp5412
a(I73
I64
tp5413
a(I56
I65
tp5414
a(I64
I65
tp5415
a(I57
I66
tp5416
a(I65
I66
tp5417
a(I75
I66
tp5418
a(I58
I67
tp5419
a(I68
I67
tp5420
a(I76
I67
tp5421
a(I69
I68
tp5422
a(I77
I68
tp5423
a(I61
I70
tp5424
a(I71
I70
tp5425
a(I63
I72
tp5426
a(I71
I72
tp5427
a(I65
I74
tp5428
a(I73
I74
tp5429
a(I75
I74
tp5430
a(I76
I77
tp5431
a(I69
I78
tp5432
a(I77
I78
tp5433
a(I70
I79
tp5434
a(I80
I79
tp5435
a(I71
I80
tp5436
a(I81
I80
tp5437
a(I72
I81
tp5438
atp5439
a(S'Hard (0)'
p5440
I9
(lp5441
(I2
I1
tp5442
a(I10
I1
tp5443
a(I3
I2
tp5444
a(I11
I2
tp5445
a(I4
I5
tp5446
a(I6
I5
tp5447
a(I14
I5
tp5448
a(I15
I6
tp5449
a(I7
I8
tp5450
a(I9
I8
tp5451
a(I17
I8
tp5452
a(I18
I9
tp5453
a(I10
I11
tp5454
a(I20
I11
tp5455
a(I3
I12
tp5456
a(I11
I12
tp5457
a(I21
I12
tp5458
a(I4
I13
tp5459
a(I14
I13
tp5460
a(I22
I13
tp5461
a(I15
I14
tp5462
a(I23
I14
tp5463
a(I7
I16
tp5464
a(I16
I17
tp5465
a(I18
I17
tp5466
a(I26
I17
tp5467
a(I10
I19
tp5468
a(I20
I19
tp5469
a(I20
I21
tp5470
a(I23
I22
tp5471
a(I15
I24
tp5472
a(I23
I24
tp5473
a(I16
I25
tp5474
a(I26
I25
tp5475
a(I18
I27
tp5476
a(I26
I27
tp5477
a(I28
I29
tp5478
a(I30
I29
tp5479
a(I38
I29
tp5480
a(I39
I30
tp5481
a(I32
I31
tp5482
a(I40
I31
tp5483
a(I32
I33
tp5484
a(I35
I34
tp5485
a(I36
I35
tp5486
a(I44
I35
tp5487
a(I28
I37
tp5488
a(I37
I38
tp5489
a(I39
I38
tp5490
a(I48
I39
tp5491
a(I41
I40
tp5492
a(I32
I41
tp5493
a(I33
I42
tp5494
a(I41
I42
tp5495
a(I51
I42
tp5496
a(I34
I43
tp5497
a(I44
I43
tp5498
a(I52
I43
tp5499
a(I36
I45
tp5500
a(I44
I45
tp5501
a(I54
I45
tp5502
a(I37
I46
tp5503
a(I47
I46
tp5504
a(I38
I47
tp5505
a(I48
I47
tp5506
a(I40
I49
tp5507
a(I50
I49
tp5508
a(I41
I50
tp5509
a(I50
I51
tp5510
a(I53
I52
tp5511
a(I44
I53
tp5512
a(I53
I54
tp5513
a(I55
I56
tp5514
a(I57
I56
tp5515
a(I65
I56
tp5516
a(I66
I57
tp5517
a(I58
I59
tp5518
a(I60
I59
tp5519
a(I62
I61
tp5520
a(I62
I63
tp5521
a(I72
I63
tp5522
a(I55
I64
tp5523
a(I65
I64
tp5524
a(I65
I66
tp5525
a(I58
I67
tp5526
a(I76
I67
tp5527
a(I59
I68
tp5528
a(I67
I68
tp5529
a(I77
I68
tp5530
a(I60
I69
tp5531
a(I68
I69
tp5532
a(I78
I69
tp5533
a(I61
I70
tp5534
a(I71
I70
tp5535
a(I79
I70
tp5536
a(I62
I71
tp5537
a(I72
I71
tp5538
a(I64
I73
tp5539
a(I74
I73
tp5540
a(I65
I74
tp5541
a(I66
I75
tp5542
a(I74
I75
tp5543
a(I76
I77
tp5544
a(I78
I77
tp5545
a(I71
I80
tp5546
a(I79
I80
tp5547
a(I81
I80
tp5548
a(I72
I81
tp5549
atp5550
a(S'Harder (0)'
p5551
I0
(lp5552
(I10
I1
tp5553
a(I1
I2
tp5554
a(I3
I2
tp5555
a(I11
I2
tp5556
a(I4
I5
tp5557
a(I6
I5
tp5558
a(I14
I5
tp5559
a(I8
I7
tp5560
a(I16
I7
tp5561
a(I9
I8
tp5562
a(I17
I8
tp5563
a(I18
I9
tp5564
a(I19
I10
tp5565
a(I10
I11
tp5566
a(I3
I12
tp5567
a(I11
I12
tp5568
a(I21
I12
tp5569
a(I4
I13
tp5570
a(I14
I13
tp5571
a(I22
I13
tp5572
a(I15
I14
tp5573
a(I23
I14
tp5574
a(I6
I15
tp5575
a(I24
I15
tp5576
a(I17
I16
tp5577
a(I17
I18
tp5578
a(I11
I20
tp5579
a(I19
I20
tp5580
a(I21
I20
tp5581
a(I22
I23
tp5582
a(I24
I23
tp5583
a(I16
I25
tp5584
a(I17
I26
tp5585
a(I25
I26
tp5586
a(I27
I26
tp5587
a(I18
I27
tp5588
a(I29
I28
tp5589
a(I37
I28
tp5590
a(I29
I30
tp5591
a(I39
I30
tp5592
a(I32
I31
tp5593
a(I33
I32
tp5594
a(I41
I32
tp5595
a(I34
I35
tp5596
a(I44
I35
tp5597
a(I35
I36
tp5598
a(I45
I36
tp5599
a(I29
I38
tp5600
a(I37
I38
tp5601
a(I38
I39
tp5602
a(I48
I39
tp5603
a(I31
I40
tp5604
a(I41
I40
tp5605
a(I49
I40
tp5606
a(I33
I42
tp5607
a(I41
I42
tp5608
a(I34
I43
tp5609
a(I52
I43
tp5610
a(I43
I44
tp5611
a(I53
I44
tp5612
a(I44
I45
tp5613
a(I54
I45
tp5614
a(I37
I46
tp5615
a(I38
I47
tp5616
a(I46
I47
tp5617
a(I48
I47
tp5618
a(I41
I50
tp5619
a(I49
I50
tp5620
a(I51
I50
tp5621
a(I42
I51
tp5622
a(I52
I53
tp5623
a(I53
I54
tp5624
a(I56
I55
tp5625
a(I65
I56
tp5626
a(I56
I57
tp5627
a(I66
I57
tp5628
a(I58
I59
tp5629
a(I59
I60
tp5630
a(I62
I61
tp5631
a(I70
I61
tp5632
a(I71
I62
tp5633
a(I62
I63
tp5634
a(I72
I63
tp5635
a(I55
I64
tp5636
a(I65
I64
tp5637
a(I73
I64
tp5638
a(I66
I65
tp5639
a(I58
I67
tp5640
a(I59
I68
tp5641
a(I67
I68
tp5642
a(I77
I68
tp5643
a(I60
I69
tp5644
a(I68
I69
tp5645
a(I71
I70
tp5646
a(I79
I70
tp5647
a(I71
I72
tp5648
a(I81
I72
tp5649
a(I74
I73
tp5650
a(I65
I74
tp5651
a(I75
I74
tp5652
a(I66
I75
tp5653
a(I67
I76
tp5654
a(I77
I76
tp5655
a(I69
I78
tp5656
a(I77
I78
tp5657
a(I71
I80
tp5658
a(I79
I80
tp5659
a(I81
I80
tp5660
atp5661
a(S'Harder (0)'
p5662
I1
(lp5663
(I2
I1
tp5664
a(I10
I1
tp5665
a(I11
I2
tp5666
a(I2
I3
tp5667
a(I12
I3
tp5668
a(I4
I5
tp5669
a(I6
I5
tp5670
a(I14
I5
tp5671
a(I8
I7
tp5672
a(I8
I9
tp5673
a(I18
I9
tp5674
a(I10
I11
tp5675
a(I12
I11
tp5676
a(I4
I13
tp5677
a(I14
I13
tp5678
a(I22
I13
tp5679
a(I23
I14
tp5680
a(I6
I15
tp5681
a(I14
I15
tp5682
a(I7
I16
tp5683
a(I17
I16
tp5684
a(I25
I16
tp5685
a(I8
I17
tp5686
a(I18
I17
tp5687
a(I26
I17
tp5688
a(I27
I18
tp5689
a(I10
I19
tp5690
a(I11
I20
tp5691
a(I19
I20
tp5692
a(I21
I20
tp5693
a(I12
I21
tp5694
a(I23
I22
tp5695
a(I15
I24
tp5696
a(I23
I24
tp5697
a(I25
I26
tp5698
a(I27
I26
tp5699
a(I29
I28
tp5700
a(I37
I28
tp5701
a(I30
I29
tp5702
a(I38
I29
tp5703
a(I31
I32
tp5704
a(I33
I32
tp5705
a(I42
I33
tp5706
a(I35
I34
tp5707
a(I35
I36
tp5708
a(I45
I36
tp5709
a(I38
I37
tp5710
a(I46
I37
tp5711
a(I30
I39
tp5712
a(I38
I39
tp5713
a(I48
I39
tp5714
a(I31
I40
tp5715
a(I32
I41
tp5716
a(I40
I41
tp5717
a(I42
I41
tp5718
a(I50
I41
tp5719
a(I34
I43
tp5720
a(I52
I43
tp5721
a(I35
I44
tp5722
a(I43
I44
tp5723
a(I45
I44
tp5724
a(I53
I44
tp5725
a(I54
I45
tp5726
a(I38
I47
tp5727
a(I46
I47
tp5728
a(I48
I47
tp5729
a(I40
I49
tp5730
a(I49
I50
tp5731
a(I42
I51
tp5732
a(I50
I51
tp5733
a(I52
I53
tp5734
a(I54
I53
tp5735
a(I56
I55
tp5736
a(I64
I55
tp5737
a(I57
I56
tp5738
a(I65
I56
tp5739
a(I59
I58
tp5740
a(I67
I58
tp5741
a(I60
I59
tp5742
a(I68
I59
tp5743
a(I62
I61
tp5744
a(I63
I62
tp5745
a(I72
I63
tp5746
a(I65
I64
tp5747
a(I73
I64
tp5748
a(I74
I65
tp5749
a(I57
I66
tp5750
a(I65
I66
tp5751
a(I75
I66
tp5752
a(I67
I68
tp5753
a(I77
I68
tp5754
a(I60
I69
tp5755
a(I68
I69
tp5756
a(I78
I69
tp5757
a(I61
I70
tp5758
a(I71
I70
tp5759
a(I79
I70
tp5760
a(I62
I71
tp5761
a(I72
I71
tp5762
a(I73
I74
tp5763
a(I74
I75
tp5764
a(I67
I76
tp5765
a(I77
I76
tp5766
a(I77
I78
tp5767
a(I71
I80
tp5768
a(I79
I80
tp5769
a(I81
I80
tp5770
a(I72
I81
tp5771
atp5772
a(S'Harder (0)'
p5773
I2
(lp5774
(I10
I1
tp5775
a(I1
I2
tp5776
a(I3
I2
tp5777
a(I11
I2
tp5778
a(I5
I4
tp5779
a(I13
I4
tp5780
a(I5
I6
tp5781
a(I15
I6
tp5782
a(I8
I7
tp5783
a(I16
I7
tp5784
a(I17
I8
tp5785
a(I8
I9
tp5786
a(I10
I11
tp5787
a(I3
I12
tp5788
a(I11
I12
tp5789
a(I21
I12
tp5790
a(I22
I13
tp5791
a(I5
I14
tp5792
a(I13
I14
tp5793
a(I15
I14
tp5794
a(I23
I14
tp5795
a(I24
I15
tp5796
a(I17
I16
tp5797
a(I25
I16
tp5798
a(I9
I18
tp5799
a(I17
I18
tp5800
a(I10
I19
tp5801
a(I11
I20
tp5802
a(I19
I20
tp5803
a(I21
I20
tp5804
a(I22
I23
tp5805
a(I24
I23
tp5806
a(I26
I25
tp5807
a(I17
I26
tp5808
a(I18
I27
tp5809
a(I26
I27
tp5810
a(I29
I28
tp5811
a(I29
I30
tp5812
a(I39
I30
tp5813
a(I32
I31
tp5814
a(I40
I31
tp5815
a(I33
I32
tp5816
a(I41
I32
tp5817
a(I43
I34
tp5818
a(I34
I35
tp5819
a(I35
I36
tp5820
a(I28
I37
tp5821
a(I46
I37
tp5822
a(I29
I38
tp5823
a(I37
I38
tp5824
a(I39
I38
tp5825
a(I41
I40
tp5826
a(I50
I41
tp5827
a(I33
I42
tp5828
a(I41
I42
tp5829
a(I35
I44
tp5830
a(I43
I44
tp5831
a(I45
I44
tp5832
a(I53
I44
tp5833
a(I36
I45
tp5834
a(I54
I45
tp5835
a(I38
I47
tp5836
a(I46
I47
tp5837
a(I39
I48
tp5838
a(I47
I48
tp5839
a(I40
I49
tp5840
a(I50
I49
tp5841
a(I42
I51
tp5842
a(I50
I51
tp5843
a(I43
I52
tp5844
a(I53
I52
tp5845
a(I54
I53
tp5846
a(I56
I55
tp5847
a(I64
I55
tp5848
a(I65
I56
tp5849
a(I56
I57
tp5850
a(I58
I59
tp5851
a(I68
I59
tp5852
a(I59
I60
tp5853
a(I61
I62
tp5854
a(I63
I62
tp5855
a(I64
I65
tp5856
a(I57
I66
tp5857
a(I65
I66
tp5858
a(I75
I66
tp5859
a(I58
I67
tp5860
a(I76
I67
tp5861
a(I67
I68
tp5862
a(I77
I68
tp5863
a(I60
I69
tp5864
a(I68
I69
tp5865
a(I78
I69
tp5866
a(I61
I70
tp5867
a(I62
I71
tp5868
a(I70
I71
tp5869
a(I72
I71
tp5870
a(I63
I72
tp5871
a(I64
I73
tp5872
a(I74
I73
tp5873
a(I65
I74
tp5874
a(I75
I74
tp5875
a(I76
I77
tp5876
a(I78
I77
tp5877
a(I70
I79
tp5878
a(I71
I80
tp5879
a(I79
I80
tp5880
a(I72
I81
tp5881
a(I80
I81
tp5882
atp5883
a(S'Harder (0)'
p5884
I3
(lp5885
(I1
I2
tp5886
a(I11
I2
tp5887
a(I2
I3
tp5888
a(I12
I3
tp5889
a(I4
I5
tp5890
a(I5
I6
tp5891
a(I15
I6
tp5892
a(I16
I7
tp5893
a(I7
I8
tp5894
a(I17
I8
tp5895
a(I8
I9
tp5896
a(I18
I9
tp5897
a(I1
I10
tp5898
a(I11
I10
tp5899
a(I19
I10
tp5900
a(I12
I11
tp5901
a(I20
I11
tp5902
a(I4
I13
tp5903
a(I14
I13
tp5904
a(I22
I13
tp5905
a(I5
I14
tp5906
a(I15
I14
tp5907
a(I24
I15
tp5908
a(I16
I17
tp5909
a(I26
I17
tp5910
a(I17
I18
tp5911
a(I20
I19
tp5912
a(I12
I21
tp5913
a(I20
I21
tp5914
a(I14
I23
tp5915
a(I22
I23
tp5916
a(I24
I23
tp5917
a(I16
I25
tp5918
a(I25
I26
tp5919
a(I18
I27
tp5920
a(I26
I27
tp5921
a(I29
I28
tp5922
a(I30
I29
tp5923
a(I32
I31
tp5924
a(I40
I31
tp5925
a(I32
I33
tp5926
a(I42
I33
tp5927
a(I35
I34
tp5928
a(I44
I35
tp5929
a(I35
I36
tp5930
a(I45
I36
tp5931
a(I28
I37
tp5932
a(I38
I37
tp5933
a(I46
I37
tp5934
a(I29
I38
tp5935
a(I39
I38
tp5936
a(I47
I38
tp5937
a(I30
I39
tp5938
a(I48
I39
tp5939
a(I49
I40
tp5940
a(I32
I41
tp5941
a(I40
I41
tp5942
a(I42
I41
tp5943
a(I34
I43
tp5944
a(I44
I43
tp5945
a(I44
I45
tp5946
a(I46
I47
tp5947
a(I47
I48
tp5948
a(I41
I50
tp5949
a(I49
I50
tp5950
a(I42
I51
tp5951
a(I50
I51
tp5952
a(I43
I52
tp5953
a(I44
I53
tp5954
a(I52
I53
tp5955
a(I54
I53
tp5956
a(I45
I54
tp5957
a(I56
I55
tp5958
a(I64
I55
tp5959
a(I56
I57
tp5960
a(I66
I57
tp5961
a(I58
I59
tp5962
a(I60
I59
tp5963
a(I68
I59
tp5964
a(I70
I61
tp5965
a(I61
I62
tp5966
a(I63
I62
tp5967
a(I71
I62
tp5968
a(I56
I65
tp5969
a(I64
I65
tp5970
a(I66
I65
tp5971
a(I74
I65
tp5972
a(I75
I66
tp5973
a(I58
I67
tp5974
a(I68
I67
tp5975
a(I76
I67
tp5976
a(I60
I69
tp5977
a(I68
I69
tp5978
a(I71
I70
tp5979
a(I63
I72
tp5980
a(I71
I72
tp5981
a(I81
I72
tp5982
a(I64
I73
tp5983
a(I73
I74
tp5984
a(I75
I74
tp5985
a(I77
I76
tp5986
a(I68
I77
tp5987
a(I69
I78
tp5988
a(I77
I78
tp5989
a(I70
I79
tp5990
a(I80
I79
tp5991
a(I71
I80
tp5992
a(I81
I80
tp5993
atp5994
a(S'Harder (0)'
p5995
I4
(lp5996
(I2
I1
tp5997
a(I10
I1
tp5998
a(I3
I2
tp5999
a(I11
I2
tp6000
a(I5
I4
tp6001
a(I6
I5
tp6002
a(I14
I5
tp6003
a(I7
I8
tp6004
a(I9
I8
tp6005
a(I18
I9
tp6006
a(I19
I10
tp6007
a(I10
I11
tp6008
a(I20
I11
tp6009
a(I3
I12
tp6010
a(I11
I12
tp6011
a(I21
I12
tp6012
a(I4
I13
tp6013
a(I14
I13
tp6014
a(I6
I15
tp6015
a(I14
I15
tp6016
a(I7
I16
tp6017
a(I8
I17
tp6018
a(I16
I17
tp6019
a(I18
I17
tp6020
a(I26
I17
tp6021
a(I19
I20
tp6022
a(I20
I21
tp6023
a(I13
I22
tp6024
a(I23
I22
tp6025
a(I14
I23
tp6026
a(I15
I24
tp6027
a(I23
I24
tp6028
a(I16
I25
tp6029
a(I26
I25
tp6030
a(I18
I27
tp6031
a(I26
I27
tp6032
a(I37
I28
tp6033
a(I28
I29
tp6034
a(I30
I29
tp6035
a(I38
I29
tp6036
a(I31
I32
tp6037
a(I32
I33
tp6038
a(I35
I34
tp6039
a(I43
I34
tp6040
a(I36
I35
tp6041
a(I38
I37
tp6042
a(I30
I39
tp6043
a(I38
I39
tp6044
a(I48
I39
tp6045
a(I31
I40
tp6046
a(I32
I41
tp6047
a(I40
I41
tp6048
a(I50
I41
tp6049
a(I33
I42
tp6050
a(I41
I42
tp6051
a(I51
I42
tp6052
a(I44
I43
tp6053
a(I35
I44
tp6054
a(I45
I44
tp6055
a(I36
I45
tp6056
a(I54
I45
tp6057
a(I37
I46
tp6058
a(I47
I46
tp6059
a(I38
I47
tp6060
a(I48
I47
tp6061
a(I40
I49
tp6062
a(I50
I49
tp6063
a(I51
I50
tp6064
a(I43
I52
tp6065
a(I53
I52
tp6066
a(I44
I53
tp6067
a(I54
I53
tp6068
a(I55
I56
tp6069
a(I65
I56
tp6070
a(I56
I57
tp6071
a(I67
I58
tp6072
a(I58
I59
tp6073
a(I60
I59
tp6074
a(I68
I59
tp6075
a(I69
I60
tp6076
a(I62
I61
tp6077
a(I62
I63
tp6078
a(I55
I64
tp6079
a(I65
I64
tp6080
a(I57
I66
tp6081
a(I65
I66
tp6082
a(I75
I66
tp6083
a(I68
I67
tp6084
a(I76
I67
tp6085
a(I69
I68
tp6086
a(I61
I70
tp6087
a(I79
I70
tp6088
a(I62
I71
tp6089
a(I70
I71
tp6090
a(I72
I71
tp6091
a(I80
I71
tp6092
a(I63
I72
tp6093
a(I64
I73
tp6094
a(I74
I73
tp6095
a(I65
I74
tp6096
a(I75
I74
tp6097
a(I68
I77
tp6098
a(I76
I77
tp6099
a(I69
I78
tp6100
a(I77
I78
tp6101
a(I80
I79
tp6102
a(I72
I81
tp6103
a(I80
I81
tp6104
atp6105
a(S'Harder (0)'
p6106
I5
(lp6107
(I1
I2
tp6108
a(I3
I2
tp6109
a(I11
I2
tp6110
a(I12
I3
tp6111
a(I5
I4
tp6112
a(I5
I6
tp6113
a(I15
I6
tp6114
a(I8
I7
tp6115
a(I16
I7
tp6116
a(I9
I8
tp6117
a(I1
I10
tp6118
a(I11
I10
tp6119
a(I19
I10
tp6120
a(I12
I11
tp6121
a(I4
I13
tp6122
a(I5
I14
tp6123
a(I13
I14
tp6124
a(I15
I14
tp6125
a(I23
I14
tp6126
a(I24
I15
tp6127
a(I8
I17
tp6128
a(I16
I17
tp6129
a(I18
I17
tp6130
a(I26
I17
tp6131
a(I9
I18
tp6132
a(I20
I19
tp6133
a(I11
I20
tp6134
a(I21
I20
tp6135
a(I12
I21
tp6136
a(I13
I22
tp6137
a(I23
I22
tp6138
a(I24
I23
tp6139
a(I16
I25
tp6140
a(I26
I25
tp6141
a(I18
I27
tp6142
a(I26
I27
tp6143
a(I28
I29
tp6144
a(I30
I29
tp6145
a(I38
I29
tp6146
a(I31
I32
tp6147
a(I33
I32
tp6148
a(I41
I32
tp6149
a(I42
I33
tp6150
a(I34
I35
tp6151
a(I44
I35
tp6152
a(I35
I36
tp6153
a(I45
I36
tp6154
a(I28
I37
tp6155
a(I38
I37
tp6156
a(I47
I38
tp6157
a(I30
I39
tp6158
a(I38
I39
tp6159
a(I48
I39
tp6160
a(I31
I40
tp6161
a(I41
I40
tp6162
a(I42
I41
tp6163
a(I50
I41
tp6164
a(I34
I43
tp6165
a(I44
I43
tp6166
a(I52
I43
tp6167
a(I44
I45
tp6168
a(I37
I46
tp6169
a(I47
I46
tp6170
a(I47
I48
tp6171
a(I40
I49
tp6172
a(I50
I49
tp6173
a(I51
I50
tp6174
a(I42
I51
tp6175
a(I44
I53
tp6176
a(I52
I53
tp6177
a(I45
I54
tp6178
a(I53
I54
tp6179
a(I55
I56
tp6180
a(I56
I57
tp6181
a(I58
I59
tp6182
a(I68
I59
tp6183
a(I59
I60
tp6184
a(I69
I60
tp6185
a(I62
I61
tp6186
a(I70
I61
tp6187
a(I63
I62
tp6188
a(I71
I62
tp6189
a(I55
I64
tp6190
a(I73
I64
tp6191
a(I56
I65
tp6192
a(I64
I65
tp6193
a(I66
I65
tp6194
a(I74
I65
tp6195
a(I57
I66
tp6196
a(I75
I66
tp6197
a(I58
I67
tp6198
a(I68
I67
tp6199
a(I76
I67
tp6200
a(I68
I69
tp6201
a(I78
I69
tp6202
a(I71
I70
tp6203
a(I79
I70
tp6204
a(I63
I72
tp6205
a(I71
I72
tp6206
a(I73
I74
tp6207
a(I74
I75
tp6208
a(I68
I77
tp6209
a(I76
I77
tp6210
a(I78
I77
tp6211
a(I71
I80
tp6212
a(I79
I80
tp6213
a(I81
I80
tp6214
a(I72
I81
tp6215
atp6216
a(S'Harder (0)'
p6217
I6
(lp6218
(I2
I1
tp6219
a(I10
I1
tp6220
a(I3
I2
tp6221
a(I4
I5
tp6222
a(I6
I5
tp6223
a(I14
I5
tp6224
a(I15
I6
tp6225
a(I8
I7
tp6226
a(I9
I8
tp6227
a(I19
I10
tp6228
a(I2
I11
tp6229
a(I10
I11
tp6230
a(I12
I11
tp6231
a(I3
I12
tp6232
a(I21
I12
tp6233
a(I4
I13
tp6234
a(I14
I13
tp6235
a(I14
I15
tp6236
a(I7
I16
tp6237
a(I17
I16
tp6238
a(I25
I16
tp6239
a(I8
I17
tp6240
a(I18
I17
tp6241
a(I26
I17
tp6242
a(I9
I18
tp6243
a(I27
I18
tp6244
a(I11
I20
tp6245
a(I19
I20
tp6246
a(I21
I20
tp6247
a(I13
I22
tp6248
a(I14
I23
tp6249
a(I22
I23
tp6250
a(I15
I24
tp6251
a(I23
I24
tp6252
a(I26
I25
tp6253
a(I26
I27
tp6254
a(I29
I28
tp6255
a(I29
I30
tp6256
a(I39
I30
tp6257
a(I32
I31
tp6258
a(I40
I31
tp6259
a(I33
I32
tp6260
a(I41
I32
tp6261
a(I43
I34
tp6262
a(I34
I35
tp6263
a(I36
I35
tp6264
a(I44
I35
tp6265
a(I28
I37
tp6266
a(I38
I37
tp6267
a(I29
I38
tp6268
a(I39
I38
tp6269
a(I48
I39
tp6270
a(I40
I41
tp6271
a(I50
I41
tp6272
a(I33
I42
tp6273
a(I41
I42
tp6274
a(I51
I42
tp6275
a(I43
I44
tp6276
a(I36
I45
tp6277
a(I44
I45
tp6278
a(I54
I45
tp6279
a(I37
I46
tp6280
a(I47
I46
tp6281
a(I38
I47
tp6282
a(I48
I47
tp6283
a(I40
I49
tp6284
a(I50
I49
tp6285
a(I51
I50
tp6286
a(I43
I52
tp6287
a(I44
I53
tp6288
a(I52
I53
tp6289
a(I54
I53
tp6290
a(I55
I56
tp6291
a(I65
I56
tp6292
a(I56
I57
tp6293
a(I66
I57
tp6294
a(I59
I58
tp6295
a(I67
I58
tp6296
a(I68
I59
tp6297
a(I59
I60
tp6298
a(I62
I61
tp6299
a(I62
I63
tp6300
a(I55
I64
tp6301
a(I65
I64
tp6302
a(I73
I64
tp6303
a(I74
I65
tp6304
a(I65
I66
tp6305
a(I67
I68
tp6306
a(I60
I69
tp6307
a(I68
I69
tp6308
a(I61
I70
tp6309
a(I71
I70
tp6310
a(I79
I70
tp6311
a(I62
I71
tp6312
a(I63
I72
tp6313
a(I71
I72
tp6314
a(I81
I72
tp6315
a(I74
I73
tp6316
a(I66
I75
tp6317
a(I74
I75
tp6318
a(I67
I76
tp6319
a(I68
I77
tp6320
a(I76
I77
tp6321
a(I78
I77
tp6322
a(I69
I78
tp6323
a(I71
I80
tp6324
a(I79
I80
tp6325
a(I81
I80
tp6326
atp6327
a(S'Harder (0)'
p6328
I7
(lp6329
(I1
I2
tp6330
a(I3
I2
tp6331
a(I11
I2
tp6332
a(I4
I5
tp6333
a(I6
I5
tp6334
a(I14
I5
tp6335
a(I8
I7
tp6336
a(I16
I7
tp6337
a(I8
I9
tp6338
a(I1
I10
tp6339
a(I10
I11
tp6340
a(I3
I12
tp6341
a(I11
I12
tp6342
a(I4
I13
tp6343
a(I13
I14
tp6344
a(I15
I14
tp6345
a(I23
I14
tp6346
a(I6
I15
tp6347
a(I24
I15
tp6348
a(I8
I17
tp6349
a(I16
I17
tp6350
a(I9
I18
tp6351
a(I17
I18
tp6352
a(I27
I18
tp6353
a(I10
I19
tp6354
a(I11
I20
tp6355
a(I19
I20
tp6356
a(I21
I20
tp6357
a(I12
I21
tp6358
a(I13
I22
tp6359
a(I23
I22
tp6360
a(I24
I23
tp6361
a(I16
I25
tp6362
a(I17
I26
tp6363
a(I25
I26
tp6364
a(I26
I27
tp6365
a(I29
I28
tp6366
a(I37
I28
tp6367
a(I29
I30
tp6368
a(I39
I30
tp6369
a(I32
I31
tp6370
a(I40
I31
tp6371
a(I32
I33
tp6372
a(I43
I34
tp6373
a(I34
I35
tp6374
a(I36
I35
tp6375
a(I44
I35
tp6376
a(I38
I37
tp6377
a(I29
I38
tp6378
a(I39
I38
tp6379
a(I49
I40
tp6380
a(I32
I41
tp6381
a(I40
I41
tp6382
a(I50
I41
tp6383
a(I33
I42
tp6384
a(I41
I42
tp6385
a(I51
I42
tp6386
a(I43
I44
tp6387
a(I36
I45
tp6388
a(I44
I45
tp6389
a(I54
I45
tp6390
a(I37
I46
tp6391
a(I47
I46
tp6392
a(I38
I47
tp6393
a(I48
I47
tp6394
a(I39
I48
tp6395
a(I49
I50
tp6396
a(I50
I51
tp6397
a(I43
I52
tp6398
a(I44
I53
tp6399
a(I52
I53
tp6400
a(I54
I53
tp6401
a(I56
I55
tp6402
a(I64
I55
tp6403
a(I65
I56
tp6404
a(I56
I57
tp6405
a(I66
I57
tp6406
a(I58
I59
tp6407
a(I60
I59
tp6408
a(I62
I61
tp6409
a(I62
I63
tp6410
a(I65
I64
tp6411
a(I65
I66
tp6412
a(I58
I67
tp6413
a(I68
I67
tp6414
a(I76
I67
tp6415
a(I59
I68
tp6416
a(I69
I68
tp6417
a(I77
I68
tp6418
a(I60
I69
tp6419
a(I61
I70
tp6420
a(I62
I71
tp6421
a(I70
I71
tp6422
a(I72
I71
tp6423
a(I80
I71
tp6424
a(I63
I72
tp6425
a(I81
I72
tp6426
a(I64
I73
tp6427
a(I74
I73
tp6428
a(I65
I74
tp6429
a(I75
I74
tp6430
a(I66
I75
tp6431
a(I77
I76
tp6432
a(I69
I78
tp6433
a(I77
I78
tp6434
a(I70
I79
tp6435
a(I80
I79
tp6436
a(I80
I81
tp6437
atp6438
a(S'Harder (0)'
p6439
I8
(lp6440
(I2
I1
tp6441
a(I10
I1
tp6442
a(I3
I2
tp6443
a(I5
I4
tp6444
a(I13
I4
tp6445
a(I14
I5
tp6446
a(I5
I6
tp6447
a(I7
I8
tp6448
a(I8
I9
tp6449
a(I18
I9
tp6450
a(I2
I11
tp6451
a(I10
I11
tp6452
a(I12
I11
tp6453
a(I3
I12
tp6454
a(I22
I13
tp6455
a(I13
I14
tp6456
a(I23
I14
tp6457
a(I6
I15
tp6458
a(I14
I15
tp6459
a(I24
I15
tp6460
a(I7
I16
tp6461
a(I8
I17
tp6462
a(I16
I17
tp6463
a(I18
I17
tp6464
a(I26
I17
tp6465
a(I10
I19
tp6466
a(I11
I20
tp6467
a(I19
I20
tp6468
a(I21
I20
tp6469
a(I12
I21
tp6470
a(I22
I23
tp6471
a(I23
I24
tp6472
a(I16
I25
tp6473
a(I25
I26
tp6474
a(I18
I27
tp6475
a(I26
I27
tp6476
a(I29
I28
tp6477
a(I37
I28
tp6478
a(I30
I29
tp6479
a(I38
I29
tp6480
a(I31
I32
tp6481
a(I33
I32
tp6482
a(I41
I32
tp6483
a(I42
I33
tp6484
a(I34
I35
tp6485
a(I36
I35
tp6486
a(I44
I35
tp6487
a(I38
I37
tp6488
a(I46
I37
tp6489
a(I30
I39
tp6490
a(I38
I39
tp6491
a(I48
I39
tp6492
a(I31
I40
tp6493
a(I41
I40
tp6494
a(I41
I42
tp6495
a(I51
I42
tp6496
a(I34
I43
tp6497
a(I44
I43
tp6498
a(I52
I43
tp6499
a(I36
I45
tp6500
a(I44
I45
tp6501
a(I47
I46
tp6502
a(I38
I47
tp6503
a(I48
I47
tp6504
a(I40
I49
tp6505
a(I41
I50
tp6506
a(I49
I50
tp6507
a(I51
I50
tp6508
a(I44
I53
tp6509
a(I52
I53
tp6510
a(I54
I53
tp6511
a(I45
I54
tp6512
a(I55
I56
tp6513
a(I57
I56
tp6514
a(I65
I56
tp6515
a(I66
I57
tp6516
a(I59
I58
tp6517
a(I67
I58
tp6518
a(I59
I60
tp6519
a(I69
I60
tp6520
a(I62
I61
tp6521
a(I70
I61
tp6522
a(I62
I63
tp6523
a(I55
I64
tp6524
a(I65
I64
tp6525
a(I73
I64
tp6526
a(I66
I65
tp6527
a(I74
I65
tp6528
a(I68
I67
tp6529
a(I59
I68
tp6530
a(I69
I68
tp6531
a(I62
I71
tp6532
a(I70
I71
tp6533
a(I80
I71
tp6534
a(I63
I72
tp6535
a(I71
I72
tp6536
a(I81
I72
tp6537
a(I74
I73
tp6538
a(I66
I75
tp6539
a(I74
I75
tp6540
a(I67
I76
tp6541
a(I77
I76
tp6542
a(I68
I77
tp6543
a(I78
I77
tp6544
a(I69
I78
tp6545
a(I70
I79
tp6546
a(I80
I79
tp6547
a(I81
I80
tp6548
atp6549
a(S'Harder (0)'
p6550
I9
(lp6551
(I1
I2
tp6552
a(I2
I3
tp6553
a(I12
I3
tp6554
a(I13
I4
tp6555
a(I4
I5
tp6556
a(I14
I5
tp6557
a(I5
I6
tp6558
a(I15
I6
tp6559
a(I8
I7
tp6560
a(I9
I8
tp6561
a(I1
I10
tp6562
a(I11
I10
tp6563
a(I19
I10
tp6564
a(I2
I11
tp6565
a(I12
I11
tp6566
a(I20
I11
tp6567
a(I13
I14
tp6568
a(I14
I15
tp6569
a(I7
I16
tp6570
a(I17
I16
tp6571
a(I25
I16
tp6572
a(I8
I17
tp6573
a(I9
I18
tp6574
a(I17
I18
tp6575
a(I20
I19
tp6576
a(I12
I21
tp6577
a(I20
I21
tp6578
a(I13
I22
tp6579
a(I23
I22
tp6580
a(I14
I23
tp6581
a(I15
I24
tp6582
a(I23
I24
tp6583
a(I17
I26
tp6584
a(I25
I26
tp6585
a(I18
I27
tp6586
a(I26
I27
tp6587
a(I29
I28
tp6588
a(I37
I28
tp6589
a(I30
I29
tp6590
a(I38
I29
tp6591
a(I39
I30
tp6592
a(I40
I31
tp6593
a(I31
I32
tp6594
a(I33
I32
tp6595
a(I41
I32
tp6596
a(I42
I33
tp6597
a(I35
I34
tp6598
a(I35
I36
tp6599
a(I45
I36
tp6600
a(I38
I37
tp6601
a(I46
I37
tp6602
a(I39
I38
tp6603
a(I40
I41
tp6604
a(I50
I41
tp6605
a(I41
I42
tp6606
a(I51
I42
tp6607
a(I34
I43
tp6608
a(I44
I43
tp6609
a(I52
I43
tp6610
a(I35
I44
tp6611
a(I45
I44
tp6612
a(I53
I44
tp6613
a(I38
I47
tp6614
a(I46
I47
tp6615
a(I39
I48
tp6616
a(I47
I48
tp6617
a(I40
I49
tp6618
a(I50
I49
tp6619
a(I50
I51
tp6620
a(I52
I53
tp6621
a(I45
I54
tp6622
a(I53
I54
tp6623
a(I56
I55
tp6624
a(I64
I55
tp6625
a(I56
I57
tp6626
a(I66
I57
tp6627
a(I59
I58
tp6628
a(I60
I59
tp6629
a(I69
I60
tp6630
a(I61
I62
tp6631
a(I63
I62
tp6632
a(I71
I62
tp6633
a(I72
I63
tp6634
a(I73
I64
tp6635
a(I56
I65
tp6636
a(I64
I65
tp6637
a(I66
I65
tp6638
a(I74
I65
tp6639
a(I58
I67
tp6640
a(I68
I67
tp6641
a(I59
I68
tp6642
a(I69
I68
tp6643
a(I61
I70
tp6644
a(I71
I70
tp6645
a(I79
I70
tp6646
a(I72
I71
tp6647
a(I80
I71
tp6648
a(I73
I74
tp6649
a(I66
I75
tp6650
a(I74
I75
tp6651
a(I67
I76
tp6652
a(I77
I76
tp6653
a(I68
I77
tp6654
a(I78
I77
tp6655
a(I69
I78
tp6656
a(I80
I79
tp6657
a(I81
I80
tp6658
a(I72
I81
tp6659
atp6660
a.