(lp0
(S'Very easy (0)'
p1
I891
(lp2
(I1
I2
tp3
a(I2
I3
tp4
a(I5
I4
tp5
a(I13
I4
tp6
a(I14
I5
tp7
a(I5
I6
tp8
a(I15
I6
tp9
a(I8
I7
tp10
a(I17
I8
tp11
a(I8
I9
tp12
a(I18
I9
tp13
a(I1
I10
tp14
a(I11
I10
tp15
a(I2
I11
tp16
a(I3
I12
tp17
a(I11
I12
tp18
a(I21
I12
tp19
a(I14
I13
tp20
a(I22
I13
tp21
a(I15
I14
tp22
a(I23
I14
tp23
a(I24
I15
tp24
a(I7
I16
tp25
a(I17
I16
tp26
a(I25
I16
tp27
a(I18
I17
tp28
a(I26
I17
tp29
a(I10
I19
tp30
a(I20
I19
tp31
a(I11
I20
tp32
a(I21
I20
tp33
a(I23
I22
tp34
a(I24
I23
tp35
a(I26
I25
tp36
a(I18
I27
tp37
a(I26
I27
tp38
a(I28
I29
tp39
a(I30
I29
tp40
a(I38
I29
tp41
a(I31
I32
tp42
a(I33
I32
tp43
a(I41
I32
tp44
a(I42
I33
tp45
a(I34
I35
tp46
a(I35
I36
tp47
a(I28
I37
tp48
a(I38
I37
tp49
a(I46
I37
tp50
a(I30
I39
tp51
a(I38
I39
tp52
a(I31
I40
tp53
a(I40
I41
tp54
a(I42
I41
tp55
a(I50
I41
tp56
a(I34
I43
tp57
a(I52
I43
tp58
a(I35
I44
tp59
a(I43
I44
tp60
a(I45
I44
tp61
a(I53
I44
tp62
a(I36
I45
tp63
a(I54
I45
tp64
a(I38
I47
tp65
a(I46
I47
tp66
a(I48
I47
tp67
a(I39
I48
tp68
a(I40
I49
tp69
a(I49
I50
tp70
a(I42
I51
tp71
a(I50
I51
tp72
a(I52
I53
tp73
a(I54
I53
tp74
a(I56
I55
tp75
a(I57
I56
tp76
a(I65
I56
tp77
a(I59
I58
tp78
a(I68
I59
tp79
a(I59
I60
tp80
a(I62
I61
tp81
a(I70
I61
tp82
a(I63
I62
tp83
a(I71
I62
tp84
a(I55
I64
tp85
a(I65
I64
tp86
a(I73
I64
tp87
a(I57
I66
tp88
a(I65
I66
tp89
a(I58
I67
tp90
a(I68
I67
tp91
a(I76
I67
tp92
a(I60
I69
tp93
a(I68
I69
tp94
a(I70
I71
tp95
a(I72
I71
tp96
a(I80
I71
tp97
a(I63
I72
tp98
a(I65
I74
tp99
a(I73
I74
tp100
a(I66
I75
tp101
a(I74
I75
tp102
a(I68
I77
tp103
a(I76
I77
tp104
a(I78
I77
tp105
a(I69
I78
tp106
a(I70
I79
tp107
a(I80
I79
tp108
a(I72
I81
tp109
a(I80
I81
tp110
atp111
a(S'Very hard (0)'
p112
I791
(lp113
(I10
I1
tp114
a(I1
I2
tp115
a(I3
I2
tp116
a(I11
I2
tp117
a(I5
I4
tp118
a(I6
I5
tp119
a(I7
I8
tp120
a(I17
I8
tp121
a(I8
I9
tp122
a(I18
I9
tp123
a(I10
I11
tp124
a(I20
I11
tp125
a(I3
I12
tp126
a(I11
I12
tp127
a(I21
I12
tp128
a(I4
I13
tp129
a(I22
I13
tp130
a(I5
I14
tp131
a(I13
I14
tp132
a(I15
I14
tp133
a(I23
I14
tp134
a(I6
I15
tp135
a(I7
I16
tp136
a(I17
I16
tp137
a(I17
I18
tp138
a(I10
I19
tp139
a(I19
I20
tp140
a(I21
I20
tp141
a(I22
I23
tp142
a(I24
I23
tp143
a(I15
I24
tp144
a(I16
I25
tp145
a(I17
I26
tp146
a(I25
I26
tp147
a(I27
I26
tp148
a(I18
I27
tp149
a(I29
I28
tp150
a(I29
I30
tp151
a(I39
I30
tp152
a(I31
I32
tp153
a(I33
I32
tp154
a(I35
I34
tp155
a(I43
I34
tp156
a(I36
I35
tp157
a(I44
I35
tp158
a(I28
I37
tp159
a(I38
I37
tp160
a(I29
I38
tp161
a(I39
I38
tp162
a(I31
I40
tp163
a(I41
I40
tp164
a(I32
I41
tp165
a(I50
I41
tp166
a(I33
I42
tp167
a(I41
I42
tp168
a(I51
I42
tp169
a(I44
I43
tp170
a(I52
I43
tp171
a(I36
I45
tp172
a(I44
I45
tp173
a(I54
I45
tp174
a(I37
I46
tp175
a(I38
I47
tp176
a(I46
I47
tp177
a(I48
I47
tp178
a(I39
I48
tp179
a(I40
I49
tp180
a(I50
I49
tp181
a(I50
I51
tp182
a(I44
I53
tp183
a(I52
I53
tp184
a(I53
I54
tp185
a(I55
I56
tp186
a(I57
I56
tp187
a(I65
I56
tp188
a(I67
I58
tp189
a(I58
I59
tp190
a(I60
I59
tp191
a(I68
I59
tp192
a(I62
I61
tp193
a(I70
I61
tp194
a(I63
I62
tp195
a(I71
I62
tp196
a(I72
I63
tp197
a(I55
I64
tp198
a(I65
I64
tp199
a(I74
I65
tp200
a(I57
I66
tp201
a(I65
I66
tp202
a(I75
I66
tp203
a(I68
I67
tp204
a(I60
I69
tp205
a(I68
I69
tp206
a(I78
I69
tp207
a(I71
I70
tp208
a(I79
I70
tp209
a(I72
I71
tp210
a(I64
I73
tp211
a(I74
I73
tp212
a(I75
I74
tp213
a(I67
I76
tp214
a(I77
I76
tp215
a(I68
I77
tp216
a(I77
I78
tp217
a(I71
I80
tp218
a(I79
I80
tp219
a(I81
I80
tp220
a(I72
I81
tp221
atp222
a(S'Easy (0)'
p223
I636
(lp224
(I2
I1
tp225
a(I3
I2
tp226
a(I11
I2
tp227
a(I4
I5
tp228
a(I5
I6
tp229
a(I15
I6
tp230
a(I8
I7
tp231
a(I16
I7
tp232
a(I9
I8
tp233
a(I18
I9
tp234
a(I1
I10
tp235
a(I11
I10
tp236
a(I19
I10
tp237
a(I3
I12
tp238
a(I11
I12
tp239
a(I21
I12
tp240
a(I4
I13
tp241
a(I14
I13
tp242
a(I5
I14
tp243
a(I15
I14
tp244
a(I17
I16
tp245
a(I25
I16
tp246
a(I8
I17
tp247
a(I18
I17
tp248
a(I26
I17
tp249
a(I20
I19
tp250
a(I11
I20
tp251
a(I21
I20
tp252
a(I13
I22
tp253
a(I23
I22
tp254
a(I14
I23
tp255
a(I24
I23
tp256
a(I15
I24
tp257
a(I25
I26
tp258
a(I18
I27
tp259
a(I26
I27
tp260
a(I28
I29
tp261
a(I29
I30
tp262
a(I39
I30
tp263
a(I32
I31
tp264
a(I40
I31
tp265
a(I33
I32
tp266
a(I35
I34
tp267
a(I36
I35
tp268
a(I44
I35
tp269
a(I28
I37
tp270
a(I46
I37
tp271
a(I29
I38
tp272
a(I37
I38
tp273
a(I39
I38
tp274
a(I47
I38
tp275
a(I32
I41
tp276
a(I40
I41
tp277
a(I42
I41
tp278
a(I50
I41
tp279
a(I33
I42
tp280
a(I34
I43
tp281
a(I44
I43
tp282
a(I52
I43
tp283
a(I36
I45
tp284
a(I44
I45
tp285
a(I46
I47
tp286
a(I39
I48
tp287
a(I47
I48
tp288
a(I40
I49
tp289
a(I50
I49
tp290
a(I51
I50
tp291
a(I42
I51
tp292
a(I44
I53
tp293
a(I52
I53
tp294
a(I45
I54
tp295
a(I53
I54
tp296
a(I55
I56
tp297
a(I57
I56
tp298
a(I65
I56
tp299
a(I59
I58
tp300
a(I67
I58
tp301
a(I59
I60
tp302
a(I61
I62
tp303
a(I63
I62
tp304
a(I71
I62
tp305
a(I72
I63
tp306
a(I55
I64
tp307
a(I65
I64
tp308
a(I74
I65
tp309
a(I57
I66
tp310
a(I65
I66
tp311
a(I75
I66
tp312
a(I68
I67
tp313
a(I76
I67
tp314
a(I59
I68
tp315
a(I60
I69
tp316
a(I68
I69
tp317
a(I78
I69
tp318
a(I61
I70
tp319
a(I71
I70
tp320
a(I79
I70
tp321
a(I71
I72
tp322
a(I64
I73
tp323
a(I74
I73
tp324
a(I74
I75
tp325
a(I68
I77
tp326
a(I76
I77
tp327
a(I78
I77
tp328
a(I71
I80
tp329
a(I79
I80
tp330
a(I81
I80
tp331
a(I72
I81
tp332
atp333
a(S'Very easy (0)'
p334
I413
(lp335
(I10
I1
tp336
a(I1
I2
tp337
a(I11
I2
tp338
a(I2
I3
tp339
a(I12
I3
tp340
a(I4
I5
tp341
a(I5
I6
tp342
a(I15
I6
tp343
a(I8
I7
tp344
a(I17
I8
tp345
a(I8
I9
tp346
a(I10
I11
tp347
a(I12
I11
tp348
a(I21
I12
tp349
a(I4
I13
tp350
a(I14
I13
tp351
a(I22
I13
tp352
a(I5
I14
tp353
a(I15
I14
tp354
a(I23
I14
tp355
a(I7
I16
tp356
a(I17
I16
tp357
a(I25
I16
tp358
a(I26
I17
tp359
a(I9
I18
tp360
a(I17
I18
tp361
a(I27
I18
tp362
a(I10
I19
tp363
a(I11
I20
tp364
a(I19
I20
tp365
a(I21
I20
tp366
a(I23
I22
tp367
a(I15
I24
tp368
a(I23
I24
tp369
a(I25
I26
tp370
a(I26
I27
tp371
a(I29
I28
tp372
a(I29
I30
tp373
a(I40
I31
tp374
a(I31
I32
tp375
a(I33
I32
tp376
a(I41
I32
tp377
a(I42
I33
tp378
a(I35
I34
tp379
a(I43
I34
tp380
a(I35
I36
tp381
a(I45
I36
tp382
a(I28
I37
tp383
a(I38
I37
tp384
a(I46
I37
tp385
a(I29
I38
tp386
a(I47
I38
tp387
a(I30
I39
tp388
a(I38
I39
tp389
a(I48
I39
tp390
a(I41
I40
tp391
a(I41
I42
tp392
a(I51
I42
tp393
a(I35
I44
tp394
a(I43
I44
tp395
a(I45
I44
tp396
a(I47
I46
tp397
a(I48
I47
tp398
a(I40
I49
tp399
a(I50
I49
tp400
a(I41
I50
tp401
a(I50
I51
tp402
a(I43
I52
tp403
a(I53
I52
tp404
a(I44
I53
tp405
a(I54
I53
tp406
a(I45
I54
tp407
a(I56
I55
tp408
a(I64
I55
tp409
a(I57
I56
tp410
a(I65
I56
tp411
a(I58
I59
tp412
a(I60
I59
tp413
a(I68
I59
tp414
a(I69
I60
tp415
a(I61
I62
tp416
a(I63
I62
tp417
a(I64
I65
tp418
a(I74
I65
tp419
a(I57
I66
tp420
a(I65
I66
tp421
a(I75
I66
tp422
a(I58
I67
tp423
a(I68
I67
tp424
a(I76
I67
tp425
a(I69
I68
tp426
a(I61
I70
tp427
a(I62
I71
tp428
a(I70
I71
tp429
a(I72
I71
tp430
a(I80
I71
tp431
a(I63
I72
tp432
a(I64
I73
tp433
a(I74
I73
tp434
a(I74
I75
tp435
a(I68
I77
tp436
a(I76
I77
tp437
a(I78
I77
tp438
a(I69
I78
tp439
a(I70
I79
tp440
a(I79
I80
tp441
a(I81
I80
tp442
a(I72
I81
tp443
atp444
a(S'Very easy (0)'
p445
I15
(lp446
(I2
I1
tp447
a(I3
I2
tp448
a(I11
I2
tp449
a(I12
I3
tp450
a(I5
I4
tp451
a(I5
I6
tp452
a(I15
I6
tp453
a(I7
I8
tp454
a(I9
I8
tp455
a(I17
I8
tp456
a(I1
I10
tp457
a(I11
I10
tp458
a(I19
I10
tp459
a(I20
I11
tp460
a(I11
I12
tp461
a(I4
I13
tp462
a(I14
I13
tp463
a(I5
I14
tp464
a(I15
I14
tp465
a(I7
I16
tp466
a(I17
I16
tp467
a(I25
I16
tp468
a(I9
I18
tp469
a(I17
I18
tp470
a(I27
I18
tp471
a(I20
I19
tp472
a(I12
I21
tp473
a(I20
I21
tp474
a(I13
I22
tp475
a(I23
I22
tp476
a(I14
I23
tp477
a(I24
I23
tp478
a(I15
I24
tp479
a(I17
I26
tp480
a(I25
I26
tp481
a(I27
I26
tp482
a(I28
I29
tp483
a(I30
I29
tp484
a(I38
I29
tp485
a(I39
I30
tp486
a(I31
I32
tp487
a(I41
I32
tp488
a(I32
I33
tp489
a(I42
I33
tp490
a(I35
I34
tp491
a(I44
I35
tp492
a(I35
I36
tp493
a(I28
I37
tp494
a(I37
I38
tp495
a(I39
I38
tp496
a(I47
I38
tp497
a(I31
I40
tp498
a(I41
I40
tp499
a(I41
I42
tp500
a(I51
I42
tp501
a(I34
I43
tp502
a(I44
I43
tp503
a(I52
I43
tp504
a(I53
I44
tp505
a(I36
I45
tp506
a(I44
I45
tp507
a(I37
I46
tp508
a(I47
I46
tp509
a(I39
I48
tp510
a(I47
I48
tp511
a(I40
I49
tp512
a(I50
I49
tp513
a(I41
I50
tp514
a(I51
I50
tp515
a(I53
I52
tp516
a(I45
I54
tp517
a(I53
I54
tp518
a(I55
I56
tp519
a(I57
I56
tp520
a(I65
I56
tp521
a(I58
I59
tp522
a(I60
I59
tp523
a(I69
I60
tp524
a(I61
I62
tp525
a(I63
I62
tp526
a(I72
I63
tp527
a(I55
I64
tp528
a(I64
I65
tp529
a(I74
I65
tp530
a(I57
I66
tp531
a(I65
I66
tp532
a(I58
I67
tp533
a(I76
I67
tp534
a(I59
I68
tp535
a(I67
I68
tp536
a(I69
I68
tp537
a(I77
I68
tp538
a(I61
I70
tp539
a(I71
I70
tp540
a(I79
I70
tp541
a(I62
I71
tp542
a(I72
I71
tp543
a(I80
I71
tp544
a(I64
I73
tp545
a(I74
I73
tp546
a(I66
I75
tp547
a(I74
I75
tp548
a(I76
I77
tp549
a(I69
I78
tp550
a(I77
I78
tp551
a(I80
I79
tp552
a(I72
I81
tp553
a(I80
I81
tp554
atp555
a(S'Easy (0)'
p556
I990
(lp557
(I2
I1
tp558
a(I3
I2
tp559
a(I12
I3
tp560
a(I5
I4
tp561
a(I5
I6
tp562
a(I15
I6
tp563
a(I16
I7
tp564
a(I7
I8
tp565
a(I9
I8
tp566
a(I17
I8
tp567
a(I18
I9
tp568
a(I1
I10
tp569
a(I11
I10
tp570
a(I2
I11
tp571
a(I12
I11
tp572
a(I4
I13
tp573
a(I14
I13
tp574
a(I22
I13
tp575
a(I5
I14
tp576
a(I15
I14
tp577
a(I23
I14
tp578
a(I17
I16
tp579
a(I25
I16
tp580
a(I17
I18
tp581
a(I10
I19
tp582
a(I20
I19
tp583
a(I11
I20
tp584
a(I21
I20
tp585
a(I12
I21
tp586
a(I23
I22
tp587
a(I15
I24
tp588
a(I23
I24
tp589
a(I17
I26
tp590
a(I25
I26
tp591
a(I27
I26
tp592
a(I18
I27
tp593
a(I29
I28
tp594
a(I29
I30
tp595
a(I31
I32
tp596
a(I32
I33
tp597
a(I42
I33
tp598
a(I35
I34
tp599
a(I43
I34
tp600
a(I35
I36
tp601
a(I45
I36
tp602
a(I28
I37
tp603
a(I46
I37
tp604
a(I29
I38
tp605
a(I37
I38
tp606
a(I39
I38
tp607
a(I47
I38
tp608
a(I30
I39
tp609
a(I48
I39
tp610
a(I31
I40
tp611
a(I32
I41
tp612
a(I40
I41
tp613
a(I42
I41
tp614
a(I50
I41
tp615
a(I35
I44
tp616
a(I43
I44
tp617
a(I45
I44
tp618
a(I54
I45
tp619
a(I46
I47
tp620
a(I48
I47
tp621
a(I40
I49
tp622
a(I50
I49
tp623
a(I42
I51
tp624
a(I50
I51
tp625
a(I43
I52
tp626
a(I44
I53
tp627
a(I52
I53
tp628
a(I54
I53
tp629
a(I55
I56
tp630
a(I65
I56
tp631
a(I56
I57
tp632
a(I59
I58
tp633
a(I67
I58
tp634
a(I60
I59
tp635
a(I62
I61
tp636
a(I70
I61
tp637
a(I62
I63
tp638
a(I55
I64
tp639
a(I65
I64
tp640
a(I73
I64
tp641
a(I74
I65
tp642
a(I57
I66
tp643
a(I65
I66
tp644
a(I59
I68
tp645
a(I67
I68
tp646
a(I69
I68
tp647
a(I77
I68
tp648
a(I60
I69
tp649
a(I62
I71
tp650
a(I70
I71
tp651
a(I72
I71
tp652
a(I80
I71
tp653
a(I63
I72
tp654
a(I73
I74
tp655
a(I66
I75
tp656
a(I74
I75
tp657
a(I67
I76
tp658
a(I77
I76
tp659
a(I78
I77
tp660
a(I69
I78
tp661
a(I70
I79
tp662
a(I80
I79
tp663
a(I72
I81
tp664
a(I80
I81
tp665
atp666
a(S'Very hard (0)'
p667
I701
(lp668
(I2
I1
tp669
a(I2
I3
tp670
a(I12
I3
tp671
a(I5
I4
tp672
a(I13
I4
tp673
a(I6
I5
tp674
a(I7
I8
tp675
a(I9
I8
tp676
a(I17
I8
tp677
a(I1
I10
tp678
a(I11
I10
tp679
a(I19
I10
tp680
a(I2
I11
tp681
a(I12
I11
tp682
a(I5
I14
tp683
a(I13
I14
tp684
a(I6
I15
tp685
a(I14
I15
tp686
a(I24
I15
tp687
a(I7
I16
tp688
a(I17
I16
tp689
a(I25
I16
tp690
a(I9
I18
tp691
a(I17
I18
tp692
a(I27
I18
tp693
a(I11
I20
tp694
a(I19
I20
tp695
a(I12
I21
tp696
a(I20
I21
tp697
a(I13
I22
tp698
a(I23
I22
tp699
a(I14
I23
tp700
a(I24
I23
tp701
a(I17
I26
tp702
a(I25
I26
tp703
a(I27
I26
tp704
a(I37
I28
tp705
a(I28
I29
tp706
a(I30
I29
tp707
a(I38
I29
tp708
a(I32
I31
tp709
a(I40
I31
tp710
a(I41
I32
tp711
a(I32
I33
tp712
a(I35
I34
tp713
a(I43
I34
tp714
a(I35
I36
tp715
a(I45
I36
tp716
a(I37
I38
tp717
a(I47
I38
tp718
a(I30
I39
tp719
a(I38
I39
tp720
a(I48
I39
tp721
a(I41
I40
tp722
a(I49
I40
tp723
a(I33
I42
tp724
a(I41
I42
tp725
a(I35
I44
tp726
a(I43
I44
tp727
a(I53
I44
tp728
a(I44
I45
tp729
a(I54
I45
tp730
a(I37
I46
tp731
a(I47
I46
tp732
a(I47
I48
tp733
a(I41
I50
tp734
a(I49
I50
tp735
a(I51
I50
tp736
a(I42
I51
tp737
a(I43
I52
tp738
a(I52
I53
tp739
a(I53
I54
tp740
a(I64
I55
tp741
a(I55
I56
tp742
a(I57
I56
tp743
a(I65
I56
tp744
a(I66
I57
tp745
a(I58
I59
tp746
a(I60
I59
tp747
a(I62
I61
tp748
a(I70
I61
tp749
a(I71
I62
tp750
a(I62
I63
tp751
a(I72
I63
tp752
a(I64
I65
tp753
a(I66
I65
tp754
a(I74
I65
tp755
a(I58
I67
tp756
a(I76
I67
tp757
a(I59
I68
tp758
a(I67
I68
tp759
a(I77
I68
tp760
a(I60
I69
tp761
a(I68
I69
tp762
a(I78
I69
tp763
a(I71
I70
tp764
a(I71
I72
tp765
a(I81
I72
tp766
a(I64
I73
tp767
a(I73
I74
tp768
a(I75
I74
tp769
a(I66
I75
tp770
a(I77
I76
tp771
a(I77
I78
tp772
a(I70
I79
tp773
a(I80
I79
tp774
a(I71
I80
tp775
a(I81
I80
tp776
atp777
a(S'Very easy (0)'
p778
I611
(lp779
(I1
I2
tp780
a(I3
I2
tp781
a(I11
I2
tp782
a(I5
I4
tp783
a(I5
I6
tp784
a(I8
I7
tp785
a(I16
I7
tp786
a(I9
I8
tp787
a(I17
I8
tp788
a(I1
I10
tp789
a(I11
I10
tp790
a(I3
I12
tp791
a(I11
I12
tp792
a(I4
I13
tp793
a(I22
I13
tp794
a(I5
I14
tp795
a(I13
I14
tp796
a(I23
I14
tp797
a(I6
I15
tp798
a(I14
I15
tp799
a(I24
I15
tp800
a(I17
I16
tp801
a(I9
I18
tp802
a(I17
I18
tp803
a(I10
I19
tp804
a(I20
I19
tp805
a(I11
I20
tp806
a(I12
I21
tp807
a(I20
I21
tp808
a(I23
I22
tp809
a(I24
I23
tp810
a(I16
I25
tp811
a(I26
I25
tp812
a(I17
I26
tp813
a(I18
I27
tp814
a(I26
I27
tp815
a(I29
I28
tp816
a(I37
I28
tp817
a(I30
I29
tp818
a(I38
I29
tp819
a(I32
I31
tp820
a(I32
I33
tp821
a(I42
I33
tp822
a(I35
I34
tp823
a(I36
I35
tp824
a(I37
I38
tp825
a(I30
I39
tp826
a(I38
I39
tp827
a(I31
I40
tp828
a(I41
I40
tp829
a(I49
I40
tp830
a(I32
I41
tp831
a(I41
I42
tp832
a(I51
I42
tp833
a(I34
I43
tp834
a(I44
I43
tp835
a(I52
I43
tp836
a(I35
I44
tp837
a(I53
I44
tp838
a(I36
I45
tp839
a(I44
I45
tp840
a(I37
I46
tp841
a(I38
I47
tp842
a(I46
I47
tp843
a(I48
I47
tp844
a(I39
I48
tp845
a(I41
I50
tp846
a(I49
I50
tp847
a(I51
I50
tp848
a(I53
I52
tp849
a(I45
I54
tp850
a(I53
I54
tp851
a(I56
I55
tp852
a(I64
I55
tp853
a(I57
I56
tp854
a(I67
I58
tp855
a(I58
I59
tp856
a(I59
I60
tp857
a(I69
I60
tp858
a(I70
I61
tp859
a(I61
I62
tp860
a(I63
I62
tp861
a(I71
I62
tp862
a(I72
I63
tp863
a(I65
I64
tp864
a(I73
I64
tp865
a(I56
I65
tp866
a(I57
I66
tp867
a(I65
I66
tp868
a(I75
I66
tp869
a(I76
I67
tp870
a(I59
I68
tp871
a(I67
I68
tp872
a(I69
I68
tp873
a(I70
I71
tp874
a(I72
I71
tp875
a(I80
I71
tp876
a(I65
I74
tp877
a(I73
I74
tp878
a(I75
I74
tp879
a(I68
I77
tp880
a(I76
I77
tp881
a(I78
I77
tp882
a(I69
I78
tp883
a(I70
I79
tp884
a(I80
I79
tp885
a(I72
I81
tp886
a(I80
I81
tp887
atp888
a.