(lp0
(S'Very easy (0)'
p1
I153
(lp2
(I1
I2
tp3
a(I3
I2
tp4
a(I11
I2
tp5
a(I12
I3
tp6
a(I13
I4
tp7
a(I4
I5
tp8
a(I6
I5
tp9
a(I14
I5
tp10
a(I8
I7
tp11
a(I16
I7
tp12
a(I9
I8
tp13
a(I1
I10
tp14
a(I10
I11
tp15
a(I12
I11
tp16
a(I20
I11
tp17
a(I14
I13
tp18
a(I22
I13
tp19
a(I6
I15
tp20
a(I14
I15
tp21
a(I24
I15
tp22
a(I8
I17
tp23
a(I16
I17
tp24
a(I18
I17
tp25
a(I9
I18
tp26
a(I27
I18
tp27
a(I10
I19
tp28
a(I20
I19
tp29
a(I12
I21
tp30
a(I20
I21
tp31
a(I23
I22
tp32
a(I14
I23
tp33
a(I23
I24
tp34
a(I16
I25
tp35
a(I26
I25
tp36
a(I17
I26
tp37
a(I27
I26
tp38
a(I29
I28
tp39
a(I37
I28
tp40
a(I30
I29
tp41
a(I32
I31
tp42
a(I40
I31
tp43
a(I33
I32
tp44
a(I41
I32
tp45
a(I43
I34
tp46
a(I34
I35
tp47
a(I36
I35
tp48
a(I38
I37
tp49
a(I46
I37
tp50
a(I29
I38
tp51
a(I39
I38
tp52
a(I47
I38
tp53
a(I30
I39
tp54
a(I48
I39
tp55
a(I40
I41
tp56
a(I42
I41
tp57
a(I33
I42
tp58
a(I35
I44
tp59
a(I43
I44
tp60
a(I45
I44
tp61
a(I53
I44
tp62
a(I36
I45
tp63
a(I54
I45
tp64
a(I47
I46
tp65
a(I48
I47
tp66
a(I40
I49
tp67
a(I50
I49
tp68
a(I41
I50
tp69
a(I51
I50
tp70
a(I42
I51
tp71
a(I43
I52
tp72
a(I53
I52
tp73
a(I53
I54
tp74
a(I55
I56
tp75
a(I65
I56
tp76
a(I56
I57
tp77
a(I66
I57
tp78
a(I59
I58
tp79
a(I67
I58
tp80
a(I59
I60
tp81
a(I69
I60
tp82
a(I62
I61
tp83
a(I62
I63
tp84
a(I55
I64
tp85
a(I64
I65
tp86
a(I65
I66
tp87
a(I59
I68
tp88
a(I67
I68
tp89
a(I69
I68
tp90
a(I77
I68
tp91
a(I78
I69
tp92
a(I61
I70
tp93
a(I62
I71
tp94
a(I70
I71
tp95
a(I80
I71
tp96
a(I63
I72
tp97
a(I71
I72
tp98
a(I64
I73
tp99
a(I74
I73
tp100
a(I65
I74
tp101
a(I66
I75
tp102
a(I74
I75
tp103
a(I67
I76
tp104
a(I77
I76
tp105
a(I77
I78
tp106
a(I70
I79
tp107
a(I80
I79
tp108
a(I72
I81
tp109
a(I80
I81
tp110
atp111
a(S'Harder (0)'
p112
I122
(lp113
(I1
I2
tp114
a(I2
I3
tp115
a(I12
I3
tp116
a(I13
I4
tp117
a(I4
I5
tp118
a(I6
I5
tp119
a(I14
I5
tp120
a(I7
I8
tp121
a(I9
I8
tp122
a(I18
I9
tp123
a(I1
I10
tp124
a(I11
I10
tp125
a(I19
I10
tp126
a(I2
I11
tp127
a(I11
I12
tp128
a(I14
I13
tp129
a(I6
I15
tp130
a(I14
I15
tp131
a(I7
I16
tp132
a(I17
I16
tp133
a(I25
I16
tp134
a(I8
I17
tp135
a(I18
I17
tp136
a(I26
I17
tp137
a(I11
I20
tp138
a(I19
I20
tp139
a(I12
I21
tp140
a(I20
I21
tp141
a(I13
I22
tp142
a(I14
I23
tp143
a(I22
I23
tp144
a(I15
I24
tp145
a(I23
I24
tp146
a(I25
I26
tp147
a(I18
I27
tp148
a(I26
I27
tp149
a(I28
I29
tp150
a(I30
I29
tp151
a(I40
I31
tp152
a(I31
I32
tp153
a(I41
I32
tp154
a(I32
I33
tp155
a(I42
I33
tp156
a(I34
I35
tp157
a(I36
I35
tp158
a(I44
I35
tp159
a(I45
I36
tp160
a(I28
I37
tp161
a(I46
I37
tp162
a(I29
I38
tp163
a(I37
I38
tp164
a(I39
I38
tp165
a(I47
I38
tp166
a(I30
I39
tp167
a(I48
I39
tp168
a(I41
I40
tp169
a(I42
I41
tp170
a(I51
I42
tp171
a(I34
I43
tp172
a(I44
I43
tp173
a(I45
I44
tp174
a(I46
I47
tp175
a(I47
I48
tp176
a(I40
I49
tp177
a(I50
I49
tp178
a(I41
I50
tp179
a(I51
I50
tp180
a(I43
I52
tp181
a(I44
I53
tp182
a(I52
I53
tp183
a(I54
I53
tp184
a(I45
I54
tp185
a(I56
I55
tp186
a(I64
I55
tp187
a(I57
I56
tp188
a(I65
I56
tp189
a(I58
I59
tp190
a(I59
I60
tp191
a(I62
I61
tp192
a(I70
I61
tp193
a(I71
I62
tp194
a(I62
I63
tp195
a(I65
I64
tp196
a(I57
I66
tp197
a(I65
I66
tp198
a(I75
I66
tp199
a(I58
I67
tp200
a(I68
I67
tp201
a(I76
I67
tp202
a(I59
I68
tp203
a(I60
I69
tp204
a(I68
I69
tp205
a(I78
I69
tp206
a(I70
I71
tp207
a(I80
I71
tp208
a(I63
I72
tp209
a(I71
I72
tp210
a(I81
I72
tp211
a(I64
I73
tp212
a(I65
I74
tp213
a(I73
I74
tp214
a(I75
I74
tp215
a(I68
I77
tp216
a(I76
I77
tp217
a(I78
I77
tp218
a(I70
I79
tp219
a(I80
I79
tp220
a(I80
I81
tp221
atp222
a(S'Very hard (0)'
p223
I61
(lp224
(I2
I1
tp225
a(I11
I2
tp226
a(I2
I3
tp227
a(I12
I3
tp228
a(I4
I5
tp229
a(I5
I6
tp230
a(I15
I6
tp231
a(I16
I7
tp232
a(I7
I8
tp233
a(I9
I8
tp234
a(I17
I8
tp235
a(I1
I10
tp236
a(I11
I10
tp237
a(I19
I10
tp238
a(I12
I11
tp239
a(I4
I13
tp240
a(I14
I13
tp241
a(I5
I14
tp242
a(I23
I14
tp243
a(I14
I15
tp244
a(I24
I15
tp245
a(I25
I16
tp246
a(I16
I17
tp247
a(I18
I17
tp248
a(I26
I17
tp249
a(I9
I18
tp250
a(I20
I19
tp251
a(I11
I20
tp252
a(I21
I20
tp253
a(I12
I21
tp254
a(I13
I22
tp255
a(I23
I22
tp256
a(I23
I24
tp257
a(I25
I26
tp258
a(I18
I27
tp259
a(I26
I27
tp260
a(I37
I28
tp261
a(I28
I29
tp262
a(I30
I29
tp263
a(I38
I29
tp264
a(I31
I32
tp265
a(I33
I32
tp266
a(I35
I34
tp267
a(I35
I36
tp268
a(I45
I36
tp269
a(I38
I37
tp270
a(I30
I39
tp271
a(I38
I39
tp272
a(I31
I40
tp273
a(I49
I40
tp274
a(I32
I41
tp275
a(I40
I41
tp276
a(I42
I41
tp277
a(I50
I41
tp278
a(I33
I42
tp279
a(I34
I43
tp280
a(I44
I43
tp281
a(I35
I44
tp282
a(I44
I45
tp283
a(I54
I45
tp284
a(I37
I46
tp285
a(I38
I47
tp286
a(I46
I47
tp287
a(I39
I48
tp288
a(I47
I48
tp289
a(I50
I49
tp290
a(I42
I51
tp291
a(I50
I51
tp292
a(I43
I52
tp293
a(I53
I52
tp294
a(I44
I53
tp295
a(I54
I53
tp296
a(I64
I55
tp297
a(I55
I56
tp298
a(I57
I56
tp299
a(I65
I56
tp300
a(I58
I59
tp301
a(I60
I59
tp302
a(I68
I59
tp303
a(I70
I61
tp304
a(I61
I62
tp305
a(I71
I62
tp306
a(I62
I63
tp307
a(I72
I63
tp308
a(I73
I64
tp309
a(I64
I65
tp310
a(I66
I65
tp311
a(I74
I65
tp312
a(I57
I66
tp313
a(I75
I66
tp314
a(I58
I67
tp315
a(I67
I68
tp316
a(I77
I68
tp317
a(I60
I69
tp318
a(I68
I69
tp319
a(I78
I69
tp320
a(I71
I70
tp321
a(I72
I71
tp322
a(I73
I74
tp323
a(I74
I75
tp324
a(I67
I76
tp325
a(I77
I76
tp326
a(I78
I77
tp327
a(I70
I79
tp328
a(I80
I79
tp329
a(I71
I80
tp330
a(I81
I80
tp331
a(I72
I81
tp332
atp333
a(S'Very easy (0)'
p334
I268
(lp335
(I1
I2
tp336
a(I2
I3
tp337
a(I12
I3
tp338
a(I4
I5
tp339
a(I5
I6
tp340
a(I15
I6
tp341
a(I8
I7
tp342
a(I16
I7
tp343
a(I17
I8
tp344
a(I8
I9
tp345
a(I18
I9
tp346
a(I1
I10
tp347
a(I2
I11
tp348
a(I10
I11
tp349
a(I12
I11
tp350
a(I20
I11
tp351
a(I21
I12
tp352
a(I4
I13
tp353
a(I5
I14
tp354
a(I13
I14
tp355
a(I23
I14
tp356
a(I14
I15
tp357
a(I16
I17
tp358
a(I17
I18
tp359
a(I27
I18
tp360
a(I10
I19
tp361
a(I19
I20
tp362
a(I21
I20
tp363
a(I13
I22
tp364
a(I23
I22
tp365
a(I15
I24
tp366
a(I23
I24
tp367
a(I16
I25
tp368
a(I17
I26
tp369
a(I25
I26
tp370
a(I27
I26
tp371
a(I29
I28
tp372
a(I37
I28
tp373
a(I30
I29
tp374
a(I38
I29
tp375
a(I32
I31
tp376
a(I33
I32
tp377
a(I41
I32
tp378
a(I35
I34
tp379
a(I43
I34
tp380
a(I36
I35
tp381
a(I44
I35
tp382
a(I38
I37
tp383
a(I46
I37
tp384
a(I30
I39
tp385
a(I38
I39
tp386
a(I48
I39
tp387
a(I31
I40
tp388
a(I41
I40
tp389
a(I49
I40
tp390
a(I33
I42
tp391
a(I41
I42
tp392
a(I44
I43
tp393
a(I53
I44
tp394
a(I36
I45
tp395
a(I44
I45
tp396
a(I54
I45
tp397
a(I38
I47
tp398
a(I46
I47
tp399
a(I48
I47
tp400
a(I41
I50
tp401
a(I49
I50
tp402
a(I51
I50
tp403
a(I42
I51
tp404
a(I43
I52
tp405
a(I53
I52
tp406
a(I53
I54
tp407
a(I56
I55
tp408
a(I57
I56
tp409
a(I67
I58
tp410
a(I58
I59
tp411
a(I60
I59
tp412
a(I68
I59
tp413
a(I69
I60
tp414
a(I70
I61
tp415
a(I61
I62
tp416
a(I63
I62
tp417
a(I72
I63
tp418
a(I55
I64
tp419
a(I65
I64
tp420
a(I73
I64
tp421
a(I56
I65
tp422
a(I74
I65
tp423
a(I57
I66
tp424
a(I65
I66
tp425
a(I68
I67
tp426
a(I76
I67
tp427
a(I69
I68
tp428
a(I79
I70
tp429
a(I62
I71
tp430
a(I70
I71
tp431
a(I72
I71
tp432
a(I80
I71
tp433
a(I73
I74
tp434
a(I66
I75
tp435
a(I74
I75
tp436
a(I68
I77
tp437
a(I76
I77
tp438
a(I78
I77
tp439
a(I69
I78
tp440
a(I79
I80
tp441
a(I81
I80
tp442
a(I72
I81
tp443
atp444
a(S'Very easy (0)'
p445
I759
(lp446
(I10
I1
tp447
a(I1
I2
tp448
a(I3
I2
tp449
a(I11
I2
tp450
a(I5
I4
tp451
a(I13
I4
tp452
a(I6
I5
tp453
a(I16
I7
tp454
a(I7
I8
tp455
a(I17
I8
tp456
a(I8
I9
tp457
a(I18
I9
tp458
a(I19
I10
tp459
a(I10
I11
tp460
a(I3
I12
tp461
a(I11
I12
tp462
a(I5
I14
tp463
a(I13
I14
tp464
a(I15
I14
tp465
a(I23
I14
tp466
a(I6
I15
tp467
a(I17
I16
tp468
a(I17
I18
tp469
a(I27
I18
tp470
a(I11
I20
tp471
a(I19
I20
tp472
a(I21
I20
tp473
a(I12
I21
tp474
a(I13
I22
tp475
a(I23
I22
tp476
a(I15
I24
tp477
a(I23
I24
tp478
a(I16
I25
tp479
a(I26
I25
tp480
a(I17
I26
tp481
a(I27
I26
tp482
a(I28
I29
tp483
a(I30
I29
tp484
a(I38
I29
tp485
a(I39
I30
tp486
a(I31
I32
tp487
a(I41
I32
tp488
a(I32
I33
tp489
a(I42
I33
tp490
a(I34
I35
tp491
a(I35
I36
tp492
a(I45
I36
tp493
a(I28
I37
tp494
a(I37
I38
tp495
a(I39
I38
tp496
a(I47
I38
tp497
a(I48
I39
tp498
a(I31
I40
tp499
a(I41
I40
tp500
a(I49
I40
tp501
a(I41
I42
tp502
a(I51
I42
tp503
a(I34
I43
tp504
a(I44
I43
tp505
a(I52
I43
tp506
a(I35
I44
tp507
a(I45
I44
tp508
a(I37
I46
tp509
a(I47
I46
tp510
a(I48
I47
tp511
a(I41
I50
tp512
a(I49
I50
tp513
a(I51
I50
tp514
a(I53
I52
tp515
a(I44
I53
tp516
a(I54
I53
tp517
a(I45
I54
tp518
a(I56
I55
tp519
a(I57
I56
tp520
a(I65
I56
tp521
a(I58
I59
tp522
a(I60
I59
tp523
a(I68
I59
tp524
a(I69
I60
tp525
a(I61
I62
tp526
a(I63
I62
tp527
a(I71
I62
tp528
a(I72
I63
tp529
a(I55
I64
tp530
a(I65
I64
tp531
a(I57
I66
tp532
a(I65
I66
tp533
a(I75
I66
tp534
a(I58
I67
tp535
a(I67
I68
tp536
a(I77
I68
tp537
a(I68
I69
tp538
a(I78
I69
tp539
a(I61
I70
tp540
a(I70
I71
tp541
a(I72
I71
tp542
a(I80
I71
tp543
a(I81
I72
tp544
a(I64
I73
tp545
a(I74
I73
tp546
a(I65
I74
tp547
a(I74
I75
tp548
a(I67
I76
tp549
a(I77
I76
tp550
a(I77
I78
tp551
a(I70
I79
tp552
a(I80
I79
tp553
a(I81
I80
tp554
atp555
a(S'Very easy (0)'
p556
I642
(lp557
(I2
I1
tp558
a(I10
I1
tp559
a(I3
I2
tp560
a(I12
I3
tp561
a(I5
I4
tp562
a(I13
I4
tp563
a(I6
I5
tp564
a(I14
I5
tp565
a(I8
I7
tp566
a(I16
I7
tp567
a(I8
I9
tp568
a(I2
I11
tp569
a(I10
I11
tp570
a(I12
I11
tp571
a(I21
I12
tp572
a(I14
I13
tp573
a(I22
I13
tp574
a(I6
I15
tp575
a(I14
I15
tp576
a(I17
I16
tp577
a(I8
I17
tp578
a(I9
I18
tp579
a(I17
I18
tp580
a(I27
I18
tp581
a(I10
I19
tp582
a(I11
I20
tp583
a(I19
I20
tp584
a(I21
I20
tp585
a(I23
I22
tp586
a(I14
I23
tp587
a(I15
I24
tp588
a(I23
I24
tp589
a(I16
I25
tp590
a(I26
I25
tp591
a(I17
I26
tp592
a(I27
I26
tp593
a(I29
I28
tp594
a(I29
I30
tp595
a(I39
I30
tp596
a(I32
I31
tp597
a(I40
I31
tp598
a(I32
I33
tp599
a(I42
I33
tp600
a(I35
I34
tp601
a(I43
I34
tp602
a(I36
I35
tp603
a(I45
I36
tp604
a(I28
I37
tp605
a(I38
I37
tp606
a(I46
I37
tp607
a(I29
I38
tp608
a(I39
I38
tp609
a(I47
I38
tp610
a(I32
I41
tp611
a(I40
I41
tp612
a(I42
I41
tp613
a(I50
I41
tp614
a(I35
I44
tp615
a(I43
I44
tp616
a(I45
I44
tp617
a(I53
I44
tp618
a(I54
I45
tp619
a(I47
I46
tp620
a(I39
I48
tp621
a(I47
I48
tp622
a(I40
I49
tp623
a(I49
I50
tp624
a(I51
I50
tp625
a(I42
I51
tp626
a(I43
I52
tp627
a(I52
I53
tp628
a(I54
I53
tp629
a(I56
I55
tp630
a(I64
I55
tp631
a(I56
I57
tp632
a(I66
I57
tp633
a(I58
I59
tp634
a(I59
I60
tp635
a(I62
I61
tp636
a(I70
I61
tp637
a(I62
I63
tp638
a(I56
I65
tp639
a(I64
I65
tp640
a(I66
I65
tp641
a(I74
I65
tp642
a(I75
I66
tp643
a(I58
I67
tp644
a(I59
I68
tp645
a(I67
I68
tp646
a(I60
I69
tp647
a(I68
I69
tp648
a(I78
I69
tp649
a(I71
I70
tp650
a(I79
I70
tp651
a(I62
I71
tp652
a(I63
I72
tp653
a(I71
I72
tp654
a(I64
I73
tp655
a(I74
I73
tp656
a(I75
I74
tp657
a(I67
I76
tp658
a(I77
I76
tp659
a(I68
I77
tp660
a(I78
I77
tp661
a(I71
I80
tp662
a(I79
I80
tp663
a(I81
I80
tp664
a(I72
I81
tp665
atp666
a(S'Very easy (0)'
p667
I63
(lp668
(I2
I1
tp669
a(I3
I2
tp670
a(I12
I3
tp671
a(I4
I5
tp672
a(I6
I5
tp673
a(I14
I5
tp674
a(I15
I6
tp675
a(I8
I7
tp676
a(I9
I8
tp677
a(I1
I10
tp678
a(I11
I10
tp679
a(I2
I11
tp680
a(I12
I11
tp681
a(I20
I11
tp682
a(I4
I13
tp683
a(I14
I13
tp684
a(I14
I15
tp685
a(I24
I15
tp686
a(I7
I16
tp687
a(I17
I16
tp688
a(I25
I16
tp689
a(I8
I17
tp690
a(I18
I17
tp691
a(I9
I18
tp692
a(I27
I18
tp693
a(I10
I19
tp694
a(I20
I19
tp695
a(I12
I21
tp696
a(I20
I21
tp697
a(I13
I22
tp698
a(I14
I23
tp699
a(I22
I23
tp700
a(I24
I23
tp701
a(I17
I26
tp702
a(I25
I26
tp703
a(I27
I26
tp704
a(I37
I28
tp705
a(I28
I29
tp706
a(I30
I29
tp707
a(I38
I29
tp708
a(I32
I31
tp709
a(I32
I33
tp710
a(I42
I33
tp711
a(I34
I35
tp712
a(I44
I35
tp713
a(I35
I36
tp714
a(I45
I36
tp715
a(I37
I38
tp716
a(I47
I38
tp717
a(I30
I39
tp718
a(I38
I39
tp719
a(I48
I39
tp720
a(I31
I40
tp721
a(I41
I40
tp722
a(I32
I41
tp723
a(I42
I41
tp724
a(I34
I43
tp725
a(I52
I43
tp726
a(I43
I44
tp727
a(I45
I44
tp728
a(I53
I44
tp729
a(I37
I46
tp730
a(I46
I47
tp731
a(I47
I48
tp732
a(I40
I49
tp733
a(I50
I49
tp734
a(I41
I50
tp735
a(I51
I50
tp736
a(I42
I51
tp737
a(I52
I53
tp738
a(I45
I54
tp739
a(I53
I54
tp740
a(I55
I56
tp741
a(I57
I56
tp742
a(I65
I56
tp743
a(I66
I57
tp744
a(I67
I58
tp745
a(I58
I59
tp746
a(I60
I59
tp747
a(I68
I59
tp748
a(I62
I61
tp749
a(I62
I63
tp750
a(I55
I64
tp751
a(I65
I64
tp752
a(I74
I65
tp753
a(I65
I66
tp754
a(I67
I68
tp755
a(I60
I69
tp756
a(I68
I69
tp757
a(I61
I70
tp758
a(I79
I70
tp759
a(I62
I71
tp760
a(I70
I71
tp761
a(I72
I71
tp762
a(I80
I71
tp763
a(I63
I72
tp764
a(I81
I72
tp765
a(I64
I73
tp766
a(I74
I73
tp767
a(I66
I75
tp768
a(I74
I75
tp769
a(I67
I76
tp770
a(I77
I76
tp771
a(I68
I77
tp772
a(I69
I78
tp773
a(I77
I78
tp774
a(I79
I80
tp775
a(I80
I81
tp776
atp777
a(S'Very easy (0)'
p778
I230
(lp779
(I1
I2
tp780
a(I11
I2
tp781
a(I2
I3
tp782
a(I12
I3
tp783
a(I5
I4
tp784
a(I13
I4
tp785
a(I5
I6
tp786
a(I7
I8
tp787
a(I8
I9
tp788
a(I1
I10
tp789
a(I10
I11
tp790
a(I11
I12
tp791
a(I5
I14
tp792
a(I13
I14
tp793
a(I23
I14
tp794
a(I6
I15
tp795
a(I14
I15
tp796
a(I24
I15
tp797
a(I7
I16
tp798
a(I25
I16
tp799
a(I8
I17
tp800
a(I16
I17
tp801
a(I9
I18
tp802
a(I17
I18
tp803
a(I10
I19
tp804
a(I20
I19
tp805
a(I11
I20
tp806
a(I12
I21
tp807
a(I20
I21
tp808
a(I13
I22
tp809
a(I23
I22
tp810
a(I23
I24
tp811
a(I17
I26
tp812
a(I25
I26
tp813
a(I18
I27
tp814
a(I26
I27
tp815
a(I29
I28
tp816
a(I29
I30
tp817
a(I40
I31
tp818
a(I31
I32
tp819
a(I33
I32
tp820
a(I41
I32
tp821
a(I42
I33
tp822
a(I34
I35
tp823
a(I36
I35
tp824
a(I44
I35
tp825
a(I45
I36
tp826
a(I28
I37
tp827
a(I38
I37
tp828
a(I46
I37
tp829
a(I29
I38
tp830
a(I39
I38
tp831
a(I30
I39
tp832
a(I41
I40
tp833
a(I49
I40
tp834
a(I42
I41
tp835
a(I34
I43
tp836
a(I44
I43
tp837
a(I52
I43
tp838
a(I44
I45
tp839
a(I54
I45
tp840
a(I38
I47
tp841
a(I46
I47
tp842
a(I48
I47
tp843
a(I39
I48
tp844
a(I41
I50
tp845
a(I49
I50
tp846
a(I51
I50
tp847
a(I42
I51
tp848
a(I44
I53
tp849
a(I52
I53
tp850
a(I54
I53
tp851
a(I56
I55
tp852
a(I64
I55
tp853
a(I57
I56
tp854
a(I59
I58
tp855
a(I67
I58
tp856
a(I59
I60
tp857
a(I62
I61
tp858
a(I70
I61
tp859
a(I63
I62
tp860
a(I71
I62
tp861
a(I73
I64
tp862
a(I56
I65
tp863
a(I64
I65
tp864
a(I66
I65
tp865
a(I74
I65
tp866
a(I57
I66
tp867
a(I75
I66
tp868
a(I59
I68
tp869
a(I67
I68
tp870
a(I60
I69
tp871
a(I68
I69
tp872
a(I78
I69
tp873
a(I71
I70
tp874
a(I63
I72
tp875
a(I71
I72
tp876
a(I74
I73
tp877
a(I75
I74
tp878
a(I67
I76
tp879
a(I68
I77
tp880
a(I76
I77
tp881
a(I78
I77
tp882
a(I70
I79
tp883
a(I80
I79
tp884
a(I71
I80
tp885
a(I81
I80
tp886
a(I72
I81
tp887
atp888
a.