(lp0
(S'Super easy (0)'
p1
I0
(lp2
(I2
I1
tp3
a(I2
I3
tp4
a(I12
I3
tp5
a(I13
I4
tp6
a(I4
I5
tp7
a(I6
I5
tp8
a(I14
I5
tp9
a(I15
I6
tp10
a(I8
I7
tp11
a(I9
I8
tp12
a(I18
I9
tp13
a(I1
I10
tp14
a(I11
I10
tp15
a(I19
I10
tp16
a(I2
I11
tp17
a(I12
I11
tp18
a(I21
I12
tp19
a(I14
I13
tp20
a(I14
I15
tp21
a(I7
I16
tp22
a(I8
I17
tp23
a(I16
I17
tp24
a(I18
I17
tp25
a(I26
I17
tp26
a(I27
I18
tp27
a(I11
I20
tp28
a(I19
I20
tp29
a(I21
I20
tp30
a(I13
I22
tp31
a(I14
I23
tp32
a(I22
I23
tp33
a(I24
I23
tp34
a(I15
I24
tp35
a(I16
I25
tp36
a(I26
I25
tp37
a(I26
I27
tp38
a(I28
I29
tp39
a(I29
I30
tp40
a(I39
I30
tp41
a(I31
I32
tp42
a(I41
I32
tp43
a(I32
I33
tp44
a(I42
I33
tp45
a(I43
I34
tp46
a(I34
I35
tp47
a(I44
I35
tp48
a(I35
I36
tp49
a(I45
I36
tp50
a(I28
I37
tp51
a(I38
I37
tp52
a(I46
I37
tp53
a(I29
I38
tp54
a(I39
I38
tp55
a(I47
I38
tp56
a(I31
I40
tp57
a(I41
I40
tp58
a(I49
I40
tp59
a(I50
I41
tp60
a(I41
I42
tp61
a(I43
I44
tp62
a(I44
I45
tp63
a(I47
I46
tp64
a(I48
I47
tp65
a(I39
I48
tp66
a(I49
I50
tp67
a(I42
I51
tp68
a(I50
I51
tp69
a(I43
I52
tp70
a(I44
I53
tp71
a(I52
I53
tp72
a(I54
I53
tp73
a(I45
I54
tp74
a(I64
I55
tp75
a(I55
I56
tp76
a(I65
I56
tp77
a(I56
I57
tp78
a(I59
I58
tp79
a(I67
I58
tp80
a(I59
I60
tp81
a(I69
I60
tp82
a(I62
I61
tp83
a(I70
I61
tp84
a(I63
I62
tp85
a(I65
I64
tp86
a(I73
I64
tp87
a(I57
I66
tp88
a(I65
I66
tp89
a(I75
I66
tp90
a(I68
I67
tp91
a(I76
I67
tp92
a(I59
I68
tp93
a(I69
I68
tp94
a(I62
I71
tp95
a(I70
I71
tp96
a(I63
I72
tp97
a(I71
I72
tp98
a(I81
I72
tp99
a(I74
I73
tp100
a(I65
I74
tp101
a(I75
I74
tp102
a(I68
I77
tp103
a(I76
I77
tp104
a(I78
I77
tp105
a(I69
I78
tp106
a(I70
I79
tp107
a(I80
I79
tp108
a(I71
I80
tp109
a(I80
I81
tp110
atp111
a(S'Very easy (0)'
p112
I0
(lp113
(I1
I2
tp114
a(I3
I2
tp115
a(I11
I2
tp116
a(I4
I5
tp117
a(I6
I5
tp118
a(I14
I5
tp119
a(I7
I8
tp120
a(I17
I8
tp121
a(I8
I9
tp122
a(I18
I9
tp123
a(I1
I10
tp124
a(I10
I11
tp125
a(I12
I11
tp126
a(I20
I11
tp127
a(I3
I12
tp128
a(I21
I12
tp129
a(I4
I13
tp130
a(I14
I13
tp131
a(I23
I14
tp132
a(I6
I15
tp133
a(I14
I15
tp134
a(I7
I16
tp135
a(I17
I16
tp136
a(I25
I16
tp137
a(I18
I17
tp138
a(I10
I19
tp139
a(I20
I19
tp140
a(I21
I20
tp141
a(I13
I22
tp142
a(I23
I22
tp143
a(I15
I24
tp144
a(I23
I24
tp145
a(I17
I26
tp146
a(I25
I26
tp147
a(I27
I26
tp148
a(I18
I27
tp149
a(I37
I28
tp150
a(I28
I29
tp151
a(I30
I29
tp152
a(I38
I29
tp153
a(I32
I31
tp154
a(I32
I33
tp155
a(I35
I34
tp156
a(I35
I36
tp157
a(I45
I36
tp158
a(I37
I38
tp159
a(I30
I39
tp160
a(I38
I39
tp161
a(I48
I39
tp162
a(I31
I40
tp163
a(I32
I41
tp164
a(I40
I41
tp165
a(I33
I42
tp166
a(I41
I42
tp167
a(I34
I43
tp168
a(I44
I43
tp169
a(I52
I43
tp170
a(I35
I44
tp171
a(I53
I44
tp172
a(I44
I45
tp173
a(I54
I45
tp174
a(I37
I46
tp175
a(I38
I47
tp176
a(I46
I47
tp177
a(I48
I47
tp178
a(I40
I49
tp179
a(I50
I49
tp180
a(I41
I50
tp181
a(I51
I50
tp182
a(I42
I51
tp183
a(I53
I52
tp184
a(I53
I54
tp185
a(I56
I55
tp186
a(I64
I55
tp187
a(I57
I56
tp188
a(I65
I56
tp189
a(I59
I58
tp190
a(I67
I58
tp191
a(I60
I59
tp192
a(I69
I60
tp193
a(I61
I62
tp194
a(I63
I62
tp195
a(I65
I64
tp196
a(I74
I65
tp197
a(I57
I66
tp198
a(I65
I66
tp199
a(I59
I68
tp200
a(I67
I68
tp201
a(I69
I68
tp202
a(I77
I68
tp203
a(I61
I70
tp204
a(I62
I71
tp205
a(I70
I71
tp206
a(I72
I71
tp207
a(I63
I72
tp208
a(I81
I72
tp209
a(I64
I73
tp210
a(I74
I73
tp211
a(I66
I75
tp212
a(I74
I75
tp213
a(I67
I76
tp214
a(I77
I76
tp215
a(I78
I77
tp216
a(I69
I78
tp217
a(I70
I79
tp218
a(I71
I80
tp219
a(I79
I80
tp220
a(I81
I80
tp221
atp222
a(S'Easy (0)'
p223
I0
(lp224
(I1
I2
tp225
a(I11
I2
tp226
a(I2
I3
tp227
a(I12
I3
tp228
a(I13
I4
tp229
a(I4
I5
tp230
a(I6
I5
tp231
a(I14
I5
tp232
a(I7
I8
tp233
a(I9
I8
tp234
a(I1
I10
tp235
a(I11
I10
tp236
a(I19
I10
tp237
a(I12
I11
tp238
a(I13
I14
tp239
a(I6
I15
tp240
a(I14
I15
tp241
a(I24
I15
tp242
a(I7
I16
tp243
a(I8
I17
tp244
a(I16
I17
tp245
a(I18
I17
tp246
a(I26
I17
tp247
a(I9
I18
tp248
a(I11
I20
tp249
a(I19
I20
tp250
a(I21
I20
tp251
a(I12
I21
tp252
a(I13
I22
tp253
a(I14
I23
tp254
a(I22
I23
tp255
a(I23
I24
tp256
a(I16
I25
tp257
a(I25
I26
tp258
a(I18
I27
tp259
a(I26
I27
tp260
a(I29
I28
tp261
a(I37
I28
tp262
a(I29
I30
tp263
a(I39
I30
tp264
a(I31
I32
tp265
a(I33
I32
tp266
a(I41
I32
tp267
a(I35
I34
tp268
a(I43
I34
tp269
a(I35
I36
tp270
a(I45
I36
tp271
a(I38
I37
tp272
a(I46
I37
tp273
a(I29
I38
tp274
a(I39
I38
tp275
a(I31
I40
tp276
a(I41
I40
tp277
a(I49
I40
tp278
a(I50
I41
tp279
a(I33
I42
tp280
a(I41
I42
tp281
a(I51
I42
tp282
a(I44
I43
tp283
a(I35
I44
tp284
a(I53
I44
tp285
a(I44
I45
tp286
a(I54
I45
tp287
a(I38
I47
tp288
a(I46
I47
tp289
a(I48
I47
tp290
a(I39
I48
tp291
a(I50
I49
tp292
a(I50
I51
tp293
a(I43
I52
tp294
a(I53
I52
tp295
a(I54
I53
tp296
a(I56
I55
tp297
a(I64
I55
tp298
a(I56
I57
tp299
a(I58
I59
tp300
a(I59
I60
tp301
a(I69
I60
tp302
a(I61
I62
tp303
a(I63
I62
tp304
a(I71
I62
tp305
a(I56
I65
tp306
a(I64
I65
tp307
a(I57
I66
tp308
a(I65
I66
tp309
a(I58
I67
tp310
a(I59
I68
tp311
a(I67
I68
tp312
a(I69
I68
tp313
a(I77
I68
tp314
a(I61
I70
tp315
a(I71
I70
tp316
a(I79
I70
tp317
a(I63
I72
tp318
a(I71
I72
tp319
a(I81
I72
tp320
a(I64
I73
tp321
a(I65
I74
tp322
a(I73
I74
tp323
a(I75
I74
tp324
a(I66
I75
tp325
a(I67
I76
tp326
a(I77
I76
tp327
a(I78
I77
tp328
a(I69
I78
tp329
a(I71
I80
tp330
a(I79
I80
tp331
a(I81
I80
tp332
atp333
a(S'Medium (0)'
p334
I0
(lp335
(I1
I2
tp336
a(I3
I2
tp337
a(I11
I2
tp338
a(I12
I3
tp339
a(I4
I5
tp340
a(I6
I5
tp341
a(I14
I5
tp342
a(I8
I7
tp343
a(I8
I9
tp344
a(I18
I9
tp345
a(I1
I10
tp346
a(I11
I10
tp347
a(I11
I12
tp348
a(I4
I13
tp349
a(I22
I13
tp350
a(I13
I14
tp351
a(I15
I14
tp352
a(I23
I14
tp353
a(I6
I15
tp354
a(I7
I16
tp355
a(I17
I16
tp356
a(I25
I16
tp357
a(I8
I17
tp358
a(I18
I17
tp359
a(I26
I17
tp360
a(I10
I19
tp361
a(I20
I19
tp362
a(I11
I20
tp363
a(I12
I21
tp364
a(I20
I21
tp365
a(I23
I22
tp366
a(I15
I24
tp367
a(I23
I24
tp368
a(I26
I25
tp369
a(I18
I27
tp370
a(I26
I27
tp371
a(I29
I28
tp372
a(I37
I28
tp373
a(I30
I29
tp374
a(I32
I31
tp375
a(I40
I31
tp376
a(I33
I32
tp377
a(I42
I33
tp378
a(I34
I35
tp379
a(I36
I35
tp380
a(I44
I35
tp381
a(I46
I37
tp382
a(I29
I38
tp383
a(I37
I38
tp384
a(I30
I39
tp385
a(I38
I39
tp386
a(I48
I39
tp387
a(I41
I40
tp388
a(I32
I41
tp389
a(I42
I41
tp390
a(I34
I43
tp391
a(I43
I44
tp392
a(I53
I44
tp393
a(I36
I45
tp394
a(I44
I45
tp395
a(I54
I45
tp396
a(I38
I47
tp397
a(I46
I47
tp398
a(I48
I47
tp399
a(I40
I49
tp400
a(I50
I49
tp401
a(I41
I50
tp402
a(I42
I51
tp403
a(I50
I51
tp404
a(I43
I52
tp405
a(I52
I53
tp406
a(I54
I53
tp407
a(I56
I55
tp408
a(I64
I55
tp409
a(I56
I57
tp410
a(I58
I59
tp411
a(I68
I59
tp412
a(I59
I60
tp413
a(I69
I60
tp414
a(I61
I62
tp415
a(I63
I62
tp416
a(I71
I62
tp417
a(I72
I63
tp418
a(I73
I64
tp419
a(I56
I65
tp420
a(I64
I65
tp421
a(I66
I65
tp422
a(I74
I65
tp423
a(I57
I66
tp424
a(I58
I67
tp425
a(I68
I67
tp426
a(I76
I67
tp427
a(I68
I69
tp428
a(I78
I69
tp429
a(I61
I70
tp430
a(I71
I70
tp431
a(I72
I71
tp432
a(I73
I74
tp433
a(I66
I75
tp434
a(I74
I75
tp435
a(I68
I77
tp436
a(I76
I77
tp437
a(I78
I77
tp438
a(I70
I79
tp439
a(I80
I79
tp440
a(I71
I80
tp441
a(I72
I81
tp442
a(I80
I81
tp443
atp444
a(S'Hard (0)'
p445
I0
(lp446
(I1
I2
tp447
a(I2
I3
tp448
a(I12
I3
tp449
a(I5
I4
tp450
a(I13
I4
tp451
a(I14
I5
tp452
a(I5
I6
tp453
a(I15
I6
tp454
a(I16
I7
tp455
a(I7
I8
tp456
a(I9
I8
tp457
a(I1
I10
tp458
a(I11
I10
tp459
a(I2
I11
tp460
a(I12
I11
tp461
a(I21
I12
tp462
a(I14
I13
tp463
a(I15
I14
tp464
a(I23
I14
tp465
a(I25
I16
tp466
a(I8
I17
tp467
a(I16
I17
tp468
a(I26
I17
tp469
a(I9
I18
tp470
a(I17
I18
tp471
a(I27
I18
tp472
a(I10
I19
tp473
a(I20
I19
tp474
a(I11
I20
tp475
a(I21
I20
tp476
a(I13
I22
tp477
a(I23
I22
tp478
a(I15
I24
tp479
a(I23
I24
tp480
a(I25
I26
tp481
a(I27
I26
tp482
a(I29
I28
tp483
a(I37
I28
tp484
a(I29
I30
tp485
a(I40
I31
tp486
a(I31
I32
tp487
a(I33
I32
tp488
a(I41
I32
tp489
a(I35
I34
tp490
a(I44
I35
tp491
a(I35
I36
tp492
a(I29
I38
tp493
a(I37
I38
tp494
a(I30
I39
tp495
a(I38
I39
tp496
a(I48
I39
tp497
a(I40
I41
tp498
a(I33
I42
tp499
a(I41
I42
tp500
a(I51
I42
tp501
a(I34
I43
tp502
a(I44
I43
tp503
a(I52
I43
tp504
a(I36
I45
tp505
a(I44
I45
tp506
a(I54
I45
tp507
a(I37
I46
tp508
a(I38
I47
tp509
a(I46
I47
tp510
a(I48
I47
tp511
a(I40
I49
tp512
a(I41
I50
tp513
a(I49
I50
tp514
a(I51
I50
tp515
a(I53
I52
tp516
a(I44
I53
tp517
a(I54
I53
tp518
a(I56
I55
tp519
a(I56
I57
tp520
a(I66
I57
tp521
a(I59
I58
tp522
a(I60
I59
tp523
a(I68
I59
tp524
a(I62
I61
tp525
a(I70
I61
tp526
a(I62
I63
tp527
a(I72
I63
tp528
a(I55
I64
tp529
a(I65
I64
tp530
a(I73
I64
tp531
a(I56
I65
tp532
a(I66
I65
tp533
a(I74
I65
tp534
a(I75
I66
tp535
a(I58
I67
tp536
a(I68
I67
tp537
a(I76
I67
tp538
a(I60
I69
tp539
a(I68
I69
tp540
a(I62
I71
tp541
a(I70
I71
tp542
a(I72
I71
tp543
a(I73
I74
tp544
a(I75
I74
tp545
a(I68
I77
tp546
a(I76
I77
tp547
a(I69
I78
tp548
a(I77
I78
tp549
a(I70
I79
tp550
a(I71
I80
tp551
a(I79
I80
tp552
a(I81
I80
tp553
a(I72
I81
tp554
atp555
a(S'Harder (0)'
p556
I0
(lp557
(I2
I1
tp558
a(I10
I1
tp559
a(I3
I2
tp560
a(I11
I2
tp561
a(I4
I5
tp562
a(I5
I6
tp563
a(I15
I6
tp564
a(I8
I7
tp565
a(I8
I9
tp566
a(I10
I11
tp567
a(I3
I12
tp568
a(I11
I12
tp569
a(I4
I13
tp570
a(I5
I14
tp571
a(I13
I14
tp572
a(I15
I14
tp573
a(I24
I15
tp574
a(I7
I16
tp575
a(I17
I16
tp576
a(I25
I16
tp577
a(I8
I17
tp578
a(I9
I18
tp579
a(I17
I18
tp580
a(I27
I18
tp581
a(I10
I19
tp582
a(I20
I19
tp583
a(I11
I20
tp584
a(I12
I21
tp585
a(I20
I21
tp586
a(I13
I22
tp587
a(I14
I23
tp588
a(I22
I23
tp589
a(I24
I23
tp590
a(I17
I26
tp591
a(I25
I26
tp592
a(I27
I26
tp593
a(I28
I29
tp594
a(I30
I29
tp595
a(I38
I29
tp596
a(I31
I32
tp597
a(I33
I32
tp598
a(I41
I32
tp599
a(I35
I34
tp600
a(I44
I35
tp601
a(I35
I36
tp602
a(I45
I36
tp603
a(I28
I37
tp604
a(I37
I38
tp605
a(I39
I38
tp606
a(I47
I38
tp607
a(I30
I39
tp608
a(I31
I40
tp609
a(I41
I40
tp610
a(I49
I40
tp611
a(I33
I42
tp612
a(I41
I42
tp613
a(I51
I42
tp614
a(I34
I43
tp615
a(I44
I43
tp616
a(I44
I45
tp617
a(I54
I45
tp618
a(I37
I46
tp619
a(I47
I46
tp620
a(I39
I48
tp621
a(I47
I48
tp622
a(I50
I49
tp623
a(I41
I50
tp624
a(I50
I51
tp625
a(I43
I52
tp626
a(I53
I52
tp627
a(I44
I53
tp628
a(I54
I53
tp629
a(I56
I55
tp630
a(I64
I55
tp631
a(I56
I57
tp632
a(I59
I58
tp633
a(I67
I58
tp634
a(I68
I59
tp635
a(I59
I60
tp636
a(I69
I60
tp637
a(I61
I62
tp638
a(I62
I63
tp639
a(I65
I64
tp640
a(I73
I64
tp641
a(I56
I65
tp642
a(I66
I65
tp643
a(I74
I65
tp644
a(I57
I66
tp645
a(I67
I68
tp646
a(I69
I68
tp647
a(I61
I70
tp648
a(I79
I70
tp649
a(I62
I71
tp650
a(I70
I71
tp651
a(I72
I71
tp652
a(I80
I71
tp653
a(I63
I72
tp654
a(I81
I72
tp655
a(I73
I74
tp656
a(I66
I75
tp657
a(I74
I75
tp658
a(I67
I76
tp659
a(I77
I76
tp660
a(I68
I77
tp661
a(I69
I78
tp662
a(I77
I78
tp663
a(I79
I80
tp664
a(I81
I80
tp665
atp666
a.