(lp0
(S'Super easy (0)'
p1
I0
(lp2
I0
aI0
aI9
aI0
aI0
aI0
aI1
aI0
aI0
aI1
aI0
aI8
aI6
aI2
aI3
aI4
aI0
aI5
aI0
aI0
aI0
aI1
aI0
aI9
aI0
aI0
aI0
aI0
aI1
aI2
aI0
aI0
aI4
aI8
aI3
aI0
aI0
aI9
aI0
aI0
aI0
aI0
aI0
aI2
aI0
aI0
aI8
aI4
aI9
aI0
aI0
aI6
aI7
aI0
aI0
aI0
aI0
aI3
aI0
aI8
aI0
aI0
aI0
aI8
aI0
aI1
aI4
aI6
aI7
aI9
aI0
aI3
aI0
aI0
aI3
aI0
aI0
aI0
aI7
aI0
aI0
atp3
a(S'Super easy (0)'
p4
I1
(lp5
I1
aI0
aI0
aI6
aI0
aI7
aI0
aI0
aI5
aI0
aI7
aI0
aI0
aI8
aI0
aI0
aI9
aI0
aI0
aI0
aI0
aI5
aI9
aI3
aI0
aI0
aI0
aI7
aI0
aI8
aI0
aI0
aI0
aI6
aI0
aI9
aI0
aI3
aI5
aI0
aI0
aI0
aI4
aI1
aI0
aI4
aI0
aI2
aI0
aI0
aI0
aI8
aI0
aI7
aI0
aI0
aI0
aI7
aI5
aI8
aI0
aI0
aI0
aI0
aI2
aI0
aI0
aI1
aI0
aI0
aI6
aI0
aI9
aI0
aI0
aI2
aI0
aI6
aI0
aI0
aI1
atp6
a(S'Super easy (0)'
p7
I2
(lp8
I4
aI0
aI0
aI5
aI0
aI0
aI0
aI0
aI3
aI0
aI3
aI5
aI0
aI0
aI6
aI1
aI4
aI0
aI0
aI8
aI7
aI4
aI0
aI0
aI9
aI2
aI0
aI0
aI1
aI0
aI7
aI0
aI0
aI4
aI0
aI8
aI0
aI0
aI0
aI0
aI0
aI0
aI0
aI0
aI0
aI3
aI0
aI9
aI0
aI0
aI8
aI0
aI1
aI0
aI0
aI6
aI8
aI0
aI0
aI4
aI5
aI3
aI0
aI0
aI9
aI3
aI1
aI0
aI0
aI8
aI7
aI0
aI7
aI0
aI0
aI0
aI0
aI9
aI0
aI0
aI1
atp9
a(S'Super easy (0)'
p10
I3
(lp11
I0
aI0
aI7
aI0
aI0
aI0
aI5
aI0
aI0
aI0
aI8
aI0
aI7
aI0
aI2
aI0
aI3
aI0
aI0
aI0
aI2
aI8
aI0
aI0
aI9
aI0
aI0
aI0
aI7
aI0
aI0
aI6
aI0
aI1
aI5
aI0
aI0
aI0
aI0
aI3
aI0
aI4
aI0
aI0
aI0
aI0
aI9
aI5
aI0
aI8
aI0
aI0
aI2
aI0
aI0
aI0
aI9
aI0
aI0
aI8
aI3
aI0
aI0
aI0
aI4
aI0
aI5
aI0
aI1
aI0
aI6
aI0
aI0
aI0
aI3
aI0
aI0
aI0
aI2
aI0
aI0
atp12
a(S'Super easy (0)'
p13
I4
(lp14
I7
aI8
aI0
aI2
aI4
aI0
aI0
aI5
aI1
aI9
aI0
aI0
aI0
aI0
aI8
aI0
aI0
aI2
aI0
aI0
aI5
aI0
aI0
aI0
aI9
aI0
aI0
aI0
aI3
aI0
aI0
aI8
aI6
aI0
aI0
aI5
aI6
aI0
aI0
aI0
aI9
aI0
aI0
aI0
aI7
aI5
aI0
aI0
aI4
aI1
aI0
aI0
aI6
aI0
aI0
aI0
aI2
aI0
aI0
aI0
aI7
aI0
aI0
aI4
aI0
aI0
aI8
aI0
aI0
aI0
aI0
aI9
aI3
aI9
aI0
aI0
aI5
aI1
aI0
aI2
aI8
atp15
a(S'Super easy (0)'
p16
I5
(lp17
I0
aI8
aI0
aI0
aI0
aI5
aI0
aI7
aI0
aI0
aI0
aI5
aI8
aI1
aI0
aI3
aI0
aI0
aI0
aI0
aI1
aI0
aI4
aI0
aI5
aI0
aI0
aI6
aI0
aI0
aI0
aI7
aI4
aI0
aI3
aI0
aI0
aI4
aI9
aI0
aI0
aI0
aI7
aI8
aI0
aI0
aI5
aI0
aI3
aI8
aI0
aI0
aI0
aI4
aI0
aI0
aI2
aI0
aI3
aI0
aI9
aI0
aI0
aI0
aI0
aI4
aI0
aI5
aI6
aI2
aI0
aI0
aI0
aI3
aI0
aI2
aI0
aI0
aI0
aI4
aI0
atp18
a(S'Super easy (0)'
p19
I6
(lp20
I0
aI0
aI5
aI1
aI0
aI3
aI6
aI0
aI0
aI0
aI8
aI3
aI5
aI6
aI4
aI9
aI7
aI0
aI0
aI0
aI0
aI0
aI0
aI0
aI0
aI0
aI0
aI3
aI1
aI0
aI7
aI0
aI0
aI0
aI8
aI6
aI0
aI2
aI0
aI0
aI9
aI0
aI0
aI3
aI0
aI7
aI6
aI0
aI0
aI0
aI1
aI0
aI5
aI9
aI0
aI0
aI0
aI0
aI0
aI0
aI0
aI0
aI0
aI0
aI5
aI6
aI4
aI8
aI7
aI3
aI1
aI0
aI0
aI0
aI7
aI9
aI0
aI2
aI8
aI0
aI0
atp21
a(S'Super easy (0)'
p22
I7
(lp23
I0
aI0
aI0
aI3
aI8
aI1
aI0
aI0
aI0
aI0
aI0
aI9
aI0
aI0
aI0
aI0
aI0
aI3
aI0
aI0
aI0
aI7
aI0
aI5
aI6
aI2
aI0
aI9
aI0
aI8
aI0
aI0
aI0
aI4
aI0
aI6
aI3
aI0
aI0
aI0
aI7
aI0
aI0
aI0
aI8
aI7
aI0
aI4
aI0
aI0
aI0
aI1
aI0
aI5
aI0
aI3
aI2
aI1
aI0
aI9
aI0
aI4
aI0
aI8
aI0
aI0
aI0
aI0
aI0
aI0
aI0
aI0
aI0
aI0
aI0
aI8
aI6
aI2
aI0
aI0
aI0
atp24
a(S'Super easy (0)'
p25
I8
(lp26
I0
aI0
aI0
aI8
aI6
aI0
aI0
aI9
aI0
aI0
aI0
aI2
aI3
aI4
aI5
aI8
aI0
aI0
aI0
aI0
aI8
aI7
aI0
aI0
aI0
aI0
aI0
aI0
aI7
aI0
aI0
aI0
aI0
aI4
aI1
aI2
aI1
aI4
aI0
aI0
aI0
aI0
aI0
aI3
aI7
aI2
aI3
aI9
aI0
aI0
aI0
aI0
aI6
aI0
aI0
aI2
aI0
aI0
aI0
aI6
aI1
aI0
aI0
aI5
aI0
aI0
aI1
aI8
aI9
aI3
aI0
aI0
aI0
aI0
aI0
aI0
aI3
aI4
aI0
aI0
aI0
atp27
a(S'Super easy (0)'
p28
I9
(lp29
I0
aI0
aI0
aI0
aI0
aI0
aI0
aI0
aI0
aI8
aI0
aI0
aI0
aI1
aI4
aI0
aI0
aI2
aI0
aI3
aI6
aI0
aI0
aI7
aI1
aI8
aI0
aI0
aI0
aI3
aI1
aI0
aI9
aI0
aI7
aI6
aI0
aI0
aI1
aI0
aI8
aI0
aI5
aI0
aI0
aI6
aI7
aI0
aI4
aI0
aI5
aI2
aI0
aI0
aI0
aI8
aI5
aI6
aI0
aI0
aI3
aI2
aI0
aI7
aI0
aI0
aI8
aI5
aI0
aI0
aI0
aI4
aI0
aI0
aI0
aI0
aI0
aI0
aI0
aI0
aI0
atp30
a(S'Very easy (0)'
p31
I0
(lp32
I0
aI2
aI4
aI0
aI0
aI5
aI6
aI7
aI0
aI0
aI0
aI0
aI0
aI0
aI8
aI0
aI0
aI0
aI5
aI0
aI0
aI2
aI0
aI1
aI0
aI0
aI4
aI0
aI0
aI3
aI0
aI0
aI0
aI0
aI5
aI0
aI0
aI1
aI7
aI0
aI0
aI0
aI3
aI9
aI0
aI0
aI8
aI0
aI0
aI0
aI0
aI2
aI0
aI0
aI3
aI0
aI0
aI5
aI0
aI2
aI0
aI0
aI9
aI0
aI0
aI0
aI9
aI0
aI0
aI0
aI0
aI0
aI0
aI7
aI9
aI4
aI0
aI0
aI5
aI6
aI0
atp33
a(S'Very easy (0)'
p34
I1
(lp35
I0
aI0
aI5
aI0
aI0
aI0
aI0
aI0
aI0
aI0
aI0
aI0
aI0
aI2
aI0
aI0
aI6
aI0
aI8
aI3
aI0
aI5
aI6
aI9
aI0
aI0
aI0
aI0
aI0
aI3
aI0
aI9
aI4
aI1
aI0
aI0
aI0
aI4
aI7
aI2
aI0
aI6
aI9
aI8
aI0
aI0
aI0
aI1
aI8
aI5
aI0
aI6
aI0
aI0
aI0
aI0
aI0
aI9
aI3
aI5
aI0
aI2
aI1
aI0
aI5
aI0
aI0
aI8
aI0
aI0
aI0
aI0
aI0
aI0
aI0
aI0
aI0
aI0
aI7
aI0
aI0
atp36
a(S'Very easy (0)'
p37
I2
(lp38
I0
aI0
aI0
aI6
aI0
aI1
aI0
aI9
aI3
aI0
aI0
aI0
aI0
aI8
aI0
aI0
aI0
aI1
aI0
aI0
aI6
aI2
aI0
aI3
aI0
aI0
aI0
aI6
aI0
aI3
aI0
aI0
aI5
aI7
aI0
aI9
aI0
aI8
aI0
aI0
aI0
aI0
aI0
aI2
aI0
aI9
aI0
aI5
aI8
aI0
aI0
aI4
aI0
aI6
aI0
aI0
aI0
aI3
aI0
aI8
aI1
aI0
aI0
aI2
aI0
aI0
aI0
aI6
aI0
aI0
aI0
aI0
aI5
aI3
aI0
aI9
aI0
aI7
aI0
aI0
aI0
atp39
a(S'Very easy (0)'
p40
I3
(lp41
I8
aI0
aI0
aI0
aI0
aI0
aI0
aI0
aI7
aI0
aI2
aI4
aI0
aI0
aI0
aI3
aI5
aI0
aI0
aI1
aI0
aI8
aI0
aI0
aI0
aI6
aI0
aI0
aI8
aI0
aI0
aI9
aI0
aI1
aI0
aI0
aI6
aI0
aI0
aI4
aI0
aI3
aI0
aI0
aI5
aI0
aI0
aI3
aI0
aI7
aI0
aI0
aI4
aI0
aI0
aI6
aI0
aI1
aI0
aI0
aI0
aI2
aI0
aI0
aI5
aI7
aI0
aI0
aI0
aI6
aI3
aI0
aI2
aI0
aI0
aI0
aI0
aI0
aI0
aI0
aI1
atp42
a(S'Very easy (0)'
p43
I4
(lp44
I0
aI0
aI0
aI0
aI3
aI0
aI0
aI0
aI0
aI0
aI5
aI0
aI9
aI4
aI1
aI0
aI0
aI0
aI2
aI0
aI7
aI8
aI0
aI5
aI0
aI9
aI0
aI0
aI2
aI1
aI0
aI0
aI0
aI9
aI5
aI0
aI5
aI8
aI0
aI0
aI0
aI0
aI0
aI1
aI6
aI0
aI4
aI9
aI0
aI0
aI0
aI2
aI8
aI0
aI0
aI9
aI0
aI4
aI0
aI3
aI6
aI0
aI2
aI0
aI0
aI0
aI6
aI2
aI9
aI0
aI4
aI0
aI0
aI0
aI0
aI0
aI5
aI0
aI0
aI0
aI0
atp45
a(S'Very easy (0)'
p46
I5
(lp47
I0
aI1
aI0
aI8
aI0
aI2
aI6
aI0
aI0
aI0
aI0
aI5
aI9
aI0
aI7
aI0
aI0
aI0
aI9
aI0
aI0
aI0
aI1
aI0
aI0
aI3
aI0
aI5
aI4
aI0
aI0
aI0
aI6
aI0
aI2
aI3
aI0
aI0
aI6
aI0
aI0
aI0
aI1
aI0
aI0
aI8
aI2
aI0
aI3
aI0
aI0
aI0
aI9
aI6
aI0
aI9
aI0
aI0
aI6
aI0
aI0
aI7
aI0
aI0
aI0
aI0
aI7
aI0
aI1
aI0
aI0
aI4
aI0
aI0
aI7
aI2
aI0
aI8
aI3
aI0
aI0
atp48
a(S'Very easy (0)'
p49
I6
(lp50
I0
aI0
aI7
aI2
aI3
aI0
aI6
aI0
aI0
aI0
aI0
aI9
aI0
aI0
aI6
aI1
aI0
aI0
aI0
aI2
aI0
aI1
aI9
aI0
aI0
aI3
aI0
aI0
aI5
aI0
aI0
aI0
aI0
aI4
aI0
aI9
aI2
aI0
aI6
aI0
aI4
aI0
aI5
aI0
aI1
aI4
aI0
aI1
aI0
aI0
aI0
aI0
aI2
aI0
aI0
aI1
aI0
aI0
aI5
aI2
aI0
aI4
aI0
aI0
aI0
aI4
aI7
aI0
aI0
aI2
aI0
aI0
aI0
aI0
aI2
aI0
aI8
aI4
aI9
aI0
aI0
atp51
a(S'Very easy (0)'
p52
I7
(lp53
I5
aI0
aI0
aI0
aI8
aI0
aI0
aI0
aI0
aI0
aI0
aI4
aI5
aI6
aI9
aI2
aI0
aI0
aI0
aI0
aI0
aI7
aI0
aI4
aI0
aI0
aI0
aI0
aI5
aI7
aI0
aI0
aI0
aI9
aI8
aI0
aI3
aI9
aI0
aI0
aI0
aI0
aI0
aI7
aI1
aI0
aI1
aI2
aI0
aI0
aI0
aI6
aI4
aI0
aI0
aI0
aI0
aI4
aI0
aI7
aI0
aI2
aI0
aI0
aI0
aI1
aI8
aI9
aI6
aI0
aI0
aI0
aI0
aI0
aI0
aI0
aI5
aI0
aI0
aI0
aI7
atp54
a(S'Very easy (0)'
p55
I8
(lp56
I0
aI5
aI0
aI8
aI0
aI0
aI0
aI0
aI0
aI3
aI0
aI0
aI0
aI0
aI1
aI5
aI0
aI0
aI0
aI0
aI0
aI0
aI0
aI0
aI7
aI4
aI0
aI9
aI0
aI4
aI0
aI0
aI0
aI0
aI0
aI0
aI0
aI0
aI0
aI0
aI2
aI0
aI0
aI0
aI3
aI5
aI1
aI0
aI0
aI4
aI0
aI0
aI6
aI0
aI0
aI0
aI0
aI0
aI8
aI0
aI0
aI7
aI1
aI0
aI0
aI7
aI0
aI0
aI9
aI3
aI0
aI0
aI4
aI0
aI0
aI0
aI0
aI0
aI2
aI0
aI0
atp57
a(S'Very easy (0)'
p58
I9
(lp59
I0
aI0
aI0
aI2
aI0
aI0
aI0
aI0
aI0
aI8
aI0
aI0
aI9
aI4
aI0
aI6
aI0
aI0
aI0
aI9
aI5
aI0
aI0
aI0
aI0
aI4
aI0
aI0
aI5
aI0
aI0
aI7
aI0
aI2
aI8
aI0
aI0
aI7
aI0
aI1
aI0
aI6
aI0
aI5
aI0
aI0
aI3
aI2
aI0
aI8
aI0
aI0
aI1
aI0
aI0
aI2
aI0
aI0
aI0
aI0
aI8
aI7
aI0
aI0
aI0
aI9
aI3
aI5
aI0
aI0
aI0
aI1
aI0
aI0
aI0
aI8
aI0
aI0
aI0
aI0
aI0
atp60
a(S'Easy (0)'
p61
I0
(lp62
I0
aI9
aI0
aI0
aI0
aI7
aI0
aI3
aI0
aI0
aI3
aI0
aI8
aI0
aI0
aI0
aI4
aI0
aI0
aI0
aI8
aI3
aI0
aI9
aI6
aI0
aI0
aI0
aI0
aI0
aI0
aI8
aI0
aI0
aI0
aI0
aI5
aI0
aI0
aI7
aI0
aI4
aI0
aI0
aI8
aI0
aI0
aI2
aI0
aI6
aI0
aI4
aI0
aI0
aI0
aI0
aI1
aI2
aI0
aI6
aI7
aI0
aI0
aI0
aI2
aI0
aI0
aI0
aI5
aI0
aI9
aI0
aI0
aI5
aI0
aI4
aI0
aI0
aI0
aI1
aI0
atp63
a(S'Easy (0)'
p64
I1
(lp65
I2
aI0
aI3
aI0
aI6
aI0
aI0
aI0
aI0
aI0
aI9
aI0
aI2
aI1
aI7
aI0
aI0
aI0
aI1
aI0
aI5
aI0
aI0
aI0
aI0
aI0
aI0
aI0
aI2
aI0
aI1
aI7
aI0
aI0
aI5
aI0
aI4
aI5
aI0
aI9
aI0
aI2
aI0
aI8
aI1
aI0
aI1
aI0
aI0
aI8
aI5
aI0
aI2
aI0
aI0
aI0
aI0
aI0
aI0
aI0
aI6
aI0
aI9
aI0
aI0
aI0
aI6
aI9
aI4
aI0
aI1
aI0
aI0
aI0
aI0
aI0
aI5
aI0
aI2
aI0
aI7
atp66
a(S'Easy (0)'
p67
I2
(lp68
I0
aI0
aI0
aI0
aI0
aI4
aI3
aI0
aI0
aI2
aI0
aI0
aI0
aI7
aI0
aI0
aI6
aI8
aI8
aI0
aI3
aI0
aI0
aI0
aI0
aI1
aI0
aI0
aI9
aI0
aI0
aI0
aI0
aI6
aI0
aI7
aI0
aI0
aI0
aI0
aI0
aI5
aI0
aI3
aI0
aI0
aI5
aI0
aI6
aI8
aI0
aI0
aI0
aI0
aI0
aI0
aI6
aI0
aI0
aI0
aI4
aI7
aI0
aI0
aI0
aI0
aI0
aI0
aI0
aI5
aI0
aI0
aI0
aI0
aI9
aI1
aI4
aI0
aI0
aI0
aI0
atp69
a(S'Easy (0)'
p70
I3
(lp71
I0
aI0
aI3
aI0
aI8
aI2
aI6
aI0
aI0
aI6
aI0
aI0
aI0
aI0
aI1
aI0
aI0
aI3
aI0
aI0
aI8
aI0
aI5
aI0
aI7
aI0
aI0
aI0
aI3
aI0
aI8
aI0
aI0
aI0
aI5
aI0
aI0
aI0
aI2
aI0
aI0
aI0
aI9
aI0
aI0
aI8
aI0
aI0
aI0
aI0
aI4
aI0
aI0
aI1
aI0
aI0
aI7
aI0
aI3
aI0
aI2
aI0
aI0
aI2
aI0
aI0
aI0
aI0
aI8
aI0
aI0
aI5
aI0
aI0
aI5
aI0
aI6
aI9
aI8
aI0
aI0
atp72
a(S'Easy (0)'
p73
I4
(lp74
I0
aI7
aI0
aI0
aI1
aI0
aI2
aI0
aI0
aI0
aI0
aI1
aI6
aI0
aI3
aI0
aI0
aI0
aI0
aI6
aI0
aI5
aI0
aI7
aI0
aI0
aI0
aI0
aI1
aI3
aI0
aI0
aI0
aI5
aI7
aI0
aI7
aI0
aI0
aI0
aI0
aI0
aI0
aI0
aI9
aI0
aI5
aI4
aI0
aI0
aI0
aI1
aI2
aI0
aI2
aI0
aI0
aI8
aI0
aI5
aI0
aI4
aI0
aI0
aI0
aI0
aI1
aI0
aI4
aI6
aI0
aI0
aI0
aI0
aI0
aI0
aI9
aI0
aI0
aI3
aI0
atp75
a(S'Easy (0)'
p76
I5
(lp77
I0
aI7
aI0
aI6
aI0
aI4
aI0
aI8
aI0
aI0
aI1
aI6
aI0
aI0
aI0
aI4
aI2
aI0
aI4
aI0
aI8
aI5
aI0
aI0
aI7
aI0
aI3
aI6
aI0
aI3
aI0
aI0
aI0
aI0
aI9
aI8
aI0
aI0
aI0
aI0
aI0
aI0
aI0
aI0
aI0
aI9
aI5
aI0
aI0
aI0
aI0
aI2
aI0
aI6
aI2
aI0
aI4
aI9
aI0
aI0
aI6
aI0
aI7
aI0
aI3
aI9
aI0
aI0
aI0
aI8
aI5
aI0
aI0
aI6
aI0
aI1
aI0
aI2
aI0
aI4
aI0
atp78
a(S'Easy (0)'
p79
I6
(lp80
I9
aI0
aI0
aI0
aI0
aI8
aI0
aI0
aI2
aI0
aI7
aI0
aI0
aI9
aI3
aI0
aI1
aI0
aI0
aI0
aI5
aI0
aI0
aI7
aI9
aI0
aI0
aI0
aI0
aI7
aI0
aI0
aI0
aI2
aI0
aI0
aI1
aI0
aI0
aI0
aI0
aI0
aI0
aI0
aI5
aI4
aI8
aI0
aI0
aI0
aI0
aI0
aI6
aI3
aI0
aI0
aI9
aI8
aI0
aI0
aI3
aI0
aI0
aI0
aI5
aI0
aI3
aI4
aI0
aI0
aI2
aI0
aI3
aI0
aI0
aI1
aI0
aI0
aI0
aI0
aI8
atp81
a(S'Easy (0)'
p82
I7
(lp83
I0
aI5
aI0
aI0
aI6
aI0
aI0
aI8
aI2
aI0
aI0
aI0
aI0
aI0
aI9
aI6
aI0
aI0
aI2
aI0
aI0
aI0
aI0
aI0
aI5
aI1
aI0
aI1
aI0
aI0
aI0
aI0
aI0
aI0
aI0
aI5
aI0
aI0
aI0
aI4
aI8
aI0
aI0
aI2
aI0
aI0
aI0
aI0
aI0
aI0
aI0
aI0
aI3
aI4
aI0
aI0
aI0
aI0
aI0
aI5
aI0
aI0
aI0
aI0
aI4
aI0
aI3
aI0
aI1
aI0
aI6
aI0
aI6
aI9
aI1
aI0
aI0
aI0
aI0
aI0
aI0
atp84
a(S'Easy (0)'
p85
I8
(lp86
I0
aI0
aI0
aI9
aI0
aI5
aI0
aI0
aI0
aI0
aI0
aI0
aI7
aI0
aI1
aI0
aI2
aI6
aI6
aI0
aI0
aI0
aI2
aI0
aI5
aI0
aI9
aI4
aI6
aI0
aI0
aI0
aI0
aI0
aI1
aI5
aI0
aI0
aI7
aI0
aI0
aI0
aI6
aI0
aI0
aI3
aI9
aI0
aI0
aI0
aI0
aI0
aI7
aI8
aI0
aI0
aI6
aI0
aI8
aI0
aI0
aI0
aI0
aI0
aI3
aI0
aI1
aI0
aI9
aI0
aI0
aI0
aI0
aI1
aI9
aI6
aI0
aI4
aI2
aI0
aI0
atp87
a(S'Easy (0)'
p88
I9
(lp89
I0
aI0
aI0
aI0
aI0
aI6
aI3
aI4
aI0
aI0
aI4
aI0
aI0
aI0
aI5
aI2
aI0
aI0
aI1
aI0
aI0
aI0
aI0
aI2
aI7
aI0
aI8
aI7
aI1
aI2
aI5
aI0
aI0
aI0
aI0
aI0
aI0
aI0
aI0
aI0
aI0
aI0
aI0
aI0
aI0
aI0
aI0
aI0
aI0
aI0
aI7
aI4
aI2
aI9
aI9
aI5
aI3
aI2
aI0
aI0
aI0
aI0
aI0
aI2
aI0
aI0
aI6
aI0
aI0
aI0
aI7
aI0
aI0
aI0
aI4
aI9
aI0
aI0
aI1
aI0
aI0
atp90
a(S'Medium (0)'
p91
I0
(lp92
I7
aI0
aI0
aI0
aI4
aI0
aI0
aI0
aI3
aI0
aI0
aI6
aI0
aI0
aI3
aI9
aI4
aI0
aI0
aI3
aI0
aI8
aI9
aI0
aI1
aI0
aI0
aI0
aI0
aI0
aI0
aI0
aI5
aI0
aI0
aI0
aI3
aI0
aI0
aI0
aI0
aI0
aI0
aI0
aI2
aI0
aI4
aI0
aI2
aI0
aI0
aI0
aI6
aI0
aI0
aI0
aI2
aI0
aI6
aI8
aI0
aI1
aI0
aI0
aI9
aI7
aI3
aI0
aI0
aI6
aI0
aI0
aI6
aI0
aI0
aI0
aI1
aI0
aI0
aI0
aI4
atp93
a(S'Medium (0)'
p94
I1
(lp95
I1
aI4
aI0
aI0
aI0
aI5
aI0
aI2
aI8
aI0
aI0
aI2
aI4
aI0
aI0
aI7
aI0
aI0
aI0
aI0
aI7
aI0
aI0
aI8
aI1
aI0
aI0
aI6
aI0
aI8
aI0
aI1
aI0
aI0
aI7
aI0
aI0
aI0
aI0
aI0
aI6
aI0
aI0
aI0
aI0
aI0
aI7
aI0
aI0
aI9
aI0
aI2
aI0
aI6
aI0
aI0
aI5
aI3
aI0
aI0
aI8
aI0
aI0
aI0
aI0
aI9
aI0
aI0
aI7
aI5
aI0
aI0
aI4
aI8
aI0
aI2
aI0
aI0
aI0
aI1
aI7
atp96
a(S'Medium (0)'
p97
I2
(lp98
I1
aI0
aI0
aI0
aI0
aI9
aI0
aI0
aI8
aI0
aI7
aI0
aI2
aI1
aI0
aI0
aI3
aI0
aI3
aI2
aI0
aI6
aI4
aI0
aI0
aI9
aI1
aI0
aI0
aI0
aI3
aI0
aI2
aI0
aI0
aI0
aI9
aI0
aI0
aI0
aI0
aI0
aI0
aI0
aI3
aI2
aI3
aI0
aI9
aI0
aI4
aI0
aI7
aI6
aI7
aI9
aI0
aI1
aI5
aI0
aI0
aI4
aI2
aI0
aI1
aI0
aI4
aI2
aI0
aI0
aI6
aI0
aI6
aI0
aI0
aI0
aI0
aI3
aI0
aI0
aI7
atp99
a(S'Medium (0)'
p100
I3
(lp101
I9
aI0
aI0
aI0
aI0
aI0
aI0
aI0
aI8
aI0
aI0
aI0
aI5
aI4
aI9
aI0
aI0
aI0
aI0
aI5
aI0
aI0
aI2
aI0
aI0
aI9
aI0
aI0
aI4
aI0
aI0
aI1
aI5
aI0
aI6
aI0
aI0
aI7
aI3
aI9
aI0
aI4
aI5
aI1
aI0
aI0
aI1
aI0
aI6
aI3
aI0
aI0
aI4
aI0
aI0
aI9
aI0
aI0
aI5
aI0
aI0
aI3
aI0
aI0
aI0
aI0
aI2
aI7
aI1
aI0
aI0
aI0
aI1
aI0
aI0
aI0
aI0
aI0
aI0
aI0
aI7
atp102
a(S'Medium (0)'
p103
I4
(lp104
I0
aI1
aI0
aI0
aI4
aI7
aI0
aI9
aI0
aI0
aI4
aI0
aI0
aI0
aI0
aI0
aI6
aI0
aI9
aI0
aI5
aI0
aI0
aI0
aI0
aI0
aI0
aI2
aI0
aI0
aI0
aI0
aI0
aI6
aI0
aI9
aI4
aI0
aI0
aI0
aI8
aI0
aI0
aI0
aI2
aI3
aI0
aI0
aI0
aI0
aI6
aI1
aI7
aI0
aI0
aI0
aI0
aI5
aI0
aI0
aI8
aI0
aI0
aI6
aI0
aI0
aI0
aI0
aI0
aI0
aI0
aI0
aI0
aI0
aI0
aI1
aI9
aI0
aI0
aI4
aI0
atp105
a(S'Medium (0)'
p106
I5
(lp107
I7
aI0
aI3
aI0
aI0
aI1
aI0
aI0
aI0
aI1
aI9
aI0
aI0
aI2
aI0
aI0
aI0
aI0
aI2
aI0
aI0
aI8
aI0
aI0
aI7
aI0
aI0
aI0
aI7
aI0
aI0
aI0
aI0
aI0
aI5
aI0
aI0
aI5
aI0
aI3
aI0
aI4
aI0
aI6
aI0
aI0
aI0
aI9
aI0
aI0
aI0
aI4
aI0
aI0
aI0
aI0
aI7
aI6
aI0
aI0
aI0
aI0
aI4
aI0
aI0
aI0
aI0
aI3
aI0
aI0
aI1
aI0
aI0
aI0
aI0
aI0
aI0
aI2
aI6
aI8
aI3
atp108
a(S'Medium (0)'
p109
I6
(lp110
I7
aI5
aI0
aI0
aI2
aI0
aI0
aI9
aI1
aI8
aI0
aI1
aI0
aI0
aI5
aI7
aI0
aI6
aI0
aI0
aI0
aI0
aI0
aI0
aI0
aI0
aI0
aI0
aI0
aI0
aI8
aI0
aI9
aI0
aI0
aI0
aI0
aI7
aI0
aI0
aI1
aI0
aI0
aI8
aI0
aI0
aI0
aI0
aI4
aI0
aI6
aI0
aI0
aI0
aI0
aI0
aI0
aI0
aI0
aI0
aI0
aI0
aI0
aI6
aI0
aI7
aI0
aI0
aI4
aI5
aI0
aI2
aI5
aI8
aI0
aI0
aI3
aI0
aI0
aI7
aI4
atp111
a(S'Medium (0)'
p112
I7
(lp113
I0
aI3
aI0
aI0
aI0
aI0
aI0
aI2
aI0
aI9
aI0
aI0
aI0
aI0
aI5
aI4
aI8
aI0
aI8
aI0
aI6
aI0
aI0
aI0
aI0
aI0
aI0
aI0
aI0
aI0
aI2
aI0
aI0
aI0
aI0
aI0
aI4
aI8
aI0
aI9
aI0
aI0
aI0
aI0
aI0
aI0
aI0
aI0
aI6
aI0
aI1
aI0
aI0
aI3
aI0
aI0
aI1
aI0
aI8
aI0
aI3
aI0
aI0
aI0
aI0
aI0
aI0
aI0
aI0
aI9
aI0
aI0
aI7
aI0
aI0
aI0
aI0
aI0
aI2
aI0
aI5
atp114
a(S'Medium (0)'
p115
I8
(lp116
I0
aI6
aI3
aI0
aI8
aI0
aI0
aI0
aI0
aI5
aI0
aI0
aI0
aI6
aI0
aI0
aI0
aI8
aI1
aI0
aI0
aI5
aI0
aI3
aI0
aI0
aI0
aI0
aI0
aI6
aI1
aI0
aI0
aI8
aI0
aI0
aI3
aI2
aI0
aI8
aI0
aI4
aI0
aI1
aI6
aI0
aI0
aI7
aI0
aI0
aI6
aI5
aI0
aI0
aI0
aI0
aI0
aI4
aI0
aI5
aI0
aI0
aI9
aI0
aI0
aI0
aI0
aI2
aI0
aI0
aI0
aI1
aI0
aI8
aI0
aI0
aI1
aI0
aI4
aI7
aI0
atp117
a(S'Medium (0)'
p118
I9
(lp119
I0
aI0
aI0
aI1
aI0
aI4
aI0
aI0
aI0
aI4
aI1
aI0
aI5
aI0
aI0
aI0
aI8
aI7
aI0
aI6
aI5
aI0
aI0
aI0
aI2
aI4
aI0
aI0
aI0
aI4
aI0
aI1
aI0
aI6
aI0
aI0
aI0
aI7
aI0
aI2
aI0
aI8
aI0
aI5
aI0
aI0
aI0
aI0
aI0
aI5
aI0
aI0
aI0
aI0
aI0
aI4
aI1
aI0
aI0
aI0
aI8
aI7
aI0
aI6
aI2
aI0
aI0
aI0
aI1
aI0
aI9
aI3
aI0
aI0
aI0
aI9
aI0
aI2
aI0
aI0
aI0
atp120
a(S'Hard (0)'
p121
I0
(lp122
I0
aI7
aI0
aI0
aI0
aI1
aI3
aI8
aI0
aI0
aI0
aI8
aI0
aI5
aI0
aI0
aI0
aI0
aI0
aI0
aI6
aI2
aI0
aI0
aI0
aI5
aI0
aI6
aI0
aI0
aI1
aI0
aI9
aI7
aI0
aI0
aI0
aI1
aI0
aI0
aI0
aI0
aI0
aI3
aI0
aI0
aI0
aI5
aI3
aI0
aI6
aI0
aI0
aI9
aI0
aI5
aI0
aI0
aI0
aI2
aI1
aI9
aI0
aI0
aI0
aI0
aI0
aI9
aI0
aI0
aI0
aI7
aI0
aI9
aI4
aI8
aI0
aI0
aI0
aI0
aI0
atp123
a(S'Hard (0)'
p124
I1
(lp125
I8
aI0
aI2
aI5
aI0
aI4
aI7
aI0
aI9
aI4
aI0
aI0
aI0
aI1
aI0
aI0
aI0
aI8
aI0
aI0
aI0
aI2
aI0
aI8
aI0
aI0
aI0
aI6
aI0
aI7
aI0
aI0
aI0
aI8
aI0
aI2
aI0
aI2
aI0
aI0
aI0
aI0
aI0
aI6
aI0
aI1
aI0
aI3
aI0
aI0
aI0
aI5
aI0
aI4
aI0
aI0
aI0
aI4
aI0
aI7
aI0
aI0
aI0
aI7
aI0
aI0
aI0
aI8
aI0
aI0
aI0
aI6
aI2
aI0
aI9
aI6
aI0
aI5
aI4
aI0
aI7
atp126
a(S'Hard (0)'
p127
I2
(lp128
I2
aI1
aI0
aI0
aI5
aI0
aI0
aI9
aI3
aI3
aI0
aI0
aI0
aI8
aI0
aI0
aI0
aI1
aI0
aI5
aI0
aI0
aI0
aI0
aI0
aI4
aI0
aI4
aI0
aI0
aI8
aI1
aI3
aI0
aI0
aI9
aI0
aI0
aI0
aI6
aI0
aI4
aI0
aI0
aI0
aI0
aI0
aI3
aI7
aI2
aI5
aI4
aI0
aI0
aI0
aI3
aI0
aI0
aI0
aI0
aI0
aI8
aI0
aI1
aI0
aI0
aI0
aI4
aI0
aI0
aI0
aI5
aI8
aI4
aI0
aI0
aI3
aI0
aI0
aI6
aI7
atp129
a(S'Hard (0)'
p130
I3
(lp131
I0
aI0
aI4
aI0
aI0
aI0
aI5
aI0
aI0
aI0
aI2
aI0
aI0
aI0
aI0
aI0
aI7
aI0
aI9
aI0
aI0
aI8
aI7
aI0
aI0
aI0
aI6
aI0
aI4
aI0
aI0
aI3
aI0
aI0
aI0
aI0
aI7
aI0
aI6
aI5
aI0
aI9
aI4
aI0
aI3
aI0
aI0
aI0
aI0
aI6
aI0
aI0
aI8
aI0
aI5
aI0
aI0
aI9
aI2
aI0
aI0
aI0
aI7
aI0
aI8
aI0
aI0
aI0
aI0
aI0
aI6
aI0
aI0
aI0
aI2
aI0
aI0
aI0
aI3
aI0
aI0
atp132
a(S'Hard (0)'
p133
I4
(lp134
I7
aI0
aI0
aI1
aI0
aI9
aI0
aI0
aI4
aI0
aI9
aI0
aI0
aI0
aI0
aI0
aI1
aI0
aI4
aI0
aI0
aI6
aI0
aI8
aI0
aI0
aI7
aI3
aI0
aI9
aI0
aI0
aI6
aI4
aI0
aI1
aI0
aI0
aI0
aI0
aI0
aI0
aI0
aI0
aI0
aI8
aI0
aI7
aI5
aI0
aI0
aI6
aI0
aI9
aI9
aI0
aI0
aI2
aI0
aI4
aI0
aI0
aI8
aI0
aI3
aI0
aI0
aI0
aI0
aI0
aI4
aI0
aI6
aI0
aI0
aI7
aI0
aI3
aI0
aI0
aI2
atp135
a(S'Hard (0)'
p136
I5
(lp137
I0
aI0
aI4
aI0
aI0
aI0
aI0
aI8
aI2
aI9
aI7
aI0
aI8
aI0
aI5
aI0
aI0
aI0
aI8
aI0
aI0
aI0
aI1
aI9
aI0
aI0
aI0
aI0
aI0
aI0
aI0
aI0
aI0
aI0
aI0
aI0
aI6
aI0
aI1
aI0
aI0
aI0
aI7
aI0
aI4
aI3
aI5
aI0
aI0
aI0
aI0
aI0
aI2
aI6
aI0
aI0
aI0
aI0
aI9
aI7
aI0
aI0
aI8
aI2
aI0
aI0
aI6
aI0
aI8
aI0
aI3
aI0
aI7
aI0
aI0
aI0
aI0
aI0
aI5
aI6
aI0
atp138
a(S'Hard (0)'
p139
I6
(lp140
I1
aI0
aI0
aI0
aI0
aI0
aI0
aI0
aI9
aI0
aI0
aI5
aI1
aI0
aI2
aI7
aI0
aI0
aI0
aI4
aI0
aI0
aI8
aI0
aI0
aI5
aI0
aI0
aI8
aI0
aI9
aI0
aI7
aI0
aI3
aI0
aI0
aI0
aI4
aI0
aI0
aI0
aI6
aI0
aI0
aI0
aI2
aI0
aI5
aI0
aI1
aI0
aI7
aI0
aI0
aI7
aI0
aI0
aI1
aI0
aI0
aI6
aI0
aI0
aI0
aI9
aI3
aI0
aI6
aI8
aI0
aI0
aI2
aI0
aI0
aI0
aI0
aI0
aI0
aI0
aI4
atp141
a(S'Hard (0)'
p142
I7
(lp143
I0
aI0
aI6
aI0
aI4
aI0
aI0
aI0
aI9
aI5
aI0
aI0
aI0
aI8
aI0
aI7
aI0
aI4
aI0
aI0
aI0
aI0
aI6
aI0
aI1
aI0
aI0
aI0
aI0
aI0
aI0
aI1
aI8
aI0
aI0
aI0
aI0
aI0
aI0
aI4
aI0
aI0
aI0
aI0
aI3
aI0
aI0
aI0
aI0
aI0
aI2
aI0
aI7
aI0
aI4
aI0
aI0
aI0
aI0
aI0
aI0
aI2
aI6
aI0
aI2
aI1
aI0
aI9
aI3
aI0
aI0
aI0
aI9
aI8
aI0
aI0
aI0
aI0
aI0
aI0
aI0
atp144
a(S'Hard (0)'
p145
I8
(lp146
I0
aI9
aI0
aI0
aI0
aI0
aI0
aI0
aI0
aI1
aI0
aI0
aI3
aI0
aI5
aI0
aI0
aI0
aI5
aI0
aI4
aI0
aI6
aI0
aI2
aI0
aI0
aI0
aI5
aI6
aI0
aI0
aI4
aI1
aI2
aI0
aI0
aI0
aI0
aI0
aI8
aI0
aI0
aI0
aI0
aI0
aI0
aI9
aI6
aI0
aI0
aI3
aI0
aI0
aI0
aI0
aI5
aI0
aI7
aI0
aI9
aI0
aI4
aI0
aI0
aI0
aI1
aI0
aI2
aI0
aI0
aI7
aI0
aI0
aI0
aI0
aI0
aI0
aI0
aI8
aI0
atp147
a(S'Hard (0)'
p148
I9
(lp149
I0
aI9
aI0
aI8
aI0
aI1
aI0
aI0
aI0
aI0
aI0
aI1
aI0
aI6
aI4
aI0
aI0
aI2
aI0
aI0
aI2
aI0
aI5
aI0
aI0
aI0
aI0
aI0
aI0
aI0
aI0
aI0
aI7
aI1
aI0
aI0
aI0
aI6
aI3
aI0
aI0
aI0
aI9
aI0
aI0
aI2
aI0
aI0
aI0
aI0
aI0
aI3
aI0
aI8
aI0
aI4
aI6
aI0
aI1
aI2
aI0
aI8
aI0
aI0
aI8
aI0
aI0
aI0
aI0
aI0
aI0
aI0
aI0
aI0
aI5
aI0
aI0
aI0
aI0
aI4
aI0
atp150
a(S'Harder (0)'
p151
I0
(lp152
I8
aI0
aI0
aI0
aI9
aI7
aI0
aI0
aI0
aI0
aI0
aI0
aI0
aI2
aI0
aI0
aI6
aI5
aI0
aI9
aI0
aI0
aI0
aI0
aI0
aI0
aI7
aI0
aI0
aI1
aI0
aI7
aI0
aI2
aI0
aI0
aI7
aI4
aI0
aI8
aI0
aI0
aI0
aI1
aI0
aI5
aI0
aI0
aI0
aI3
aI0
aI0
aI0
aI4
aI0
aI0
aI0
aI0
aI0
aI0
aI3
aI0
aI0
aI0
aI0
aI9
aI0
aI0
aI3
aI0
aI0
aI1
aI0
aI0
aI6
aI0
aI0
aI9
aI0
aI0
aI0
atp153
a(S'Harder (0)'
p154
I1
(lp155
I1
aI0
aI0
aI0
aI0
aI5
aI0
aI0
aI3
aI0
aI0
aI0
aI9
aI0
aI0
aI0
aI0
aI0
aI0
aI0
aI2
aI3
aI6
aI0
aI5
aI0
aI0
aI0
aI5
aI3
aI7
aI0
aI0
aI1
aI9
aI0
aI0
aI6
aI9
aI0
aI0
aI0
aI8
aI5
aI0
aI0
aI1
aI0
aI0
aI0
aI6
aI0
aI7
aI0
aI0
aI0
aI4
aI1
aI7
aI0
aI2
aI0
aI0
aI0
aI0
aI0
aI4
aI0
aI0
aI0
aI0
aI0
aI5
aI0
aI0
aI0
aI0
aI3
aI0
aI0
aI7
atp156
a(S'Harder (0)'
p157
I2
(lp158
I4
aI0
aI0
aI6
aI7
aI0
aI0
aI0
aI9
aI0
aI0
aI0
aI0
aI9
aI2
aI0
aI0
aI0
aI0
aI0
aI7
aI8
aI0
aI1
aI5
aI0
aI0
aI0
aI1
aI6
aI0
aI0
aI0
aI4
aI0
aI7
aI8
aI3
aI0
aI0
aI0
aI0
aI0
aI6
aI5
aI7
aI0
aI2
aI0
aI0
aI0
aI1
aI8
aI0
aI0
aI0
aI9
aI4
aI0
aI8
aI3
aI0
aI0
aI0
aI0
aI0
aI1
aI3
aI0
aI0
aI0
aI0
aI1
aI0
aI0
aI0
aI5
aI6
aI0
aI0
aI8
atp159
a(S'Harder (0)'
p160
I3
(lp161
I0
aI7
aI0
aI0
aI0
aI0
aI0
aI3
aI0
aI0
aI0
aI0
aI0
aI4
aI3
aI0
aI0
aI0
aI0
aI0
aI3
aI9
aI0
aI8
aI1
aI0
aI0
aI0
aI3
aI5
aI8
aI0
aI1
aI6
aI0
aI0
aI0
aI8
aI0
aI0
aI0
aI0
aI0
aI2
aI0
aI0
aI0
aI1
aI3
aI0
aI2
aI7
aI8
aI0
aI0
aI0
aI4
aI1
aI0
aI6
aI8
aI0
aI0
aI0
aI0
aI0
aI5
aI2
aI0
aI0
aI0
aI0
aI0
aI9
aI0
aI0
aI0
aI0
aI0
aI1
aI0
atp162
a(S'Harder (0)'
p163
I4
(lp164
I0
aI0
aI0
aI3
aI0
aI0
aI0
aI0
aI0
aI0
aI5
aI8
aI0
aI0
aI0
aI1
aI3
aI0
aI3
aI0
aI0
aI1
aI0
aI8
aI0
aI0
aI9
aI0
aI0
aI7
aI5
aI0
aI3
aI4
aI0
aI0
aI4
aI6
aI0
aI0
aI0
aI0
aI0
aI7
aI1
aI5
aI0
aI0
aI6
aI0
aI7
aI0
aI0
aI2
aI8
aI0
aI0
aI4
aI0
aI2
aI0
aI0
aI3
aI0
aI7
aI4
aI0
aI0
aI0
aI9
aI2
aI0
aI0
aI0
aI0
aI0
aI0
aI6
aI0
aI0
aI0
atp165
a(S'Harder (0)'
p166
I5
(lp167
I3
aI0
aI0
aI8
aI0
aI4
aI7
aI0
aI0
aI0
aI7
aI9
aI5
aI0
aI0
aI0
aI8
aI0
aI0
aI0
aI4
aI0
aI0
aI0
aI6
aI0
aI0
aI8
aI0
aI0
aI0
aI0
aI5
aI0
aI6
aI1
aI0
aI0
aI0
aI0
aI0
aI0
aI0
aI0
aI0
aI7
aI2
aI0
aI6
aI0
aI0
aI0
aI0
aI8
aI0
aI0
aI1
aI0
aI0
aI0
aI5
aI7
aI0
aI0
aI3
aI0
aI0
aI0
aI7
aI0
aI2
aI0
aI0
aI0
aI7
aI3
aI0
aI9
aI0
aI0
aI6
atp168
a(S'Harder (0)'
p169
I6
(lp170
I0
aI0
aI0
aI7
aI0
aI5
aI0
aI0
aI0
aI8
aI0
aI0
aI6
aI2
aI9
aI0
aI0
aI0
aI0
aI0
aI9
aI0
aI4
aI0
aI5
aI0
aI0
aI6
aI4
aI0
aI0
aI0
aI0
aI0
aI7
aI9
aI0
aI5
aI1
aI0
aI0
aI0
aI3
aI4
aI0
aI3
aI9
aI0
aI0
aI0
aI0
aI0
aI6
aI5
aI0
aI0
aI2
aI0
aI9
aI0
aI7
aI0
aI0
aI0
aI0
aI0
aI5
aI6
aI7
aI0
aI0
aI4
aI0
aI0
aI0
aI2
aI0
aI1
aI0
aI0
aI0
atp171
a(S'Harder (0)'
p172
I7
(lp173
I4
aI0
aI0
aI0
aI2
aI0
aI0
aI0
aI8
aI0
aI0
aI0
aI5
aI3
aI8
aI0
aI0
aI0
aI0
aI0
aI8
aI1
aI0
aI4
aI7
aI0
aI0
aI0
aI8
aI4
aI0
aI0
aI0
aI9
aI7
aI0
aI7
aI9
aI0
aI0
aI0
aI0
aI0
aI6
aI5
aI0
aI3
aI5
aI0
aI0
aI0
aI8
aI2
aI0
aI0
aI0
aI6
aI2
aI0
aI5
aI4
aI0
aI0
aI0
aI0
aI0
aI3
aI8
aI9
aI0
aI0
aI0
aI8
aI0
aI0
aI0
aI6
aI0
aI0
aI0
aI7
atp174
a(S'Harder (0)'
p175
I8
(lp176
I0
aI1
aI0
aI5
aI0
aI0
aI0
aI9
aI0
aI0
aI0
aI2
aI3
aI0
aI6
aI7
aI0
aI0
aI9
aI0
aI0
aI0
aI0
aI0
aI0
aI0
aI2
aI0
aI6
aI0
aI0
aI0
aI3
aI0
aI7
aI8
aI0
aI0
aI0
aI0
aI8
aI0
aI0
aI0
aI0
aI7
aI4
aI0
aI6
aI0
aI0
aI0
aI5
aI0
aI5
aI0
aI0
aI0
aI0
aI0
aI0
aI0
aI7
aI0
aI0
aI7
aI8
aI0
aI5
aI3
aI0
aI0
aI0
aI3
aI0
aI0
aI0
aI7
aI0
aI4
aI0
atp177
a(S'Harder (0)'
p178
I9
(lp179
I4
aI3
aI0
aI0
aI0
aI0
aI0
aI2
aI0
aI2
aI0
aI0
aI6
aI0
aI5
aI0
aI1
aI0
aI0
aI0
aI0
aI7
aI0
aI0
aI0
aI0
aI0
aI0
aI0
aI0
aI0
aI5
aI0
aI0
aI0
aI0
aI0
aI8
aI0
aI0
aI0
aI6
aI0
aI3
aI2
aI0
aI9
aI6
aI0
aI0
aI0
aI0
aI0
aI5
aI0
aI0
aI0
aI5
aI3
aI0
aI0
aI4
aI0
aI8
aI0
aI0
aI0
aI7
aI0
aI0
aI0
aI9
aI0
aI1
aI0
aI0
aI0
aI8
aI0
aI0
aI0
atp180
a.