(lp0
(S'Easy (0)'
p1
I53
(lp2
I0
aI6
aI8
aI0
aI0
aI0
aI0
aI7
aI0
aI9
aI0
aI0
aI0
aI0
aI5
aI0
aI0
aI0
aI0
aI0
aI0
aI6
aI0
aI0
aI8
aI0
aI0
aI0
aI0
aI3
aI7
aI1
aI6
aI5
aI0
aI0
aI0
aI0
aI6
aI4
aI0
aI9
aI2
aI0
aI0
aI5
aI0
aI0
aI3
aI8
aI2
aI0
aI0
aI9
aI0
aI0
aI5
aI0
aI0
aI4
aI0
aI0
aI0
aI0
aI0
aI0
aI1
aI0
aI0
aI0
aI0
aI6
aI0
aI4
aI0
aI0
aI0
aI0
aI3
aI1
aI0
atp3
a(S'Very easy (0)'
p4
I885
(lp5
I0
aI0
aI1
aI0
aI6
aI0
aI3
aI0
aI0
aI6
aI3
aI0
aI1
aI0
aI5
aI0
aI4
aI7
aI0
aI0
aI0
aI0
aI3
aI0
aI0
aI0
aI0
aI0
aI2
aI0
aI7
aI1
aI0
aI0
aI3
aI0
aI8
aI0
aI3
aI9
aI0
aI2
aI1
aI0
aI6
aI0
aI6
aI0
aI0
aI8
aI4
aI0
aI9
aI0
aI0
aI0
aI0
aI0
aI2
aI0
aI0
aI0
aI0
aI4
aI9
aI0
aI5
aI0
aI1
aI0
aI2
aI3
aI0
aI0
aI5
aI0
aI4
aI0
aI7
aI0
aI0
atp6
a(S'Very easy (0)'
p7
I793
(lp8
I0
aI0
aI0
aI0
aI3
aI4
aI0
aI6
aI0
aI8
aI0
aI3
aI0
aI9
aI0
aI0
aI7
aI0
aI0
aI0
aI0
aI0
aI0
aI2
aI1
aI3
aI0
aI1
aI5
aI0
aI0
aI0
aI0
aI0
aI0
aI3
aI9
aI0
aI0
aI0
aI2
aI0
aI0
aI0
aI1
aI3
aI0
aI0
aI0
aI0
aI0
aI0
aI4
aI9
aI0
aI0
aI1
aI0
aI0
aI5
aI0
aI2
aI0
aI6
aI3
aI4
aI0
aI7
aI0
aI0
aI0
aI0
aI0
aI0
aI0
aI0
aI1
aI3
aI0
aI9
aI0
atp9
a(S'Very easy (0)'
p10
I543
(lp11
I0
aI0
aI3
aI8
aI0
aI9
aI5
aI0
aI0
aI8
aI0
aI0
aI0
aI3
aI1
aI0
aI0
aI4
aI0
aI7
aI0
aI4
aI0
aI0
aI0
aI3
aI0
aI6
aI4
aI0
aI0
aI0
aI0
aI1
aI0
aI8
aI0
aI3
aI0
aI0
aI4
aI0
aI0
aI6
aI0
aI2
aI0
aI1
aI0
aI0
aI0
aI0
aI5
aI3
aI0
aI1
aI0
aI0
aI0
aI3
aI0
aI8
aI0
aI9
aI0
aI0
aI5
aI1
aI0
aI0
aI0
aI6
aI0
aI0
aI6
aI9
aI0
aI7
aI2
aI0
aI0
atp12
a(S'Super hard (210)'
p13
I678
(lp14
I0
aI7
aI0
aI0
aI9
aI6
aI0
aI0
aI4
aI0
aI3
aI8
aI0
aI0
aI0
aI0
aI7
aI0
aI0
aI0
aI1
aI5
aI0
aI7
aI9
aI0
aI0
aI5
aI1
aI0
aI0
aI0
aI2
aI0
aI0
aI0
aI0
aI0
aI0
aI0
aI0
aI0
aI0
aI0
aI2
aI0
aI9
aI0
aI4
aI0
aI0
aI0
aI0
aI0
aI0
aI0
aI0
aI9
aI0
aI5
aI7
aI0
aI6
aI6
aI0
aI0
aI0
aI0
aI0
aI0
aI4
aI0
aI0
aI0
aI0
aI0
aI3
aI0
aI0
aI0
aI0
atp15
a(S'Very easy (0)'
p16
I961
(lp17
I0
aI0
aI0
aI6
aI0
aI0
aI0
aI0
aI0
aI0
aI9
aI2
aI0
aI3
aI0
aI7
aI4
aI0
aI0
aI0
aI8
aI0
aI7
aI0
aI9
aI0
aI0
aI0
aI0
aI0
aI2
aI0
aI0
aI0
aI0
aI5
aI0
aI7
aI6
aI0
aI0
aI0
aI4
aI9
aI0
aI3
aI0
aI0
aI0
aI0
aI1
aI0
aI0
aI0
aI0
aI0
aI5
aI0
aI6
aI0
aI8
aI0
aI0
aI0
aI1
aI7
aI0
aI2
aI0
aI6
aI3
aI0
aI0
aI0
aI0
aI0
aI0
aI3
aI0
aI0
aI0
atp18
a(S'Super easy (0)'
p19
I554
(lp20
I3
aI8
aI0
aI0
aI0
aI2
aI0
aI7
aI6
aI5
aI0
aI0
aI9
aI0
aI0
aI0
aI0
aI8
aI0
aI0
aI2
aI6
aI0
aI0
aI4
aI0
aI0
aI0
aI0
aI4
aI0
aI0
aI0
aI0
aI6
aI0
aI6
aI5
aI0
aI0
aI0
aI0
aI0
aI1
aI9
aI0
aI9
aI0
aI0
aI0
aI0
aI8
aI0
aI0
aI0
aI0
aI5
aI8
aI0
aI0
aI3
aI0
aI0
aI4
aI0
aI0
aI1
aI0
aI0
aI0
aI0
aI5
aI1
aI6
aI0
aI0
aI0
aI5
aI0
aI8
aI2
atp21
a(S'Very easy (0)'
p22
I29
(lp23
I0
aI0
aI0
aI3
aI0
aI0
aI0
aI9
aI0
aI0
aI0
aI0
aI8
aI0
aI0
aI1
aI0
aI5
aI4
aI0
aI0
aI0
aI7
aI0
aI3
aI8
aI0
aI0
aI0
aI0
aI0
aI8
aI0
aI0
aI3
aI6
aI0
aI0
aI3
aI0
aI0
aI0
aI9
aI0
aI0
aI5
aI6
aI0
aI0
aI9
aI0
aI0
aI0
aI0
aI0
aI5
aI7
aI0
aI3
aI0
aI0
aI0
aI8
aI9
aI0
aI6
aI0
aI0
aI2
aI0
aI0
aI0
aI0
aI1
aI0
aI0
aI0
aI8
aI0
aI0
aI0
atp24
a.