(lp0
(S'Super easy (0)'
p1
I0
(lp2
I0
aI0
aI6
aI1
aI3
aI5
aI9
aI0
aI0
aI0
aI1
aI2
aI7
aI0
aI9
aI3
aI6
aI0
aI0
aI0
aI0
aI2
aI0
aI8
aI0
aI0
aI0
aI6
aI4
aI3
aI0
aI0
aI0
aI1
aI5
aI8
aI7
aI0
aI0
aI0
aI0
aI0
aI0
aI0
aI9
aI9
aI8
aI1
aI0
aI0
aI0
aI2
aI7
aI4
aI0
aI0
aI0
aI4
aI0
aI6
aI0
aI0
aI0
aI0
aI6
aI8
aI5
aI0
aI1
aI7
aI4
aI0
aI0
aI0
aI4
aI3
aI7
aI2
aI8
aI0
aI0
atp3
a(S'Very easy (0)'
p4
I0
(lp5
I0
aI0
aI0
aI0
aI0
aI0
aI0
aI0
aI6
aI0
aI0
aI7
aI0
aI0
aI0
aI0
aI0
aI0
aI0
aI0
aI0
aI0
aI5
aI9
aI1
aI0
aI0
aI9
aI0
aI0
aI1
aI0
aI2
aI8
aI0
aI0
aI0
aI0
aI3
aI0
aI0
aI0
aI0
aI0
aI0
aI0
aI0
aI6
aI0
aI9
aI3
aI0
aI0
aI2
aI5
aI0
aI4
aI0
aI0
aI0
aI0
aI0
aI0
aI6
aI0
aI9
aI3
aI0
aI0
aI0
aI8
aI0
aI0
aI0
aI0
aI9
aI6
aI1
aI2
aI0
aI0
atp6
a(S'Easy (0)'
p7
I0
(lp8
I0
aI0
aI0
aI2
aI0
aI0
aI0
aI0
aI1
aI5
aI8
aI0
aI7
aI0
aI0
aI0
aI0
aI4
aI0
aI4
aI1
aI0
aI0
aI3
aI0
aI0
aI0
aI0
aI0
aI4
aI1
aI8
aI0
aI0
aI3
aI6
aI0
aI0
aI0
aI3
aI0
aI9
aI0
aI0
aI0
aI1
aI3
aI0
aI0
aI2
aI7
aI4
aI0
aI0
aI0
aI0
aI0
aI9
aI0
aI0
aI6
aI0
aI0
aI0
aI0
aI0
aI0
aI0
aI2
aI1
aI7
aI0
aI7
aI5
aI0
aI0
aI0
aI1
aI0
aI8
aI0
atp9
a(S'Medium (0)'
p10
I0
(lp11
I1
aI8
aI0
aI0
aI0
aI4
aI0
aI0
aI6
aI6
aI0
aI0
aI0
aI0
aI0
aI0
aI8
aI0
aI0
aI0
aI0
aI0
aI0
aI2
aI0
aI0
aI0
aI4
aI0
aI0
aI0
aI0
aI1
aI0
aI0
aI0
aI9
aI0
aI0
aI0
aI0
aI0
aI8
aI3
aI0
aI0
aI2
aI0
aI0
aI5
aI0
aI1
aI7
aI0
aI0
aI0
aI0
aI9
aI2
aI6
aI0
aI0
aI0
aI0
aI9
aI0
aI0
aI0
aI0
aI0
aI0
aI7
aI0
aI0
aI0
aI7
aI0
aI8
aI6
aI0
aI0
atp12
a(S'Hard (0)'
p13
I0
(lp14
I1
aI0
aI0
aI0
aI0
aI5
aI0
aI0
aI8
aI0
aI0
aI0
aI0
aI7
aI0
aI0
aI0
aI0
aI0
aI3
aI0
aI2
aI1
aI8
aI0
aI4
aI0
aI5
aI0
aI2
aI0
aI9
aI0
aI3
aI0
aI0
aI0
aI6
aI7
aI8
aI0
aI2
aI4
aI9
aI0
aI0
aI0
aI8
aI0
aI3
aI0
aI2
aI0
aI5
aI0
aI4
aI0
aI6
aI8
aI7
aI0
aI3
aI0
aI0
aI0
aI0
aI0
aI2
aI0
aI0
aI0
aI0
aI6
aI0
aI0
aI5
aI0
aI0
aI0
aI0
aI2
atp15
a(S'Harder (0)'
p16
I0
(lp17
I0
aI7
aI0
aI0
aI0
aI0
aI0
aI6
aI0
aI0
aI0
aI3
aI4
aI0
aI9
aI8
aI0
aI0
aI9
aI0
aI0
aI5
aI0
aI8
aI0
aI0
aI3
aI0
aI6
aI7
aI0
aI0
aI0
aI1
aI2
aI0
aI0
aI0
aI0
aI1
aI0
aI2
aI0
aI0
aI0
aI0
aI9
aI2
aI0
aI0
aI0
aI4
aI3
aI0
aI2
aI0
aI0
aI3
aI0
aI5
aI0
aI0
aI7
aI0
aI0
aI8
aI6
aI0
aI1
aI5
aI0
aI0
aI0
aI5
aI0
aI0
aI0
aI0
aI0
aI8
aI0
atp18
a.