(lp0
(S'Very easy (0)'
p1
I674
(lp2
I0
aI1
aI0
aI0
aI0
aI0
aI7
aI6
aI3
aI5
aI0
aI0
aI0
aI2
aI0
aI0
aI0
aI0
aI0
aI0
aI0
aI9
aI0
aI0
aI0
aI4
aI0
aI0
aI0
aI8
aI0
aI0
aI0
aI0
aI2
aI0
aI0
aI5
aI0
aI0
aI3
aI0
aI0
aI8
aI0
aI0
aI0
aI3
aI0
aI0
aI5
aI1
aI0
aI0
aI0
aI0
aI0
aI5
aI0
aI0
aI2
aI1
aI0
aI8
aI4
aI0
aI7
aI0
aI0
aI0
aI0
aI9
aI0
aI0
aI0
aI3
aI9
aI0
aI0
aI0
aI0
atp3
a(S'Super easy (0)'
p4
I749
(lp5
I0
aI0
aI0
aI6
aI0
aI9
aI0
aI0
aI7
aI0
aI0
aI0
aI7
aI0
aI1
aI0
aI0
aI0
aI0
aI7
aI5
aI0
aI3
aI0
aI4
aI0
aI0
aI6
aI3
aI0
aI0
aI0
aI0
aI0
aI7
aI5
aI0
aI0
aI7
aI0
aI0
aI0
aI2
aI0
aI0
aI4
aI2
aI0
aI0
aI0
aI0
aI0
aI6
aI9
aI0
aI0
aI8
aI0
aI2
aI0
aI9
aI1
aI0
aI0
aI0
aI0
aI1
aI0
aI4
aI0
aI0
aI0
aI5
aI0
aI0
aI3
aI0
aI6
aI0
aI0
aI0
atp6
a(S'Super easy (0)'
p7
I92
(lp8
I0
aI0
aI0
aI0
aI0
aI0
aI0
aI0
aI0
aI0
aI3
aI5
aI9
aI0
aI8
aI1
aI7
aI0
aI2
aI0
aI1
aI0
aI5
aI0
aI8
aI0
aI9
aI0
aI7
aI0
aI0
aI0
aI4
aI0
aI3
aI0
aI0
aI0
aI3
aI0
aI0
aI0
aI4
aI0
aI0
aI0
aI2
aI0
aI1
aI0
aI0
aI0
aI9
aI0
aI7
aI0
aI2
aI0
aI8
aI0
aI3
aI0
aI1
aI0
aI8
aI9
aI4
aI0
aI7
aI5
aI2
aI0
aI0
aI0
aI0
aI0
aI0
aI0
aI0
aI0
aI0
atp9
a(S'Super easy (0)'
p10
I433
(lp11
I7
aI0
aI0
aI8
aI0
aI6
aI0
aI0
aI2
aI0
aI0
aI0
aI9
aI5
aI3
aI0
aI0
aI0
aI0
aI1
aI0
aI0
aI0
aI0
aI0
aI5
aI0
aI8
aI2
aI0
aI0
aI4
aI0
aI0
aI7
aI3
aI0
aI9
aI0
aI6
aI0
aI5
aI0
aI4
aI0
aI5
aI4
aI0
aI0
aI8
aI0
aI0
aI2
aI9
aI0
aI8
aI0
aI0
aI0
aI0
aI0
aI3
aI0
aI0
aI0
aI0
aI5
aI9
aI8
aI0
aI0
aI0
aI1
aI0
aI0
aI4
aI0
aI2
aI0
aI0
aI5
atp12
a(S'Super easy (0)'
p13
I426
(lp14
I0
aI0
aI7
aI0
aI3
aI0
aI1
aI0
aI0
aI0
aI8
aI0
aI4
aI0
aI0
aI5
aI3
aI0
aI0
aI4
aI0
aI0
aI8
aI0
aI0
aI0
aI0
aI0
aI0
aI0
aI0
aI7
aI0
aI0
aI1
aI0
aI8
aI0
aI9
aI2
aI0
aI1
aI7
aI0
aI3
aI0
aI3
aI0
aI0
aI6
aI0
aI0
aI0
aI0
aI3
aI7
aI0
aI0
aI2
aI0
aI0
aI0
aI9
aI0
aI2
aI0
aI0
aI0
aI3
aI4
aI8
aI0
aI0
aI0
aI0
aI0
aI9
aI0
aI0
aI0
aI0
atp15
a(S'Super easy (0)'
p16
I349
(lp17
I0
aI0
aI0
aI6
aI0
aI3
aI0
aI7
aI0
aI5
aI0
aI0
aI2
aI0
aI4
aI6
aI0
aI9
aI0
aI0
aI0
aI0
aI9
aI0
aI0
aI4
aI2
aI1
aI8
aI0
aI0
aI0
aI0
aI0
aI5
aI4
aI0
aI0
aI9
aI0
aI0
aI0
aI8
aI0
aI0
aI3
aI2
aI0
aI0
aI0
aI0
aI0
aI6
aI7
aI0
aI3
aI0
aI0
aI6
aI0
aI0
aI0
aI0
aI4
aI0
aI8
aI3
aI0
aI2
aI0
aI0
aI0
aI0
aI1
aI5
aI8
aI0
aI9
aI0
aI2
aI0
atp18
a(S'Very hard (0)'
p19
I961
(lp20
I0
aI0
aI4
aI0
aI1
aI0
aI3
aI0
aI0
aI0
aI3
aI9
aI2
aI0
aI0
aI5
aI1
aI0
aI0
aI0
aI0
aI0
aI0
aI9
aI0
aI0
aI0
aI0
aI7
aI0
aI5
aI6
aI3
aI0
aI9
aI0
aI4
aI0
aI3
aI7
aI0
aI8
aI6
aI0
aI1
aI0
aI0
aI0
aI1
aI2
aI4
aI0
aI0
aI0
aI0
aI0
aI0
aI0
aI0
aI1
aI0
aI0
aI0
aI0
aI1
aI7
aI8
aI0
aI0
aI4
aI6
aI0
aI0
aI0
aI8
aI0
aI3
aI0
aI1
aI0
aI0
atp21
a(S'Very easy (0)'
p22
I962
(lp23
I0
aI0
aI3
aI0
aI0
aI0
aI0
aI0
aI0
aI9
aI0
aI0
aI5
aI2
aI7
aI0
aI0
aI0
aI0
aI0
aI0
aI0
aI3
aI0
aI5
aI4
aI1
aI0
aI2
aI0
aI0
aI0
aI3
aI0
aI1
aI0
aI0
aI3
aI4
aI0
aI0
aI0
aI6
aI7
aI0
aI0
aI9
aI0
aI1
aI0
aI0
aI0
aI3
aI0
aI0
aI0
aI5
aI0
aI6
aI0
aI0
aI0
aI0
aI0
aI0
aI9
aI7
aI1
aI4
aI0
aI0
aI3
aI0
aI0
aI8
aI0
aI0
aI0
aI9
aI0
aI0
atp24
a.